
TEDv3.elf:     file format elf32-littlenios2
TEDv3.elf
architecture: nios2, flags 0x00000112:
EXEC_P, HAS_SYMS, D_PAGED
start address 0x0010031c

Program Header:
    LOAD off    0x00001000 vaddr 0x00100000 paddr 0x00100000 align 2**12
         filesz 0x00000020 memsz 0x00000020 flags r-x
    LOAD off    0x00001020 vaddr 0x00100020 paddr 0x00100020 align 2**12
         filesz 0x00016bf0 memsz 0x00016bf0 flags r-x
    LOAD off    0x00017c10 vaddr 0x00116c10 paddr 0x0011880c align 2**12
         filesz 0x00001bfc memsz 0x00001bfc flags rw-
    LOAD off    0x0001a408 vaddr 0x0011a408 paddr 0x0011a408 align 2**12
         filesz 0x00000000 memsz 0x00000178 flags rw-
    LOAD off    0x0001a000 vaddr 0x00000000 paddr 0x0011a580 align 2**12
         filesz 0x00000c00 memsz 0x00000c00 flags rw-
    LOAD off    0x0001b000 vaddr 0x01000000 paddr 0x0011b180 align 2**12
         filesz 0x00008e80 memsz 0x00008e80 flags rw-
    LOAD off    0x00024000 vaddr 0x02000000 paddr 0x00124000 align 2**12
         filesz 0x00008e80 memsz 0x00008e80 flags rw-

Sections:
Idx Name          Size      VMA       LMA       File off  Algn
  0 .entry        00000020  00100000  00100000  00001000  2**5
                  CONTENTS, ALLOC, LOAD, READONLY, CODE
  1 .exceptions   000002fc  00100020  00100020  00001020  2**2
                  CONTENTS, ALLOC, LOAD, READONLY, CODE
  2 .text         00015ca8  0010031c  0010031c  0000131c  2**2
                  CONTENTS, ALLOC, LOAD, READONLY, CODE
  3 .rodata       00000c4c  00115fc4  00115fc4  00016fc4  2**2
                  CONTENTS, ALLOC, LOAD, READONLY, DATA
  4 .rwdata       00001bfc  00116c10  0011880c  00017c10  2**2
                  CONTENTS, ALLOC, LOAD, DATA, SMALL_DATA
  5 .bss          00000178  0011a408  0011a408  0001a408  2**2
                  ALLOC, SMALL_DATA
  6 .descriptor_mem 00000c00  00000000  0011a580  0001a000  2**2
                  CONTENTS, ALLOC, LOAD, DATA
  7 .heap_stack   00000000  00028000  00028000  0002ce80  2**0
                  CONTENTS
  8 .instruction_memory 00000000  0011b180  0011b180  0002ce80  2**0
                  CONTENTS
  9 .red_to_black_memory 00008e80  01000000  0011b180  0001b000  2**0
                  CONTENTS, ALLOC, LOAD, DATA
 10 .black_to_red_memory 00008e80  02000000  00124000  00024000  2**0
                  CONTENTS, ALLOC, LOAD, DATA
 11 .comment      00000039  00000000  00000000  0002ce80  2**0
                  CONTENTS, READONLY
 12 .debug_aranges 00000f88  00000000  00000000  0002cec0  2**3
                  CONTENTS, READONLY, DEBUGGING
 13 .debug_info   0002dc94  00000000  00000000  0002de48  2**0
                  CONTENTS, READONLY, DEBUGGING
 14 .debug_abbrev 0000b663  00000000  00000000  0005badc  2**0
                  CONTENTS, READONLY, DEBUGGING
 15 .debug_line   0000df14  00000000  00000000  0006713f  2**0
                  CONTENTS, READONLY, DEBUGGING
 16 .debug_frame  000027a8  00000000  00000000  00075054  2**2
                  CONTENTS, READONLY, DEBUGGING
 17 .debug_str    000047fb  00000000  00000000  000777fc  2**0
                  CONTENTS, READONLY, DEBUGGING
 18 .debug_loc    0001ee23  00000000  00000000  0007bff7  2**0
                  CONTENTS, READONLY, DEBUGGING
 19 .debug_alt_sim_info 00000010  00000000  00000000  0009ae1c  2**2
                  CONTENTS, READONLY, DEBUGGING
 20 .debug_ranges 00001788  00000000  00000000  0009ae30  2**3
                  CONTENTS, READONLY, DEBUGGING
 21 .thread_model 00000003  00000000  00000000  000a081b  2**0
                  CONTENTS, READONLY
 22 .cpu          0000000c  00000000  00000000  000a081e  2**0
                  CONTENTS, READONLY
 23 .qsys         00000001  00000000  00000000  000a082a  2**0
                  CONTENTS, READONLY
 24 .simulation_enabled 00000001  00000000  00000000  000a082b  2**0
                  CONTENTS, READONLY
 25 .sysid_hash   00000004  00000000  00000000  000a082c  2**0
                  CONTENTS, READONLY
 26 .sysid_base   00000004  00000000  00000000  000a0830  2**0
                  CONTENTS, READONLY
 27 .sysid_time   00000004  00000000  00000000  000a0834  2**0
                  CONTENTS, READONLY
 28 .stderr_dev   00000009  00000000  00000000  000a0838  2**0
                  CONTENTS, READONLY
 29 .stdin_dev    00000009  00000000  00000000  000a0841  2**0
                  CONTENTS, READONLY
 30 .stdout_dev   00000009  00000000  00000000  000a084a  2**0
                  CONTENTS, READONLY
 31 .sopc_system_name 00000012  00000000  00000000  000a0853  2**0
                  CONTENTS, READONLY
 32 .quartus_project_dir 0000003e  00000000  00000000  000a0865  2**0
                  CONTENTS, READONLY
 33 .jdi          00004878  00000000  00000000  000a08a3  2**0
                  CONTENTS, READONLY
 34 .sopcinfo     000e65b5  00000000  00000000  000a511b  2**0
                  CONTENTS, READONLY
SYMBOL TABLE:
00100000 l    d  .entry	00000000 .entry
00100020 l    d  .exceptions	00000000 .exceptions
0010031c l    d  .text	00000000 .text
00115fc4 l    d  .rodata	00000000 .rodata
00116c10 l    d  .rwdata	00000000 .rwdata
0011a408 l    d  .bss	00000000 .bss
00000000 l    d  .descriptor_mem	00000000 .descriptor_mem
00028000 l    d  .heap_stack	00000000 .heap_stack
0011b180 l    d  .instruction_memory	00000000 .instruction_memory
01000000 l    d  .red_to_black_memory	00000000 .red_to_black_memory
02000000 l    d  .black_to_red_memory	00000000 .black_to_red_memory
00000000 l    d  .comment	00000000 .comment
00000000 l    d  .debug_aranges	00000000 .debug_aranges
00000000 l    d  .debug_info	00000000 .debug_info
00000000 l    d  .debug_abbrev	00000000 .debug_abbrev
00000000 l    d  .debug_line	00000000 .debug_line
00000000 l    d  .debug_frame	00000000 .debug_frame
00000000 l    d  .debug_str	00000000 .debug_str
00000000 l    d  .debug_loc	00000000 .debug_loc
00000000 l    d  .debug_alt_sim_info	00000000 .debug_alt_sim_info
00000000 l    d  .debug_ranges	00000000 .debug_ranges
00000000 l    df *ABS*	00000000 ../TEDv3_bsp//obj/HAL/src/crt0.o
00100354 l       .text	00000000 alt_after_alt_main
00000000 l    df *ABS*	00000000 alt_exception_entry.o
00100260 l       .exceptions	00000000 alt_exception_unknown
00000000 l    df *ABS*	00000000 alt_irq_handler.c
00000000 l    df *ABS*	00000000 DecryptCheck.c
00000000 l    df *ABS*	00000000 EncryptCheck.c
00000000 l    df *ABS*	00000000 PacketProcessor_Black_Rx.c
00000000 l    df *ABS*	00000000 PacketProcessor_Red_Rx.c
00000000 l    df *ABS*	00000000 TargetList.c
0011a408 l     O .bss	00000004 lastTargetNumber.2931
00000000 l    df *ABS*	00000000 circular_fifo.c
00000000 l    df *ABS*	00000000 hex.c
00000000 l    df *ABS*	00000000 lcd.c
00000000 l    df *ABS*	00000000 led.c
00000000 l    df *ABS*	00000000 mac.c
00000000 l    df *ABS*	00000000 main.c
0010239c l     F .text	00000058 __list_add
001023f4 l     F .text	00000044 list_add_tail
00102438 l     F .text	0000003c __list_del
00102474 l     F .text	00000054 list_move_tail
00000000 l    df *ABS*	00000000 printpacket.c
00000000 l    df *ABS*	00000000 sw.c
00000000 l    df *ABS*	00000000 lib2-divmod.c
00103e08 l     F .text	00000070 udivmodsi4
00000000 l    df *ABS*	00000000 lib2-mul.c
00000000 l    df *ABS*	00000000 malloc.c
00000000 l    df *ABS*	00000000 mallocr.c
00000000 l    df *ABS*	00000000 printf.c
00000000 l    df *ABS*	00000000 putchar.c
00000000 l    df *ABS*	00000000 puts.c
00000000 l    df *ABS*	00000000 sbrkr.c
00000000 l    df *ABS*	00000000 sprintf.c
00000000 l    df *ABS*	00000000 strlen.c
00000000 l    df *ABS*	00000000 vfprintf.c
001168ea l     O .rodata	00000010 zeroes.4140
001168fa l     O .rodata	00000010 blanks.4139
00000000 l    df *ABS*	00000000 vfprintf.c
0011690a l     O .rodata	00000010 zeroes.4155
0011691a l     O .rodata	00000010 blanks.4154
00000000 l    df *ABS*	00000000 wsetup.c
00000000 l    df *ABS*	00000000 dtoa.c
00108d58 l     F .text	00000228 quorem
00000000 l    df *ABS*	00000000 fflush.c
00000000 l    df *ABS*	00000000 findfp.c
0010a830 l     F .text	00000008 __fp_lock
0010a838 l     F .text	00000008 __fp_unlock
00000000 l    df *ABS*	00000000 mallocr.c
00000000 l    df *ABS*	00000000 fvwrite.c
00000000 l    df *ABS*	00000000 fwalk.c
00000000 l    df *ABS*	00000000 impure.c
00117018 l     O .rwdata	00000424 impure_data
00000000 l    df *ABS*	00000000 int_errno.c
00000000 l    df *ABS*	00000000 locale.c
0011745c l     O .rwdata	00000020 lc_ctype_charset
0011743c l     O .rwdata	00000020 lc_message_charset
0011747c l     O .rwdata	00000038 lconv
00000000 l    df *ABS*	00000000 makebuf.c
00000000 l    df *ABS*	00000000 memchr.c
00000000 l    df *ABS*	00000000 memcpy.c
00000000 l    df *ABS*	00000000 memmove.c
00000000 l    df *ABS*	00000000 memset.c
00000000 l    df *ABS*	00000000 mprec.c
0011694c l     O .rodata	0000000c p05.2652
00000000 l    df *ABS*	00000000 putc.c
00000000 l    df *ABS*	00000000 mallocr.c
00000000 l    df *ABS*	00000000 s_fpclassify.c
00000000 l    df *ABS*	00000000 stdio.c
00000000 l    df *ABS*	00000000 strcmp.c
00000000 l    df *ABS*	00000000 vfprintf.c
00116a70 l     O .rodata	00000010 zeroes.4084
00116a80 l     O .rodata	00000010 blanks.4083
00000000 l    df *ABS*	00000000 vfprintf.c
0010e988 l     F .text	000000fc __sprint_r.part.0
00116aa0 l     O .rodata	00000010 blanks.4099
00116a90 l     O .rodata	00000010 zeroes.4100
00000000 l    df *ABS*	00000000 wbuf.c
00000000 l    df *ABS*	00000000 writer.c
00000000 l    df *ABS*	00000000 closer.c
00000000 l    df *ABS*	00000000 mallocr.c
00000000 l    df *ABS*	00000000 fclose.c
00000000 l    df *ABS*	00000000 fputwc.c
00000000 l    df *ABS*	00000000 fstatr.c
00000000 l    df *ABS*	00000000 isattyr.c
00000000 l    df *ABS*	00000000 lseekr.c
00000000 l    df *ABS*	00000000 readr.c
00000000 l    df *ABS*	00000000 wcrtomb.c
00000000 l    df *ABS*	00000000 wctomb_r.c
00000000 l    df *ABS*	00000000 libgcc2.c
00000000 l    df *ABS*	00000000 libgcc2.c
00000000 l    df *ABS*	00000000 adddf3.c
00000000 l    df *ABS*	00000000 divdf3.c
00000000 l    df *ABS*	00000000 eqdf2.c
00000000 l    df *ABS*	00000000 gedf2.c
00000000 l    df *ABS*	00000000 ledf2.c
00000000 l    df *ABS*	00000000 muldf3.c
00000000 l    df *ABS*	00000000 subdf3.c
00000000 l    df *ABS*	00000000 fixdfsi.c
00000000 l    df *ABS*	00000000 floatsidf.c
00000000 l    df *ABS*	00000000 floatunsidf.c
00000000 l    df *ABS*	00000000 libgcc2.c
00000000 l    df *ABS*	00000000 libgcc2.c
00000000 l    df *ABS*	00000000 alt_close.c
00000000 l    df *ABS*	00000000 alt_dev.c
00113e18 l     F .text	00000008 alt_dev_null_write
00000000 l    df *ABS*	00000000 alt_errno.c
00000000 l    df *ABS*	00000000 alt_fstat.c
00000000 l    df *ABS*	00000000 alt_isatty.c
00000000 l    df *ABS*	00000000 alt_load.c
00000000 l    df *ABS*	00000000 alt_lseek.c
00000000 l    df *ABS*	00000000 alt_main.c
00000000 l    df *ABS*	00000000 alt_malloc_lock.c
00000000 l    df *ABS*	00000000 alt_read.c
00000000 l    df *ABS*	00000000 alt_release_fd.c
00000000 l    df *ABS*	00000000 alt_sbrk.c
001187f4 l     O .rwdata	00000004 heap_end
00000000 l    df *ABS*	00000000 alt_write.c
00000000 l    df *ABS*	00000000 alt_sys_init.c
00117748 l     O .rwdata	00001060 jtag_uart
00117718 l     O .rwdata	00000030 black_rx
001176e8 l     O .rwdata	00000030 black_tx
001176b8 l     O .rwdata	00000030 red_rx
00117688 l     O .rwdata	00000030 red_tx
0011765c l     O .rwdata	0000002c lcd
00000000 l    df *ABS*	00000000 altera_avalon_jtag_uart_fd.c
00000000 l    df *ABS*	00000000 altera_avalon_jtag_uart_init.c
00114538 l     F .text	00000058 altera_avalon_jtag_uart_timeout
00114590 l     F .text	00000104 altera_avalon_jtag_uart_irq
00000000 l    df *ABS*	00000000 altera_avalon_jtag_uart_ioctl.c
00000000 l    df *ABS*	00000000 altera_avalon_jtag_uart_read.c
00000000 l    df *ABS*	00000000 altera_avalon_jtag_uart_write.c
00000000 l    df *ABS*	00000000 altera_avalon_sgdma.c
00114a80 l     F .text	0000005c alt_avalon_sgdma_irq
00000000 l    df *ABS*	00000000 altera_avalon_timer_sc.c
00115100 l     F .text	0000003c alt_avalon_timer_sc_irq
00000000 l    df *ABS*	00000000 altera_up_avalon_character_lcd.c
00000000 l    df *ABS*	00000000 alt_alarm_start.c
00000000 l    df *ABS*	00000000 alt_dcache_flush.c
00000000 l    df *ABS*	00000000 alt_dcache_flush_all.c
00000000 l    df *ABS*	00000000 alt_dev_llist_insert.c
00000000 l    df *ABS*	00000000 alt_do_ctors.c
00000000 l    df *ABS*	00000000 alt_do_dtors.c
00000000 l    df *ABS*	00000000 alt_find_dev.c
00000000 l    df *ABS*	00000000 alt_icache_flush_all.c
00000000 l    df *ABS*	00000000 alt_iic.c
00000000 l    df *ABS*	00000000 alt_iic_isr_register.c
00000000 l    df *ABS*	00000000 alt_io_redirect.c
00115700 l     F .text	00000088 alt_open_fd.constprop.0
00000000 l    df *ABS*	00000000 alt_irq_vars.c
00000000 l    df *ABS*	00000000 alt_open.c
00000000 l    df *ABS*	00000000 alt_tick.c
00000000 l    df *ABS*	00000000 altera_nios2_qsys_irq.c
00000000 l    df *ABS*	00000000 alt_find_file.c
00000000 l    df *ABS*	00000000 alt_get_fd.c
00000000 l    df *ABS*	00000000 atexit.c
00000000 l    df *ABS*	00000000 exit.c
00000000 l    df *ABS*	00000000 memcmp.c
00000000 l    df *ABS*	00000000 __atexit.c
00000000 l    df *ABS*	00000000 __call_atexit.c
00000000 l    df *ABS*	00000000 alt_exit.c
001187b0 g     O .rwdata	00000004 Switches
001047a0 g     F .text	0000001c putchar
0010cb6c g     F .text	00000074 _mprec_log10
00100bd8 g     F .text	0000004c IcmpPacketBlack
0010cc58 g     F .text	00000088 __any_on
001105ec g     F .text	00000064 _isatty_r
00116958 g     O .rodata	00000028 __mprec_tinytens
00114108 g     F .text	00000060 alt_main
001047bc g     F .text	000000b8 _puts_r
0011a480 g     O .bss	00000100 alt_irq
00110650 g     F .text	0000006c _lseek_r
0011880c g       *ABS*	00000000 __flash_rwdata_start
001151a0 g     F .text	0000000c alt_up_character_lcd_send_cmd
001127c8 g     F .text	00000084 .hidden __eqdf2
00028000 g       *ABS*	00000000 __alt_heap_start
0010475c g     F .text	0000003c printf
00114b64 g     F .text	00000088 alt_avalon_sgdma_do_sync_transfer
00110728 g     F .text	0000009c _wcrtomb_r
00100ff0 g     F .text	00000044 Ipv4PacketRed
0010d4f0 g     F .text	0000005c __sseek
0010a8dc g     F .text	0000019c __sinit
0010ff08 g     F .text	00000180 __swbuf_r
0010b5ec g     F .text	00000070 _setlocale_r
0010a84c g     F .text	00000078 __sfmoreglue
0011a40c g     O .bss	00000004 headNumber
0011416c g     F .text	00000004 __malloc_unlock
00114d18 g     F .text	00000164 alt_avalon_sgdma_construct_descriptor_burst
0010ba68 g     F .text	0000013c memmove
00100850 g     F .text	00000344 PacketProcessor_Black_Rx
0010a8c4 g     F .text	00000018 _cleanup
0010bcb8 g     F .text	000000a8 _Balloc
0011284c g     F .text	000000d8 .hidden __gtdf2
00000000  w      *UND*	00000000 __errno
0011518c g     F .text	00000014 get_DDRAM_addr
02000000 g       *ABS*	00000000 __alt_mem_black_to_red_memory
00100000 g     F .entry	0000000c __reset
00028000 g       *ABS*	00000000 __alt_mem_heap_stack
00114f04 g     F .text	0000004c alt_avalon_sgdma_construct_stream_to_mem_desc_burst
00100020 g       *ABS*	00000000 __flash_exceptions_start
00110584 g     F .text	00000068 _fstat_r
0011a430 g     O .bss	00000004 errno
0010d46c g     F .text	00000008 __seofread
0010071c g     F .text	00000134 NatEncrypt
0010d7c4 g     F .text	000011c4 ___svfiprintf_internal_r
0011a444 g     O .bss	00000004 alt_argv
001207a8 g       *ABS*	00000000 _gp
001004a0 g     F .text	00000134 NatDecrypt
00000300 g     O .descriptor_mem	00000300 red_tx_descriptor
001174b4 g     O .rwdata	00000180 alt_fd_list
00104798 g     F .text	00000008 _putchar_r
00115558 g     F .text	00000090 alt_find_dev
0010b95c g     F .text	0000010c memcpy
001005d4 g     F .text	00000088 PortEncrypt
00115210 g     F .text	0000002c alt_up_character_lcd_write_fd
00101080 g     F .text	0000032c ProcessAdminPacket
0011a410 g     O .bss	00000004 RedTx
0010a840 g     F .text	0000000c _cleanup_r
00113b18 g     F .text	000000d0 .hidden __floatsidf
00115788 g     F .text	00000078 alt_io_redirect
00112924 g     F .text	000000ec .hidden __ltdf2
00115fc4 g       *ABS*	00000000 __DTOR_END__
0010065c g     F .text	000000c0 IpEncrypt
00104874 g     F .text	00000014 puts
0010d3b0 g     F .text	00000068 __fpclassifyd
0010cacc g     F .text	000000a0 __ratio
0010fee4 g     F .text	00000024 __vfiprintf_internal
00114f98 g     F .text	00000050 alt_avalon_sgdma_construct_mem_to_stream_desc_burst
0011a414 g     O .bss	00000004 BlackTx
001147bc g     F .text	0000013c altera_avalon_jtag_uart_read
00103f44 g     F .text	00000014 malloc
00104730 g     F .text	0000002c _printf_r
00103f0c g     F .text	00000008 .hidden __udivsi3
00113eb4 g     F .text	000000a8 isatty
001169a8 g     O .rodata	000000c8 __mprec_tens
0010b65c g     F .text	0000000c __locale_charset
0011a42c g     O .bss	00000004 __malloc_top_pad
001187ac g     O .rwdata	00000004 Red_Interface
001187d4 g     O .rwdata	00000004 __mb_cur_max
0010b68c g     F .text	0000000c _localeconv_r
0010c0e8 g     F .text	0000003c __i2b
0010afe0 g     F .text	000004ac __sfvwrite_r
00114c14 g     F .text	0000001c alt_avalon_sgdma_stop
00104888 g     F .text	00000064 _sbrk_r
00103be0 g     F .text	00000228 swPrintStatus
00000000 g     O .descriptor_mem	00000300 red_rx_descriptor
001106bc g     F .text	0000006c _read_r
00115410 g     F .text	00000004 alt_dcache_flush
001187dc g     O .rwdata	00000004 alt_max_fd
0011024c g     F .text	00000128 _fclose_r
001187b4 g     O .rwdata	00000004 HEX
0010a800 g     F .text	00000030 fflush
0011a428 g     O .bss	00000004 __malloc_max_sbrked_mem
001115b0 g     F .text	0000087c .hidden __adddf3
0010c898 g     F .text	000000f0 __b2d
00110f7c g     F .text	00000634 .hidden __umoddi3
00114070 g     F .text	00000098 lseek
00103b58 g     F .text	00000088 swInit
001187cc g     O .rwdata	00000004 _global_impure_ptr
0010ce4c g     F .text	00000564 _realloc_r
0011a580 g       *ABS*	00000000 __bss_end
00115688 g     F .text	00000078 alt_iic_isr_register
00114adc g     F .text	00000088 alt_avalon_sgdma_do_async_transfer
00101abc g     F .text	00000070 hexInit
001159b8 g     F .text	000000f0 alt_tick
00110928 g     F .text	00000654 .hidden __udivdi3
00110388 g     F .text	00000184 _fputwc_r
00101c88 g     F .text	000005b4 macInit
00116980 g     O .rodata	00000028 __mprec_bigtens
0010becc g     F .text	00000104 __s2b
00113be8 g     F .text	000000a0 .hidden __floatunsidf
0010c628 g     F .text	00000060 __mcmp
0010aba4 g     F .text	00000018 __fp_lock_all
00115670 g     F .text	00000018 alt_ic_irq_enabled
00115984 g     F .text	00000034 alt_alarm_stop
0011a44c g     O .bss	00000004 alt_irq_active
001002b8 g     F .exceptions	00000064 alt_irq_handler
00117634 g     O .rwdata	00000028 alt_dev_null
0011a418 g     O .bss	00000004 BlackRx
0010194c g     F .text	000000a0 available
0011536c g     F .text	00000010 alt_up_character_lcd_cursor_blink_on
00114c30 g     F .text	0000002c alt_avalon_sgdma_check_descriptor_status
00000000 g       .debug_aranges	00000000 alt_exception_muldiv
00100000 g       *ABS*	00000000 __alt_mem_instruction_memory
00115414 g     F .text	00000004 alt_dcache_flush_all
0010bfd0 g     F .text	00000068 __hi0bits
00113a98 g     F .text	00000080 .hidden __fixdfsi
0011880c g       *ABS*	00000000 __ram_rwdata_end
001187e0 g     O .rwdata	00000008 alt_dev_list
00114314 g     F .text	000000f8 write
00114cc8 g     F .text	00000030 alt_avalon_sgdma_enable_desc_poll
0010cce0 g     F .text	000000a0 _putc_r
00116c10 g       *ABS*	00000000 __ram_rodata_end
00113e20 g     F .text	00000094 fstat
0011a41c g     O .bss	00000004 RedRx
00112924 g     F .text	000000ec .hidden __ledf2
001187c0 g     O .rwdata	00000004 LEDs
0010c390 g     F .text	00000148 __pow5mult
0010ea9c g     F .text	00001448 ___vfiprintf_internal_r
0011a43c g     O .bss	00000004 __nlocale_changed
00103f14 g     F .text	00000008 .hidden __umodsi3
00114fe8 g     F .text	0000004c alt_avalon_sgdma_construct_mem_to_stream_desc
00114bec g     F .text	00000010 alt_avalon_sgdma_register_callback
00028000 g       *ABS*	00000000 end
001019ec g     F .text	00000068 add_to_fifo
00000600 g     O .descriptor_mem	00000300 black_rx_descriptor
00114694 g     F .text	00000080 altera_avalon_jtag_uart_init
00115fc4 g       *ABS*	00000000 __CTOR_LIST__
0002e1a8 g       *ABS*	00000000 __alt_stack_pointer
00114cf8 g     F .text	00000020 alt_avalon_sgdma_disable_desc_poll
0011513c g     F .text	00000050 alt_avalon_timer_sc_init
00113c88 g     F .text	000000ac .hidden __clzsi2
001148f8 g     F .text	00000188 altera_avalon_jtag_uart_write
00114ec4 g     F .text	00000040 alt_avalon_sgdma_construct_mem_to_mem_desc
0010ab94 g     F .text	00000004 __sfp_lock_acquire
0010b874 g     F .text	000000e8 memchr
001151c8 g     F .text	00000020 alt_up_character_lcd_write
00106aa8 g     F .text	00002154 ___vfprintf_internal_r
001048ec g     F .text	00000058 _sprintf_r
00114f50 g     F .text	00000048 alt_avalon_sgdma_construct_stream_to_mem_desc
0010ad10 g     F .text	000002d0 _free_r
0010b668 g     F .text	00000010 __locale_mb_cur_max
00101b2c g     F .text	000000f4 lcdInit
00115e0c g     F .text	000001a4 __call_exitprocs
0011a438 g     O .bss	00000004 __mlocale_changed
001187c4 g     O .rwdata	00000004 __malloc_sbrk_base
0010031c g     F .text	0000003c _start
0011a454 g     O .bss	00000004 _alt_tick_rate
00114c5c g     F .text	0000006c alt_avalon_sgdma_open
0010171c g     F .text	000001e0 PrintTargetList
0010c4d8 g     F .text	00000150 __lshift
0011a450 g     O .bss	00000004 _alt_nticks
00114170 g     F .text	000000fc read
0011442c g     F .text	000000d0 alt_sys_init
001152d0 g     F .text	00000044 alt_up_character_lcd_shift_display
0010d5f8 g     F .text	000001cc __ssprint_r
00115cf0 g     F .text	0000011c __register_exitproc
00000000 g       *ABS*	00000000 __alt_mem_descriptor_mem
0010c124 g     F .text	0000026c __multiply
00115314 g     F .text	00000048 alt_up_character_lcd_erase_pos
00114714 g     F .text	00000034 altera_avalon_jtag_uart_close
00103f1c g     F .text	00000028 .hidden __mulsi3
00116c10 g       *ABS*	00000000 __ram_rwdata_start
00115fc4 g       *ABS*	00000000 __ram_rodata_start
0011a458 g     O .bss	00000028 __malloc_current_mallinfo
0010c988 g     F .text	00000144 __d2b
00101a54 g     F .text	00000068 remove_from_fifo
001144fc g     F .text	00000010 altera_avalon_jtag_uart_read_fd
00115b7c g     F .text	000000ac alt_get_fd
00110110 g     F .text	00000064 _close_r
001003e0 g     F .text	000000c0 IpDecrypt
00115c74 g     F .text	0000007c memcmp
0011451c g     F .text	00000010 altera_avalon_jtag_uart_close_fd
00028000 g       *ABS*	00000000 __alt_stack_base
0011452c g     F .text	0000000c altera_avalon_jtag_uart_ioctl_fd
00108c20 g     F .text	00000138 __swsetup_r
00111e2c g     F .text	0000099c .hidden __divdf3
0010aa78 g     F .text	0000011c __sfp
0010cbe0 g     F .text	00000078 __copybits
00116c10 g     O .rwdata	00000408 __malloc_av_
0010aba0 g     F .text	00000004 __sinit_lock_release
00112a10 g     F .text	00000800 .hidden __muldf3
0010d418 g     F .text	00000054 __sread
00115ab0 g     F .text	000000cc alt_find_file
00115418 g     F .text	00000078 alt_dev_llist_insert
00114168 g     F .text	00000004 __malloc_lock
001142c8 g     F .text	0000004c sbrk
00000900 g     O .descriptor_mem	00000300 black_tx_descriptor
00104a3c g     F .text	0000206c ___svfprintf_internal_r
00114bfc g     F .text	00000018 alt_avalon_sgdma_start
0010a5bc g     F .text	00000244 _fflush_r
00110174 g     F .text	000000d8 _calloc_r
0011a408 g       *ABS*	00000000 __bss_start
0010bba4 g     F .text	00000114 memset
00103a3c g     F .text	0000011c PrintPacket
001024c8 g     F .text	00001574 main
0011a440 g     O .bss	00000004 alt_envp
0011a424 g     O .bss	00000004 __malloc_max_total_mem
0011450c g     F .text	00000010 altera_avalon_jtag_uart_write_fd
00110088 g     F .text	0000001c __swbuf
00101034 g     F .text	0000004c IcmpPacketRed
001187f8 g     O .rwdata	00000008 alt_sgdma_list
0011528c g     F .text	00000044 alt_up_character_lcd_shift_cursor
0010d54c g     F .text	00000008 __sclose
0002e1a8 g       *ABS*	00000000 __alt_heap_limit
00110374 g     F .text	00000014 fclose
00108f80 g     F .text	0000163c _dtoa_r
00103f6c g     F .text	000007c4 _malloc_r
0011089c g     F .text	00000030 __ascii_wctomb
001187f0 g     O .rwdata	00000004 alt_errno
00101558 g     F .text	000001c4 AddTarget
0010b48c g     F .text	000000a8 _fwalk
0010cd80 g     F .text	000000cc putc
00103e78 g     F .text	00000048 .hidden __divsi3
02000000 g     O .black_to_red_memory	00008e80 black_to_red_frame
001151bc g     F .text	0000000c alt_up_character_lcd_open_dev
0010abd4 g     F .text	0000013c _malloc_trim_r
00115fc4 g       *ABS*	00000000 __CTOR_END__
001151ac g     F .text	00000010 alt_up_character_lcd_init
0010d554 g     F .text	000000a4 strcmp
00115fc4 g       *ABS*	00000000 __flash_rodata_start
00115fc4 g       *ABS*	00000000 __DTOR_LIST__
001127c8 g     F .text	00000084 .hidden __nedf2
0011440c g     F .text	00000020 alt_irq_init
0011426c g     F .text	0000005c alt_release_fd
00104944 g     F .text	0000006c sprintf
0011535c g     F .text	00000010 alt_up_character_lcd_cursor_off
00116ab0 g     O .rodata	00000100 .hidden __clz_tab
0011a434 g     O .bss	00000004 _PathLocale
00115c28 g     F .text	00000014 atexit
001100a4 g     F .text	0000006c _write_r
0010b698 g     F .text	0000001c setlocale
001187b8 g     O .rwdata	00000004 Encryptor
001187a8 g     O .rwdata	00000004 Black_Interface
001187d0 g     O .rwdata	00000004 _impure_ptr
0011a448 g     O .bss	00000004 alt_argc
001154f4 g     F .text	00000064 _do_dtors
0010b684 g     F .text	00000008 __locale_cjk_lang
00100b94 g     F .text	00000044 Ipv4PacketBlack
00100020 g       .exceptions	00000000 alt_irq_entry
0010c838 g     F .text	00000060 __ulp
0010abbc g     F .text	00000018 __fp_unlock_all
001013ac g     F .text	000001ac InitializeTargetList
001187e8 g     O .rwdata	00000008 alt_fs_list
00100fac g     F .text	00000044 AdminPacket
00100c24 g     F .text	00000388 PacketProcessor_Red_Rx
0010223c g     F .text	00000160 macPrintRegs
00100020 g       *ABS*	00000000 __ram_exceptions_start
0010b6b4 g     F .text	0000000c localeconv
01000000 g       *ABS*	00000000 __alt_mem_red_to_black_memory
001155ec g     F .text	00000004 alt_ic_isr_register
01000000 g     O .red_to_black_memory	00008e80 red_to_black_frame
0011880c g       *ABS*	00000000 _edata
00028000 g       *ABS*	00000000 _end
0010031c g       *ABS*	00000000 __ram_exceptions_end
00114748 g     F .text	00000074 altera_avalon_jtag_uart_ioctl
00115630 g     F .text	00000040 alt_ic_irq_disable
00115034 g     F .text	00000048 alt_avalon_sgdma_construct_descriptor
0010d474 g     F .text	0000007c __swrite
001187c8 g     O .rwdata	00000004 __malloc_trim_threshold
00115aa8 g     F .text	00000008 altera_nios2_qsys_irq_init
0010b678 g     F .text	0000000c __locale_msgcharset
00115c3c g     F .text	00000038 exit
0010b534 g     F .text	000000b8 _fwalk_reent
0010c688 g     F .text	000001b0 __mdiff
00103ec0 g     F .text	0000004c .hidden __modsi3
0002e1a8 g       *ABS*	00000000 __alt_data_end
00100020 g     F .exceptions	00000000 alt_exception
0010ab98 g     F .text	00000004 __sfp_lock_release
001151e8 g     F .text	00000028 alt_up_character_lcd_string
0011a420 g     O .bss	00000004 LCD
00115fb0 g     F .text	00000014 _exit
0011537c g     F .text	00000094 alt_alarm_start
0010b6c0 g     F .text	000001b4 __smakebuf_r
001049b0 g     F .text	0000008c strlen
00115800 g     F .text	00000184 open
0011284c g     F .text	000000d8 .hidden __gedf2
001018fc g     F .text	00000050 initialize_fifo
001187d8 g     O .rwdata	00000004 __wctomb
0010ea84 g     F .text	00000018 __sprint_r
001155e8 g     F .text	00000004 alt_icache_flush_all
00101c20 g     F .text	00000068 ledInit
0011523c g     F .text	00000050 alt_up_character_lcd_set_cursor_pos
00118800 g     O .rwdata	00000004 alt_priority_mask
001155f0 g     F .text	00000040 alt_ic_irq_enable
00108bfc g     F .text	00000024 __vfprintf_internal
001108cc g     F .text	0000005c _wctomb_r
00114e7c g     F .text	00000048 alt_avalon_sgdma_construct_mem_to_mem_desc_burst
001187bc g     O .rwdata	00000004 Decryptor
00113210 g     F .text	00000888 .hidden __subdf3
0010c038 g     F .text	000000b0 __lo0bits
00118804 g     O .rwdata	00000008 alt_alarm_list
00115490 g     F .text	00000064 _do_ctors
001107c4 g     F .text	000000d8 wcrtomb
00113d34 g     F .text	000000e4 close
00113f5c g     F .text	00000114 alt_load
00100358 g     F .text	00000088 PortDecrypt
0011507c g     F .text	00000084 alt_avalon_sgdma_init
0011050c g     F .text	00000078 fputwc
00103f58 g     F .text	00000014 free
0010ab9c g     F .text	00000004 __sinit_lock_acquire
0010bd88 g     F .text	00000144 __multadd
0010bd60 g     F .text	00000028 _Bfree



Disassembly of section .entry:

00100000 <__reset>:
 * Jump to the _start entry point in the .text section if reset code
 * is allowed or if optimizing for RTL simulation.
 */
#if defined(ALT_ALLOW_CODE_AT_RESET) || defined(ALT_SIM_OPTIMIZE)
    /* Jump to the _start entry point in the .text section. */
    movhi r1, %hi(_start)
  100000:	00400434 	movhi	at,16
    ori r1, r1, %lo(_start)
  100004:	0840c714 	ori	at,at,796
    jmp r1
  100008:	0800683a 	jmp	at
	...

Disassembly of section .exceptions:

00100020 <alt_exception>:

#else /* ALT_EXCEPTION_STACK disabled */
        /* 
         * Reserve space on normal stack for registers about to be pushed.
         */
        addi  sp, sp, -76
  100020:	deffed04 	addi	sp,sp,-76
         * documentation for details).
         *
         * Leave a gap in the stack frame at 4(sp) for the muldiv handler to
         * store zero into.
         */
        stw   ra,  0(sp)
  100024:	dfc00015 	stw	ra,0(sp)
        stw   r1,   8(sp)
  100028:	d8400215 	stw	at,8(sp)
        stw   r2,  12(sp)
  10002c:	d8800315 	stw	r2,12(sp)
        stw   r3,  16(sp)
  100030:	d8c00415 	stw	r3,16(sp)
        stw   r4,  20(sp)
  100034:	d9000515 	stw	r4,20(sp)
        stw   r5,  24(sp)
  100038:	d9400615 	stw	r5,24(sp)
        stw   r6,  28(sp)
  10003c:	d9800715 	stw	r6,28(sp)
        stw   r7,  32(sp)
  100040:	d9c00815 	stw	r7,32(sp)
        rdctl r5, estatus   /* Read early to avoid usage stall */
  100044:	000b307a 	rdctl	r5,estatus
        stw   r8,  36(sp)
  100048:	da000915 	stw	r8,36(sp)
        stw   r9,  40(sp)
  10004c:	da400a15 	stw	r9,40(sp)
        stw   r10, 44(sp)
  100050:	da800b15 	stw	r10,44(sp)
        stw   r11, 48(sp)
  100054:	dac00c15 	stw	r11,48(sp)
        stw   r12, 52(sp)
  100058:	db000d15 	stw	r12,52(sp)
        stw   r13, 56(sp)
  10005c:	db400e15 	stw	r13,56(sp)
        stw   r14, 60(sp)
  100060:	db800f15 	stw	r14,60(sp)
        stw   r15, 64(sp)
  100064:	dbc01015 	stw	r15,64(sp)
        /*
         * ea-4 contains the address of the instruction being executed
         * when the exception occured. For interrupt exceptions, we will
         * will be re-issue the isntruction. Store it in 72(sp)
         */
        stw   r5,  68(sp)  /* estatus */
  100068:	d9401115 	stw	r5,68(sp)
        addi  r15, ea, -4  /* instruction that caused exception */
  10006c:	ebffff04 	addi	r15,ea,-4
        stw   r15,  72(sp)
  100070:	dbc01215 	stw	r15,72(sp)
#else
        /*
         * Test to see if the exception was a software exception or caused 
         * by an external interrupt, and vector accordingly.
         */
        rdctl r4, ipending
  100074:	0009313a 	rdctl	r4,ipending
        andi  r2, r5, 1
  100078:	2880004c 	andi	r2,r5,1
        beq   r2, zero, .Lnot_irq
  10007c:	10000326 	beq	r2,zero,10008c <alt_exception+0x6c>
        beq   r4, zero, .Lnot_irq
  100080:	20000226 	beq	r4,zero,10008c <alt_exception+0x6c>
        /*
         * Now that all necessary registers have been preserved, call 
         * alt_irq_handler() to process the interrupts.
         */

        call alt_irq_handler
  100084:	01002b80 	call	1002b8 <alt_irq_handler>

        .section .exceptions.irqreturn, "xa"

        br    .Lexception_exit
  100088:	00007606 	br	100264 <alt_exception_unknown+0x4>
         * upon completion, so we write ea (address of instruction *after*
         * the one where the exception occured) into 72(sp). The actual
         * instruction that caused the exception is written in r2, which these
         * handlers will utilize.
         */
        stw   ea,  72(sp)  /* Don't re-issue */
  10008c:	df401215 	stw	ea,72(sp)
        ldw   r2, -4(ea)   /* Instruction that caused exception */
  100090:	e8bfff17 	ldw	r2,-4(ea)
        /*
         * Split the instruction into its fields.  We need 4*A, 4*B, and 4*C as
         * offsets to the stack pointer for access to the stored register values.
         */
                             /* r2 = AAAAA,BBBBB,IIIIIIIIIIIIIIII,PPPPPP    */
        roli  r3, r2, 7      /* r3 = BBB,IIIIIIIIIIIIIIII,PPPPPP,AAAAA,BB   */
  100094:	100611fa 	roli	r3,r2,7
        roli  r4, r3, 3      /* r4 = IIIIIIIIIIIIIIII,PPPPPP,AAAAA,BBBBB    */
  100098:	180810fa 	roli	r4,r3,3
        roli  r6, r4, 2      /* r6 = IIIIIIIIIIIIII,PPPPPP,AAAAA,BBBBB,II   */
  10009c:	200c10ba 	roli	r6,r4,2
        srai  r4, r4, 16     /* r4 = (sign-extended) IMM16                  */
  1000a0:	2009d43a 	srai	r4,r4,16
        xori  r6, r6, 0x42   /* r6 = CCC,XXXXXX,NNNNN,PPPPPP,AAAAA,bBBBB,cC */
  1000a4:	3180109c 	xori	r6,r6,66
        roli  r7, r6, 5      /* r7 = XXXX,NNNNN,PPPPPP,AAAAA,bBBBB,cCCCC,XX */
  1000a8:	300e117a 	roli	r7,r6,5
        andi  r5, r2, 0x3f   /* r5 = 00000000000000000000000000,PPPPPP      */
  1000ac:	11400fcc 	andi	r5,r2,63
        xori  r3, r3, 0x40
  1000b0:	18c0101c 	xori	r3,r3,64
        andi  r3, r3, 0x7c   /* r3 = 0000000000000000000000000,aAAAA,00     */
  1000b4:	18c01f0c 	andi	r3,r3,124
        andi  r6, r6, 0x7c   /* r6 = 0000000000000000000000000,bBBBB,00     */
  1000b8:	31801f0c 	andi	r6,r6,124
        andi  r7, r7, 0x7c   /* r7 = 0000000000000000000000000,cCCCC,00     */
  1000bc:	39c01f0c 	andi	r7,r7,124
         * Save everything on the stack to make it easy for the emulation routines
         * to retrieve the source register operands.  The exception entry code has
         * already saved some of this so we don't need to do it all again.
         */

        addi  sp, sp, -60
  1000c0:	defff104 	addi	sp,sp,-60
        stw   zero, 64(sp)   /* Save zero on stack to avoid special case for r0. */
  1000c4:	d8001015 	stw	zero,64(sp)
                             /* Register at and r2-r15 have already been saved.  */

        stw   r16,  0(sp)
  1000c8:	dc000015 	stw	r16,0(sp)
        stw   r17,  4(sp)
  1000cc:	dc400115 	stw	r17,4(sp)
        stw   r18,  8(sp)
  1000d0:	dc800215 	stw	r18,8(sp)
        stw   r19, 12(sp)
  1000d4:	dcc00315 	stw	r19,12(sp)
        stw   r20, 16(sp)
  1000d8:	dd000415 	stw	r20,16(sp)
        stw   r21, 20(sp)
  1000dc:	dd400515 	stw	r21,20(sp)
        stw   r22, 24(sp)
  1000e0:	dd800615 	stw	r22,24(sp)
        stw   r23, 28(sp)
  1000e4:	ddc00715 	stw	r23,28(sp)
                            /* et @ 32 - Has already been changed.*/
                            /* bt @ 36 - Usually isn't an operand.   */
        stw   gp,  40(sp)
  1000e8:	de800a15 	stw	gp,40(sp)
        stw   sp,  44(sp)
  1000ec:	dec00b15 	stw	sp,44(sp)
        stw   fp,  48(sp)
  1000f0:	df000c15 	stw	fp,48(sp)

        /*
         *  Prepare for either multiplication or division loop.
         *  They both loop 32 times.
         */
        movi   r14, 32
  1000f4:	03800804 	movi	r14,32
         * Get the operands.
         *
         * It is necessary to check for muli because it uses an I-type instruction
         * format, while the other instructions are have an R-type format.
         */
        add    r3, r3, sp     /* r3 = address of A-operand. */
  1000f8:	1ec7883a 	add	r3,r3,sp
        ldw    r3, 0(r3)      /* r3 = A-operand. */
  1000fc:	18c00017 	ldw	r3,0(r3)
        movi   r15, 0x24      /* muli opcode (I-type instruction format) */
  100100:	03c00904 	movi	r15,36
        beq    r5, r15, .Lmul_immed /* muli doesn't use the B register as a source */
  100104:	2bc02726 	beq	r5,r15,1001a4 <alt_exception+0x184>

        add    r6, r6, sp     /* r6 = address of B-operand.               */
  100108:	36cd883a 	add	r6,r6,sp
        ldw    r6, 0(r6)      /* r6 = B-operand.                          */
  10010c:	31800017 	ldw	r6,0(r6)
                              /* r4 = SSSSSSSSSSSSSSSS,-----IMM16------   */
                              /* IMM16 not needed, align OPX portion      */
                              /* r4 = SSSSSSSSSSSSSSSS,CCCCC,-OPX--,00000 */
        srli   r4, r4, 5      /* r4 = 00000,SSSSSSSSSSSSSSSS,CCCCC,-OPX-- */
  100110:	2008d17a 	srli	r4,r4,5
        andi   r4, r4, 0x3f   /* r4 = 00000000000000000000000000,-OPX--   */
  100114:	21000fcc 	andi	r4,r4,63
         *
         *  This code assumes that OP is not muli (because muli was tested above).
         *  All other multiplies and divides are legal.  Anything else is illegal.
         */

        movi  r8, 0x3a                        /* OP for R-type mul* and div* */
  100118:	02000e84 	movi	r8,58
        bne   r5, r8, .Lnot_muldiv
  10011c:	2a004f1e 	bne	r5,r8,10025c <alt_exception+0x23c>

        /* r15 already is 0x24 */            /* OPX of divu */
        beq   r4, r15, .Ldivide
  100120:	23c00a26 	beq	r4,r15,10014c <alt_exception+0x12c>

        movi  r15,0x27                        /* OPX of mul */
  100124:	03c009c4 	movi	r15,39
        beq   r4, r15, .Lmultiply
  100128:	23c02126 	beq	r4,r15,1001b0 <alt_exception+0x190>

        movi  r15,0x07                        /* OPX of mulxuu */
  10012c:	03c001c4 	movi	r15,7
        beq   r4, r15, .Lmultiply
  100130:	23c01f26 	beq	r4,r15,1001b0 <alt_exception+0x190>

        movi  r15,0x17                        /* OPX of mulxsu */
  100134:	03c005c4 	movi	r15,23
        beq   r4, r15, .Lmultiply
  100138:	23c01d26 	beq	r4,r15,1001b0 <alt_exception+0x190>

        movi  r15,0x1f                        /* OPX of mulxss */
  10013c:	03c007c4 	movi	r15,31
        beq   r4, r15, .Lmultiply
  100140:	23c01b26 	beq	r4,r15,1001b0 <alt_exception+0x190>

        movi  r15,0x25                        /* OPX of div */
  100144:	03c00944 	movi	r15,37
        bne   r4, r15, .Lnot_muldiv
  100148:	23c0441e 	bne	r4,r15,10025c <alt_exception+0x23c>
.Ldivide:
        /*
         *  Prepare for division by assuming the result
         *  is unsigned, and storing its "sign" as 0.
         */
        movi   r17, 0
  10014c:	04400004 	movi	r17,0


        /* Which division opcode? */
        xori   r15, r4, 0x25         /* OPX of div */
  100150:	23c0095c 	xori	r15,r4,37
        bne    r15, zero, .Lunsigned_division
  100154:	7800051e 	bne	r15,zero,10016c <alt_exception+0x14c>

        /*
         *  OPX is div.  Determine and store the sign of the quotient.
         *  Then take the absolute value of both operands.
         */
        xor   r17, r3, r6      /* MSB contains sign of quotient */
  100158:	19a2f03a 	xor	r17,r3,r6
        bge   r3, zero, 0f
  10015c:	1800010e 	bge	r3,zero,100164 <alt_exception+0x144>
        sub   r3, zero, r3     /* -r3 */
  100160:	00c7c83a 	sub	r3,zero,r3
0:
        bge   r6, zero, 0f
  100164:	3000010e 	bge	r6,zero,10016c <alt_exception+0x14c>
        sub   r6, zero, r6     /* -r6 */
  100168:	018dc83a 	sub	r6,zero,r6
0:


.Lunsigned_division:
        /* Initialize the unsigned-division loop. */
        movi  r13, 0          /* remainder = 0 */
  10016c:	03400004 	movi	r13,0
        /*
        *       Division:
        *
        *       (remainder:dividend:quotient) <<= 1;
        */
        slli  r13, r13, 1
  100170:	681a907a 	slli	r13,r13,1
        cmplt r15, r3, zero        /* r15 = MSB of r3 */
  100174:	181e803a 	cmplt	r15,r3,zero
        or    r13, r13, r15
  100178:	6bdab03a 	or	r13,r13,r15
        slli  r3, r3, 1
  10017c:	1806907a 	slli	r3,r3,1
        *       {
        *           set LSB of quotient
        *           remainder -= divisor;
        *       }
        */
        bltu  r13, r6, .Ldiv_skip
  100180:	69800236 	bltu	r13,r6,10018c <alt_exception+0x16c>
        ori   r3, r3, 1
  100184:	18c00054 	ori	r3,r3,1
        sub   r13, r13, r6
  100188:	699bc83a 	sub	r13,r13,r6
.Ldiv_skip:

        /*
        *   }
        */
        subi  r14, r14, 1
  10018c:	73bfffc4 	addi	r14,r14,-1
        bne   r14, zero, .Ldivide_loop
  100190:	703ff71e 	bne	r14,zero,100170 <black_to_red_frame+0xfe100170>

        mov   r9, r3
  100194:	1813883a 	mov	r9,r3
    
        /*
        *  Conditionally negate signed quotient.  If quotient is unsigned,
        *  the sign already is initialized to 0.
        */
        bge   r17, zero, .Lstore_result
  100198:	8800230e 	bge	r17,zero,100228 <alt_exception+0x208>
        sub   r9, zero, r9     /* -r9 */
  10019c:	0253c83a 	sub	r9,zero,r9

        br    .Lstore_result
  1001a0:	00002106 	br	100228 <alt_exception+0x208>
        *
        */

.Lmul_immed:
        /* Opcode is muli.  Change it into mul for remainder of algorithm. */
        mov   r7, r6         /* Field B is dest register, not field C. */
  1001a4:	300f883a 	mov	r7,r6
        mov   r6, r4         /* Field IMM16 is src2, not field B. */
  1001a8:	200d883a 	mov	r6,r4
        movi  r4, 0x27       /* OPX of mul is 0x27 */
  1001ac:	010009c4 	movi	r4,39

.Lmultiply:
        /* Initialize the multiplication loop. */
        movi  r9, 0          /* mul_product    = 0 */
  1001b0:	02400004 	movi	r9,0
        movi  r10, 0         /* mulxuu_product = 0 */
  1001b4:	02800004 	movi	r10,0
        mov   r11, r6        /* save original multiplier for mulxsu and mulxss */
  1001b8:	3017883a 	mov	r11,r6
        mov   r12, r6        /* mulxuu_multiplier (will be shifted) */
  1001bc:	3019883a 	mov	r12,r6
        movi  r16, 1         /* used to create "rori B,A,1" from "ror B,A,r16" */
  1001c0:	04000044 	movi	r16,1

        /*
        *       mul_product <<= 1;
        *       lsb = multiplier & 1;
        */
        slli   r9, r9, 1
  1001c4:	4812907a 	slli	r9,r9,1
        andi   r15, r12, 1
  1001c8:	63c0004c 	andi	r15,r12,1
        *       if (lsb == 1)
        *       {
        *           mulxuu_product += multiplicand;
        *       }
        */
        beq   r15, zero, .Lmulx_skip
  1001cc:	78000326 	beq	r15,zero,1001dc <alt_exception+0x1bc>
        add   r10, r10, r3
  1001d0:	50d5883a 	add	r10,r10,r3
        cmpltu r15, r10, r3  /* Save the carry from the MSB of mulxuu_product. */
  1001d4:	50df803a 	cmpltu	r15,r10,r3
        ror   r15, r15, r16  /* r15 = 0x80000000 on carry, or else 0x00000000 */
  1001d8:	7c1e583a 	ror	r15,r15,r16
        *       if (MSB of mul_multiplier == 1)
        *       {
        *           mul_product += multiplicand;
        *       }
        */
        bge   r6, zero, .Lmul_skip
  1001dc:	3000010e 	bge	r6,zero,1001e4 <alt_exception+0x1c4>
        add   r9, r9, r3
  1001e0:	48d3883a 	add	r9,r9,r3
        /*
        *       mulxuu_product >>= 1;           logical shift
        *       mul_multiplier <<= 1;           done with MSB
        *       mulx_multiplier >>= 1;          done with LSB
        */
        srli   r10, r10, 1
  1001e4:	5014d07a 	srli	r10,r10,1
        or     r10, r10, r15           /* OR in the saved carry bit. */
  1001e8:	53d4b03a 	or	r10,r10,r15
        slli   r6, r6, 1
  1001ec:	300c907a 	slli	r6,r6,1
        srli   r12, r12, 1
  1001f0:	6018d07a 	srli	r12,r12,1


        /*
        *   }
        */
        subi   r14, r14, 1
  1001f4:	73bfffc4 	addi	r14,r14,-1
        bne    r14, zero, .Lmultiply_loop
  1001f8:	703ff21e 	bne	r14,zero,1001c4 <black_to_red_frame+0xfe1001c4>
        *  Select/compute the result based on OPX.
        */


        /* OPX == mul?  Then store. */
        xori  r15, r4, 0x27
  1001fc:	23c009dc 	xori	r15,r4,39
        beq   r15, zero, .Lstore_result
  100200:	78000926 	beq	r15,zero,100228 <alt_exception+0x208>

        /* It's one of the mulx.. opcodes.  Move over the result. */
        mov   r9, r10
  100204:	5013883a 	mov	r9,r10

        /* OPX == mulxuu?  Then store. */
        xori  r15, r4, 0x07
  100208:	23c001dc 	xori	r15,r4,7
        beq   r15, zero, .Lstore_result
  10020c:	78000626 	beq	r15,zero,100228 <alt_exception+0x208>

        /* Compute mulxsu
         *
         * mulxsu = mulxuu - ((rA < 0) ? rB : 0);
         */
        bge   r3, zero, .Lmulxsu_skip
  100210:	1800010e 	bge	r3,zero,100218 <alt_exception+0x1f8>
        sub   r9, r9, r11
  100214:	4ad3c83a 	sub	r9,r9,r11
.Lmulxsu_skip:

        /* OPX == mulxsu?  Then store. */
        xori  r15, r4, 0x17
  100218:	23c005dc 	xori	r15,r4,23
        beq   r15, zero, .Lstore_result
  10021c:	78000226 	beq	r15,zero,100228 <alt_exception+0x208>

        /* Compute mulxss
         *
         * mulxss = mulxsu - ((rB < 0) ? rA : 0);
         */
        bge   r11, zero, .Lmulxss_skip
  100220:	5800010e 	bge	r11,zero,100228 <alt_exception+0x208>
        sub   r9, r9, r3
  100224:	48d3c83a 	sub	r9,r9,r3
.Lmulxss_skip:
        /* At this point, assume that OPX is mulxss, so store */


.Lstore_result:
        add   r7, r7, sp
  100228:	3ecf883a 	add	r7,r7,sp
        stw   r9, 0(r7)
  10022c:	3a400015 	stw	r9,0(r7)

        ldw   r16,  0(sp)
  100230:	dc000017 	ldw	r16,0(sp)
        ldw   r17,  4(sp)
  100234:	dc400117 	ldw	r17,4(sp)
        ldw   r18,  8(sp)
  100238:	dc800217 	ldw	r18,8(sp)
        ldw   r19, 12(sp)
  10023c:	dcc00317 	ldw	r19,12(sp)
        ldw   r20, 16(sp)
  100240:	dd000417 	ldw	r20,16(sp)
        ldw   r21, 20(sp)
  100244:	dd400517 	ldw	r21,20(sp)
        ldw   r22, 24(sp)
  100248:	dd800617 	ldw	r22,24(sp)
        ldw   r23, 28(sp)
  10024c:	ddc00717 	ldw	r23,28(sp)

                            /* bt @ 32 - Breakpoint register usually isn't an operand. */
                            /* et @ 36 - Don't corrupt et. */
                            /* gp @ 40 - Don't corrupt gp. */
                            /* sp @ 44 - Don't corrupt sp. */
        ldw   fp,  48(sp)
  100250:	df000c17 	ldw	fp,48(sp)
                            /* ea @ 52 - Don't corrupt ea. */
                            /* ba @ 56 - Breakpoint register usually isn't an operand. */

        addi  sp, sp, 60
  100254:	dec00f04 	addi	sp,sp,60

        br    .Lexception_exit
  100258:	00000206 	br	100264 <alt_exception_unknown+0x4>


.Lnot_muldiv:

        addi  sp, sp, 60
  10025c:	dec00f04 	addi	sp,sp,60

00100260 <alt_exception_unknown>:
#ifdef NIOS2_HAS_DEBUG_STUB
       /*
        *  Either tell the user now (if there is a debugger attached) or go into
        *  the debug monitor which will loop until a debugger is attached.
        */
        break
  100260:	003da03a 	break	0
        /* 
         * Restore the saved registers, so that all general purpose registers 
         * have been restored to their state at the time the interrupt occured.
         */

        ldw   r5,  68(sp)
  100264:	d9401117 	ldw	r5,68(sp)
        ldw   ea,  72(sp)  /* This becomes the PC once eret is executed */
  100268:	df401217 	ldw	ea,72(sp)
        ldw   ra,   0(sp)
  10026c:	dfc00017 	ldw	ra,0(sp)

        wrctl estatus, r5
  100270:	2801707a 	wrctl	estatus,r5

        ldw   r1,   8(sp)
  100274:	d8400217 	ldw	at,8(sp)
        ldw   r2,  12(sp)
  100278:	d8800317 	ldw	r2,12(sp)
        ldw   r3,  16(sp)
  10027c:	d8c00417 	ldw	r3,16(sp)
        ldw   r4,  20(sp)
  100280:	d9000517 	ldw	r4,20(sp)
        ldw   r5,  24(sp)
  100284:	d9400617 	ldw	r5,24(sp)
        ldw   r6,  28(sp)
  100288:	d9800717 	ldw	r6,28(sp)
        ldw   r7,  32(sp)
  10028c:	d9c00817 	ldw	r7,32(sp)

#if defined(ALT_EXCEPTION_STACK) && defined(ALT_STACK_CHECK)
        ldw   et, %gprel(alt_exception_old_stack_limit)(gp)
#endif

        ldw   r8,  36(sp)
  100290:	da000917 	ldw	r8,36(sp)
        ldw   r9,  40(sp)
  100294:	da400a17 	ldw	r9,40(sp)
        ldw   r10, 44(sp)
  100298:	da800b17 	ldw	r10,44(sp)
        ldw   r11, 48(sp)
  10029c:	dac00c17 	ldw	r11,48(sp)
        ldw   r12, 52(sp)
  1002a0:	db000d17 	ldw	r12,52(sp)
        ldw   r13, 56(sp)
  1002a4:	db400e17 	ldw	r13,56(sp)
        ldw   r14, 60(sp)
  1002a8:	db800f17 	ldw	r14,60(sp)
        ldw   r15, 64(sp)
  1002ac:	dbc01017 	ldw	r15,64(sp)
        stw   et, %gprel(alt_stack_limit_value)(gp)
        stw   zero, %gprel(alt_exception_old_stack_limit)(gp)
#endif /* ALT_STACK_CHECK */
        ldw   sp,  76(sp)
#else /* ALT_EXCEPTION_STACK disabled */
        addi  sp, sp, 76
  1002b0:	dec01304 	addi	sp,sp,76

        /*
         * Return to the interrupted instruction.
         */

        eret
  1002b4:	ef80083a 	eret

001002b8 <alt_irq_handler>:
 * instruction is present if the macro ALT_CI_INTERRUPT_VECTOR defined.
 */

void alt_irq_handler (void) __attribute__ ((section (".exceptions")));
void alt_irq_handler (void)
{
  1002b8:	defffe04 	addi	sp,sp,-8
  1002bc:	dfc00115 	stw	ra,4(sp)
  1002c0:	dc000015 	stw	r16,0(sp)
#ifndef NIOS2_EIC_PRESENT
static ALT_INLINE alt_u32 ALT_ALWAYS_INLINE alt_irq_pending (void)
{
  alt_u32 active;

  NIOS2_READ_IPENDING (active);
  1002c4:	000b313a 	rdctl	r5,ipending
  1002c8:	040004b4 	movhi	r16,18
  1002cc:	84292004 	addi	r16,r16,-23424
     * called to clear the interrupt condition.
     */

    do
    {
      if (active & mask)
  1002d0:	2880004c 	andi	r2,r5,1

  active = alt_irq_pending ();

  do
  {
    i = 0;
  1002d4:	0007883a 	mov	r3,zero
     * called to clear the interrupt condition.
     */

    do
    {
      if (active & mask)
  1002d8:	1000051e 	bne	r2,zero,1002f0 <alt_irq_handler+0x38>
  active = alt_irq_pending ();

  do
  {
    i = 0;
    mask = 1;
  1002dc:	00800044 	movi	r2,1
#else
        alt_irq[i].handler(alt_irq[i].context, i); 
#endif
        break;
      }
      mask <<= 1;
  1002e0:	1085883a 	add	r2,r2,r2
     * called to clear the interrupt condition.
     */

    do
    {
      if (active & mask)
  1002e4:	2888703a 	and	r4,r5,r2
        alt_irq[i].handler(alt_irq[i].context, i); 
#endif
        break;
      }
      mask <<= 1;
      i++;
  1002e8:	18c00044 	addi	r3,r3,1
     * called to clear the interrupt condition.
     */

    do
    {
      if (active & mask)
  1002ec:	203ffc26 	beq	r4,zero,1002e0 <black_to_red_frame+0xfe1002e0>
      { 
#ifdef ALT_ENHANCED_INTERRUPT_API_PRESENT
        alt_irq[i].handler(alt_irq[i].context); 
  1002f0:	180690fa 	slli	r3,r3,3
  1002f4:	80c7883a 	add	r3,r16,r3
  1002f8:	18800017 	ldw	r2,0(r3)
  1002fc:	19000117 	ldw	r4,4(r3)
  100300:	103ee83a 	callr	r2
  100304:	000b313a 	rdctl	r5,ipending

    } while (1);

    active = alt_irq_pending ();
    
  } while (active);
  100308:	283ff11e 	bne	r5,zero,1002d0 <black_to_red_frame+0xfe1002d0>
  /*
   * Notify the operating system that interrupt processing is complete.
   */ 

  ALT_OS_INT_EXIT();
}
  10030c:	dfc00117 	ldw	ra,4(sp)
  100310:	dc000017 	ldw	r16,0(sp)
  100314:	dec00204 	addi	sp,sp,8
  100318:	f800283a 	ret

Disassembly of section .text:

0010031c <_start>:

    /*
     * Now that the caches are initialized, set up the stack pointer and global pointer.
     * The values provided by the linker are assumed to be correctly aligned.
     */
    movhi sp, %hi(__alt_stack_pointer)
  10031c:	06c000b4 	movhi	sp,2
    ori sp, sp, %lo(__alt_stack_pointer)
  100320:	def86a14 	ori	sp,sp,57768
    movhi gp, %hi(_gp)
  100324:	068004b4 	movhi	gp,18
    ori gp, gp, %lo(_gp)
  100328:	d681ea14 	ori	gp,gp,1960
 */
#ifndef ALT_SIM_OPTIMIZE
    /* Log that the BSS is about to be cleared. */
    ALT_LOG_PUTS(alt_log_msg_bss)

    movhi r2, %hi(__bss_start)
  10032c:	00800474 	movhi	r2,17
    ori r2, r2, %lo(__bss_start)
  100330:	10a90214 	ori	r2,r2,41992

    movhi r3, %hi(__bss_end)
  100334:	00c00474 	movhi	r3,17
    ori r3, r3, %lo(__bss_end)
  100338:	18e96014 	ori	r3,r3,42368

    beq r2, r3, 1f
  10033c:	10c00326 	beq	r2,r3,10034c <_start+0x30>

0:
    stw zero, (r2)
  100340:	10000015 	stw	zero,0(r2)
    addi r2, r2, 4
  100344:	10800104 	addi	r2,r2,4
    bltu r2, r3, 0b
  100348:	10fffd36 	bltu	r2,r3,100340 <black_to_red_frame+0xfe100340>
     * section aren't defined until alt_load() has been called).
     */
    mov   et, zero
#endif

    call alt_load
  10034c:	0113f5c0 	call	113f5c <alt_load>

    /* Log that alt_main is about to be called. */
    ALT_LOG_PUTS(alt_log_msg_alt_main)

    /* Call the C entry point. It should never return. */
    call alt_main
  100350:	01141080 	call	114108 <alt_main>

00100354 <alt_after_alt_main>:

    /* Wait in infinite loop in case alt_main does return. */
alt_after_alt_main:
    br alt_after_alt_main
  100354:	003fff06 	br	100354 <black_to_red_frame+0xfe100354>

00100358 <PortDecrypt>:

Returns:		1 = match found
				0 = no matches
-------------------------------------------------------------------------------
 */
int PortDecrypt(TARGET* listHead, tran_h * tran) {
  100358:	defffc04 	addi	sp,sp,-16
  10035c:	df000315 	stw	fp,12(sp)
  100360:	df000304 	addi	fp,sp,12
  100364:	e13ffe15 	stw	r4,-8(fp)
  100368:	e17fff15 	stw	r5,-4(fp)
	TARGET* pWalker=listHead;
  10036c:	e0bffe17 	ldw	r2,-8(fp)
  100370:	e0bffd15 	stw	r2,-12(fp)

	while(pWalker != NULL) {
  100374:	00001306 	br	1003c4 <PortDecrypt+0x6c>
		if ((tran->dst_port[0] == pWalker->dstPort[0]) && (tran->dst_port[0] == pWalker->dstPort[1])) {
  100378:	e0bfff17 	ldw	r2,-4(fp)
  10037c:	10c00083 	ldbu	r3,2(r2)
  100380:	e0bffd17 	ldw	r2,-12(fp)
  100384:	10800383 	ldbu	r2,14(r2)
  100388:	18c03fcc 	andi	r3,r3,255
  10038c:	10803fcc 	andi	r2,r2,255
  100390:	1880091e 	bne	r3,r2,1003b8 <PortDecrypt+0x60>
  100394:	e0bfff17 	ldw	r2,-4(fp)
  100398:	10c00083 	ldbu	r3,2(r2)
  10039c:	e0bffd17 	ldw	r2,-12(fp)
  1003a0:	108003c3 	ldbu	r2,15(r2)
  1003a4:	18c03fcc 	andi	r3,r3,255
  1003a8:	10803fcc 	andi	r2,r2,255
  1003ac:	1880021e 	bne	r3,r2,1003b8 <PortDecrypt+0x60>
			return 1;
  1003b0:	00800044 	movi	r2,1
  1003b4:	00000606 	br	1003d0 <PortDecrypt+0x78>
		}
		pWalker=pWalker->nextTargetNumber;
  1003b8:	e0bffd17 	ldw	r2,-12(fp)
  1003bc:	10800417 	ldw	r2,16(r2)
  1003c0:	e0bffd15 	stw	r2,-12(fp)
-------------------------------------------------------------------------------
 */
int PortDecrypt(TARGET* listHead, tran_h * tran) {
	TARGET* pWalker=listHead;

	while(pWalker != NULL) {
  1003c4:	e0bffd17 	ldw	r2,-12(fp)
  1003c8:	103feb1e 	bne	r2,zero,100378 <black_to_red_frame+0xfe100378>
			return 1;
		}
		pWalker=pWalker->nextTargetNumber;
	}

	return 0;
  1003cc:	0005883a 	mov	r2,zero
}
  1003d0:	e037883a 	mov	sp,fp
  1003d4:	df000017 	ldw	fp,0(sp)
  1003d8:	dec00104 	addi	sp,sp,4
  1003dc:	f800283a 	ret

001003e0 <IpDecrypt>:

Returns:		1 = match found
				0 = no matches
-------------------------------------------------------------------------------
 */
int IpDecrypt(TARGET* listHead,ip_h* ip) {
  1003e0:	defffc04 	addi	sp,sp,-16
  1003e4:	df000315 	stw	fp,12(sp)
  1003e8:	df000304 	addi	fp,sp,12
  1003ec:	e13ffe15 	stw	r4,-8(fp)
  1003f0:	e17fff15 	stw	r5,-4(fp)
	TARGET* pWalker=listHead;
  1003f4:	e0bffe17 	ldw	r2,-8(fp)
  1003f8:	e0bffd15 	stw	r2,-12(fp)
	int i;
	D printf("\Src: %d.%d.%d.%d, ",ip->ip_src[0],ip->ip_src[1],ip->ip_src[2],ip->ip_src[3]);

	while(pWalker != NULL) {
  1003fc:	00002106 	br	100484 <IpDecrypt+0xa4>
		if ((ip->ip_src[0] == pWalker->dstHost[0]) && (ip->ip_src[1] == pWalker->dstHost[1]) && (ip->ip_src[2] == pWalker->dstHost[2]) && (ip->ip_src[3] == pWalker->dstHost[3])) {
  100400:	e0bfff17 	ldw	r2,-4(fp)
  100404:	10c00303 	ldbu	r3,12(r2)
  100408:	e0bffd17 	ldw	r2,-12(fp)
  10040c:	10800203 	ldbu	r2,8(r2)
  100410:	18c03fcc 	andi	r3,r3,255
  100414:	10803fcc 	andi	r2,r2,255
  100418:	1880171e 	bne	r3,r2,100478 <IpDecrypt+0x98>
  10041c:	e0bfff17 	ldw	r2,-4(fp)
  100420:	10c00343 	ldbu	r3,13(r2)
  100424:	e0bffd17 	ldw	r2,-12(fp)
  100428:	10800243 	ldbu	r2,9(r2)
  10042c:	18c03fcc 	andi	r3,r3,255
  100430:	10803fcc 	andi	r2,r2,255
  100434:	1880101e 	bne	r3,r2,100478 <IpDecrypt+0x98>
  100438:	e0bfff17 	ldw	r2,-4(fp)
  10043c:	10c00383 	ldbu	r3,14(r2)
  100440:	e0bffd17 	ldw	r2,-12(fp)
  100444:	10800283 	ldbu	r2,10(r2)
  100448:	18c03fcc 	andi	r3,r3,255
  10044c:	10803fcc 	andi	r2,r2,255
  100450:	1880091e 	bne	r3,r2,100478 <IpDecrypt+0x98>
  100454:	e0bfff17 	ldw	r2,-4(fp)
  100458:	10c003c3 	ldbu	r3,15(r2)
  10045c:	e0bffd17 	ldw	r2,-12(fp)
  100460:	108002c3 	ldbu	r2,11(r2)
  100464:	18c03fcc 	andi	r3,r3,255
  100468:	10803fcc 	andi	r2,r2,255
  10046c:	1880021e 	bne	r3,r2,100478 <IpDecrypt+0x98>
			D printf("found target!\n");
			return 1;
  100470:	00800044 	movi	r2,1
  100474:	00000606 	br	100490 <IpDecrypt+0xb0>
		}
		pWalker=pWalker->nextTargetNumber;
  100478:	e0bffd17 	ldw	r2,-12(fp)
  10047c:	10800417 	ldw	r2,16(r2)
  100480:	e0bffd15 	stw	r2,-12(fp)
int IpDecrypt(TARGET* listHead,ip_h* ip) {
	TARGET* pWalker=listHead;
	int i;
	D printf("\Src: %d.%d.%d.%d, ",ip->ip_src[0],ip->ip_src[1],ip->ip_src[2],ip->ip_src[3]);

	while(pWalker != NULL) {
  100484:	e0bffd17 	ldw	r2,-12(fp)
  100488:	103fdd1e 	bne	r2,zero,100400 <black_to_red_frame+0xfe100400>
			return 1;
		}
		pWalker=pWalker->nextTargetNumber;
	}
	D printf("no valid target found, forwarding.\n");
	return 0;
  10048c:	0005883a 	mov	r2,zero

}
  100490:	e037883a 	mov	sp,fp
  100494:	df000017 	ldw	fp,0(sp)
  100498:	dec00104 	addi	sp,sp,4
  10049c:	f800283a 	ret

001004a0 <NatDecrypt>:

Returns:		1 = match found
				0 = no matches
-------------------------------------------------------------------------------
 */
int NatDecrypt(TARGET* listHead, ip_h* ip, tran_h* tran ) {
  1004a0:	defffb04 	addi	sp,sp,-20
  1004a4:	df000415 	stw	fp,16(sp)
  1004a8:	df000404 	addi	fp,sp,16
  1004ac:	e13ffd15 	stw	r4,-12(fp)
  1004b0:	e17ffe15 	stw	r5,-8(fp)
  1004b4:	e1bfff15 	stw	r6,-4(fp)
	TARGET* pWalker=listHead;
  1004b8:	e0bffd17 	ldw	r2,-12(fp)
  1004bc:	e0bffc15 	stw	r2,-16(fp)

	while(pWalker != NULL) {
  1004c0:	00003d06 	br	1005b8 <NatDecrypt+0x118>
		if ((ip->ip_dst[0] == pWalker->dstHost[0]) && (ip->ip_dst[1] == pWalker->dstHost[1]) && (ip->ip_dst[2] == pWalker->dstHost[2]) && (ip->ip_dst[3] == pWalker->dstHost[3])) {
  1004c4:	e0bffe17 	ldw	r2,-8(fp)
  1004c8:	10c00403 	ldbu	r3,16(r2)
  1004cc:	e0bffc17 	ldw	r2,-16(fp)
  1004d0:	10800203 	ldbu	r2,8(r2)
  1004d4:	18c03fcc 	andi	r3,r3,255
  1004d8:	10803fcc 	andi	r2,r2,255
  1004dc:	1880331e 	bne	r3,r2,1005ac <NatDecrypt+0x10c>
  1004e0:	e0bffe17 	ldw	r2,-8(fp)
  1004e4:	10c00443 	ldbu	r3,17(r2)
  1004e8:	e0bffc17 	ldw	r2,-16(fp)
  1004ec:	10800243 	ldbu	r2,9(r2)
  1004f0:	18c03fcc 	andi	r3,r3,255
  1004f4:	10803fcc 	andi	r2,r2,255
  1004f8:	18802c1e 	bne	r3,r2,1005ac <NatDecrypt+0x10c>
  1004fc:	e0bffe17 	ldw	r2,-8(fp)
  100500:	10c00483 	ldbu	r3,18(r2)
  100504:	e0bffc17 	ldw	r2,-16(fp)
  100508:	10800283 	ldbu	r2,10(r2)
  10050c:	18c03fcc 	andi	r3,r3,255
  100510:	10803fcc 	andi	r2,r2,255
  100514:	1880251e 	bne	r3,r2,1005ac <NatDecrypt+0x10c>
  100518:	e0bffe17 	ldw	r2,-8(fp)
  10051c:	10c004c3 	ldbu	r3,19(r2)
  100520:	e0bffc17 	ldw	r2,-16(fp)
  100524:	108002c3 	ldbu	r2,11(r2)
  100528:	18c03fcc 	andi	r3,r3,255
  10052c:	10803fcc 	andi	r2,r2,255
  100530:	18801e1e 	bne	r3,r2,1005ac <NatDecrypt+0x10c>
			if ((tran->dst_port[0] == pWalker->dstPort[0]) && (tran->dst_port[0] == pWalker->dstPort[1])) {
  100534:	e0bfff17 	ldw	r2,-4(fp)
  100538:	10c00083 	ldbu	r3,2(r2)
  10053c:	e0bffc17 	ldw	r2,-16(fp)
  100540:	10800383 	ldbu	r2,14(r2)
  100544:	18c03fcc 	andi	r3,r3,255
  100548:	10803fcc 	andi	r2,r2,255
  10054c:	1880171e 	bne	r3,r2,1005ac <NatDecrypt+0x10c>
  100550:	e0bfff17 	ldw	r2,-4(fp)
  100554:	10c00083 	ldbu	r3,2(r2)
  100558:	e0bffc17 	ldw	r2,-16(fp)
  10055c:	108003c3 	ldbu	r2,15(r2)
  100560:	18c03fcc 	andi	r3,r3,255
  100564:	10803fcc 	andi	r2,r2,255
  100568:	1880101e 	bne	r3,r2,1005ac <NatDecrypt+0x10c>
				if ((tran->src_port[0] == pWalker->srcPort[0]) && (tran->src_port[0] == pWalker->srcPort[1])) {
  10056c:	e0bfff17 	ldw	r2,-4(fp)
  100570:	10c00003 	ldbu	r3,0(r2)
  100574:	e0bffc17 	ldw	r2,-16(fp)
  100578:	10800303 	ldbu	r2,12(r2)
  10057c:	18c03fcc 	andi	r3,r3,255
  100580:	10803fcc 	andi	r2,r2,255
  100584:	1880091e 	bne	r3,r2,1005ac <NatDecrypt+0x10c>
  100588:	e0bfff17 	ldw	r2,-4(fp)
  10058c:	10c00003 	ldbu	r3,0(r2)
  100590:	e0bffc17 	ldw	r2,-16(fp)
  100594:	10800343 	ldbu	r2,13(r2)
  100598:	18c03fcc 	andi	r3,r3,255
  10059c:	10803fcc 	andi	r2,r2,255
  1005a0:	1880021e 	bne	r3,r2,1005ac <NatDecrypt+0x10c>
					return 1;
  1005a4:	00800044 	movi	r2,1
  1005a8:	00000606 	br	1005c4 <NatDecrypt+0x124>
				}
			}
		}
		pWalker=pWalker->nextTargetNumber;
  1005ac:	e0bffc17 	ldw	r2,-16(fp)
  1005b0:	10800417 	ldw	r2,16(r2)
  1005b4:	e0bffc15 	stw	r2,-16(fp)
-------------------------------------------------------------------------------
 */
int NatDecrypt(TARGET* listHead, ip_h* ip, tran_h* tran ) {
	TARGET* pWalker=listHead;

	while(pWalker != NULL) {
  1005b8:	e0bffc17 	ldw	r2,-16(fp)
  1005bc:	103fc11e 	bne	r2,zero,1004c4 <black_to_red_frame+0xfe1004c4>
				}
			}
		}
		pWalker=pWalker->nextTargetNumber;
	}
	return 0;
  1005c0:	0005883a 	mov	r2,zero
}
  1005c4:	e037883a 	mov	sp,fp
  1005c8:	df000017 	ldw	fp,0(sp)
  1005cc:	dec00104 	addi	sp,sp,4
  1005d0:	f800283a 	ret

001005d4 <PortEncrypt>:

Returns:		1 = match found
				0 = no matches
-------------------------------------------------------------------------------
 */
int PortEncrypt(TARGET* listHead, tran_h * tran) {
  1005d4:	defffc04 	addi	sp,sp,-16
  1005d8:	df000315 	stw	fp,12(sp)
  1005dc:	df000304 	addi	fp,sp,12
  1005e0:	e13ffe15 	stw	r4,-8(fp)
  1005e4:	e17fff15 	stw	r5,-4(fp)
	TARGET* pWalker=listHead;
  1005e8:	e0bffe17 	ldw	r2,-8(fp)
  1005ec:	e0bffd15 	stw	r2,-12(fp)

	while(pWalker != NULL) {
  1005f0:	00001306 	br	100640 <PortEncrypt+0x6c>
		if ((tran->dst_port[0] == pWalker->dstPort[0]) && (tran->dst_port[0] == pWalker->dstPort[1])) {
  1005f4:	e0bfff17 	ldw	r2,-4(fp)
  1005f8:	10c00083 	ldbu	r3,2(r2)
  1005fc:	e0bffd17 	ldw	r2,-12(fp)
  100600:	10800383 	ldbu	r2,14(r2)
  100604:	18c03fcc 	andi	r3,r3,255
  100608:	10803fcc 	andi	r2,r2,255
  10060c:	1880091e 	bne	r3,r2,100634 <PortEncrypt+0x60>
  100610:	e0bfff17 	ldw	r2,-4(fp)
  100614:	10c00083 	ldbu	r3,2(r2)
  100618:	e0bffd17 	ldw	r2,-12(fp)
  10061c:	108003c3 	ldbu	r2,15(r2)
  100620:	18c03fcc 	andi	r3,r3,255
  100624:	10803fcc 	andi	r2,r2,255
  100628:	1880021e 	bne	r3,r2,100634 <PortEncrypt+0x60>
			return 1;
  10062c:	00800044 	movi	r2,1
  100630:	00000606 	br	10064c <PortEncrypt+0x78>
		}
		pWalker=pWalker->nextTargetNumber;
  100634:	e0bffd17 	ldw	r2,-12(fp)
  100638:	10800417 	ldw	r2,16(r2)
  10063c:	e0bffd15 	stw	r2,-12(fp)
-------------------------------------------------------------------------------
 */
int PortEncrypt(TARGET* listHead, tran_h * tran) {
	TARGET* pWalker=listHead;

	while(pWalker != NULL) {
  100640:	e0bffd17 	ldw	r2,-12(fp)
  100644:	103feb1e 	bne	r2,zero,1005f4 <black_to_red_frame+0xfe1005f4>
			return 1;
		}
		pWalker=pWalker->nextTargetNumber;
	}

	return 0;
  100648:	0005883a 	mov	r2,zero
}
  10064c:	e037883a 	mov	sp,fp
  100650:	df000017 	ldw	fp,0(sp)
  100654:	dec00104 	addi	sp,sp,4
  100658:	f800283a 	ret

0010065c <IpEncrypt>:

Returns:		1 = match found
				0 = no matches
-------------------------------------------------------------------------------
 */
int IpEncrypt(TARGET* listHead,ip_h* ip) {
  10065c:	defffc04 	addi	sp,sp,-16
  100660:	df000315 	stw	fp,12(sp)
  100664:	df000304 	addi	fp,sp,12
  100668:	e13ffe15 	stw	r4,-8(fp)
  10066c:	e17fff15 	stw	r5,-4(fp)
	TARGET* pWalker=listHead;
  100670:	e0bffe17 	ldw	r2,-8(fp)
  100674:	e0bffd15 	stw	r2,-12(fp)
	int i;
	D printf("\tDest: %d.%d.%d.%d, ",ip->ip_dst[0],ip->ip_dst[1],ip->ip_dst[2],ip->ip_dst[3]);

	while(pWalker != NULL) {
  100678:	00002106 	br	100700 <IpEncrypt+0xa4>
		if ((ip->ip_dst[0] == pWalker->dstHost[0]) && (ip->ip_dst[1] == pWalker->dstHost[1]) && (ip->ip_dst[2] == pWalker->dstHost[2]) && (ip->ip_dst[3] == pWalker->dstHost[3])) {
  10067c:	e0bfff17 	ldw	r2,-4(fp)
  100680:	10c00403 	ldbu	r3,16(r2)
  100684:	e0bffd17 	ldw	r2,-12(fp)
  100688:	10800203 	ldbu	r2,8(r2)
  10068c:	18c03fcc 	andi	r3,r3,255
  100690:	10803fcc 	andi	r2,r2,255
  100694:	1880171e 	bne	r3,r2,1006f4 <IpEncrypt+0x98>
  100698:	e0bfff17 	ldw	r2,-4(fp)
  10069c:	10c00443 	ldbu	r3,17(r2)
  1006a0:	e0bffd17 	ldw	r2,-12(fp)
  1006a4:	10800243 	ldbu	r2,9(r2)
  1006a8:	18c03fcc 	andi	r3,r3,255
  1006ac:	10803fcc 	andi	r2,r2,255
  1006b0:	1880101e 	bne	r3,r2,1006f4 <IpEncrypt+0x98>
  1006b4:	e0bfff17 	ldw	r2,-4(fp)
  1006b8:	10c00483 	ldbu	r3,18(r2)
  1006bc:	e0bffd17 	ldw	r2,-12(fp)
  1006c0:	10800283 	ldbu	r2,10(r2)
  1006c4:	18c03fcc 	andi	r3,r3,255
  1006c8:	10803fcc 	andi	r2,r2,255
  1006cc:	1880091e 	bne	r3,r2,1006f4 <IpEncrypt+0x98>
  1006d0:	e0bfff17 	ldw	r2,-4(fp)
  1006d4:	10c004c3 	ldbu	r3,19(r2)
  1006d8:	e0bffd17 	ldw	r2,-12(fp)
  1006dc:	108002c3 	ldbu	r2,11(r2)
  1006e0:	18c03fcc 	andi	r3,r3,255
  1006e4:	10803fcc 	andi	r2,r2,255
  1006e8:	1880021e 	bne	r3,r2,1006f4 <IpEncrypt+0x98>
			D printf("found target!\n");
			return 1;
  1006ec:	00800044 	movi	r2,1
  1006f0:	00000606 	br	10070c <IpEncrypt+0xb0>
		}
		pWalker=pWalker->nextTargetNumber;
  1006f4:	e0bffd17 	ldw	r2,-12(fp)
  1006f8:	10800417 	ldw	r2,16(r2)
  1006fc:	e0bffd15 	stw	r2,-12(fp)
int IpEncrypt(TARGET* listHead,ip_h* ip) {
	TARGET* pWalker=listHead;
	int i;
	D printf("\tDest: %d.%d.%d.%d, ",ip->ip_dst[0],ip->ip_dst[1],ip->ip_dst[2],ip->ip_dst[3]);

	while(pWalker != NULL) {
  100700:	e0bffd17 	ldw	r2,-12(fp)
  100704:	103fdd1e 	bne	r2,zero,10067c <black_to_red_frame+0xfe10067c>
			return 1;
		}
		pWalker=pWalker->nextTargetNumber;
	}
	D printf("no valid target found, forwarding.\n");
	return 0;
  100708:	0005883a 	mov	r2,zero

}
  10070c:	e037883a 	mov	sp,fp
  100710:	df000017 	ldw	fp,0(sp)
  100714:	dec00104 	addi	sp,sp,4
  100718:	f800283a 	ret

0010071c <NatEncrypt>:

Returns:		1 = match found
				0 = no matches
-------------------------------------------------------------------------------
 */
int NatEncrypt(TARGET* listHead,ip_h* ip,tran_h* tran) {
  10071c:	defffb04 	addi	sp,sp,-20
  100720:	df000415 	stw	fp,16(sp)
  100724:	df000404 	addi	fp,sp,16
  100728:	e13ffd15 	stw	r4,-12(fp)
  10072c:	e17ffe15 	stw	r5,-8(fp)
  100730:	e1bfff15 	stw	r6,-4(fp)
	TARGET* pWalker=listHead;
  100734:	e0bffd17 	ldw	r2,-12(fp)
  100738:	e0bffc15 	stw	r2,-16(fp)

	while(pWalker != NULL) {
  10073c:	00003d06 	br	100834 <NatEncrypt+0x118>
		if ((ip->ip_dst[0] == pWalker->dstHost[0]) && (ip->ip_dst[1] == pWalker->dstHost[1]) && (ip->ip_dst[2] == pWalker->dstHost[2]) && (ip->ip_dst[3] == pWalker->dstHost[3])) {
  100740:	e0bffe17 	ldw	r2,-8(fp)
  100744:	10c00403 	ldbu	r3,16(r2)
  100748:	e0bffc17 	ldw	r2,-16(fp)
  10074c:	10800203 	ldbu	r2,8(r2)
  100750:	18c03fcc 	andi	r3,r3,255
  100754:	10803fcc 	andi	r2,r2,255
  100758:	1880331e 	bne	r3,r2,100828 <NatEncrypt+0x10c>
  10075c:	e0bffe17 	ldw	r2,-8(fp)
  100760:	10c00443 	ldbu	r3,17(r2)
  100764:	e0bffc17 	ldw	r2,-16(fp)
  100768:	10800243 	ldbu	r2,9(r2)
  10076c:	18c03fcc 	andi	r3,r3,255
  100770:	10803fcc 	andi	r2,r2,255
  100774:	18802c1e 	bne	r3,r2,100828 <NatEncrypt+0x10c>
  100778:	e0bffe17 	ldw	r2,-8(fp)
  10077c:	10c00483 	ldbu	r3,18(r2)
  100780:	e0bffc17 	ldw	r2,-16(fp)
  100784:	10800283 	ldbu	r2,10(r2)
  100788:	18c03fcc 	andi	r3,r3,255
  10078c:	10803fcc 	andi	r2,r2,255
  100790:	1880251e 	bne	r3,r2,100828 <NatEncrypt+0x10c>
  100794:	e0bffe17 	ldw	r2,-8(fp)
  100798:	10c004c3 	ldbu	r3,19(r2)
  10079c:	e0bffc17 	ldw	r2,-16(fp)
  1007a0:	108002c3 	ldbu	r2,11(r2)
  1007a4:	18c03fcc 	andi	r3,r3,255
  1007a8:	10803fcc 	andi	r2,r2,255
  1007ac:	18801e1e 	bne	r3,r2,100828 <NatEncrypt+0x10c>
			if ((tran->dst_port[0] == pWalker->dstPort[0]) && (tran->dst_port[0] == pWalker->dstPort[1])) {
  1007b0:	e0bfff17 	ldw	r2,-4(fp)
  1007b4:	10c00083 	ldbu	r3,2(r2)
  1007b8:	e0bffc17 	ldw	r2,-16(fp)
  1007bc:	10800383 	ldbu	r2,14(r2)
  1007c0:	18c03fcc 	andi	r3,r3,255
  1007c4:	10803fcc 	andi	r2,r2,255
  1007c8:	1880171e 	bne	r3,r2,100828 <NatEncrypt+0x10c>
  1007cc:	e0bfff17 	ldw	r2,-4(fp)
  1007d0:	10c00083 	ldbu	r3,2(r2)
  1007d4:	e0bffc17 	ldw	r2,-16(fp)
  1007d8:	108003c3 	ldbu	r2,15(r2)
  1007dc:	18c03fcc 	andi	r3,r3,255
  1007e0:	10803fcc 	andi	r2,r2,255
  1007e4:	1880101e 	bne	r3,r2,100828 <NatEncrypt+0x10c>
				if ((tran->src_port[0] == pWalker->srcPort[0]) && (tran->src_port[0] == pWalker->srcPort[1])) {
  1007e8:	e0bfff17 	ldw	r2,-4(fp)
  1007ec:	10c00003 	ldbu	r3,0(r2)
  1007f0:	e0bffc17 	ldw	r2,-16(fp)
  1007f4:	10800303 	ldbu	r2,12(r2)
  1007f8:	18c03fcc 	andi	r3,r3,255
  1007fc:	10803fcc 	andi	r2,r2,255
  100800:	1880091e 	bne	r3,r2,100828 <NatEncrypt+0x10c>
  100804:	e0bfff17 	ldw	r2,-4(fp)
  100808:	10c00003 	ldbu	r3,0(r2)
  10080c:	e0bffc17 	ldw	r2,-16(fp)
  100810:	10800343 	ldbu	r2,13(r2)
  100814:	18c03fcc 	andi	r3,r3,255
  100818:	10803fcc 	andi	r2,r2,255
  10081c:	1880021e 	bne	r3,r2,100828 <NatEncrypt+0x10c>
					return 1;
  100820:	00800044 	movi	r2,1
  100824:	00000606 	br	100840 <NatEncrypt+0x124>
				}
			}
		}
		pWalker=pWalker->nextTargetNumber;
  100828:	e0bffc17 	ldw	r2,-16(fp)
  10082c:	10800417 	ldw	r2,16(r2)
  100830:	e0bffc15 	stw	r2,-16(fp)
-------------------------------------------------------------------------------
 */
int NatEncrypt(TARGET* listHead,ip_h* ip,tran_h* tran) {
	TARGET* pWalker=listHead;

	while(pWalker != NULL) {
  100834:	e0bffc17 	ldw	r2,-16(fp)
  100838:	103fc11e 	bne	r2,zero,100740 <black_to_red_frame+0xfe100740>
				}
			}
		}
		pWalker=pWalker->nextTargetNumber;
	}
	return 0;
  10083c:	0005883a 	mov	r2,zero
}
  100840:	e037883a 	mov	sp,fp
  100844:	df000017 	ldw	fp,0(sp)
  100848:	dec00104 	addi	sp,sp,4
  10084c:	f800283a 	ret

00100850 <PacketProcessor_Black_Rx>:
#define B if(1)
#else
#define B if(0)
#endif

unsigned char PacketProcessor_Black_Rx(void * packet) {
  100850:	defff104 	addi	sp,sp,-60
  100854:	dfc00e15 	stw	ra,56(sp)
  100858:	df000d15 	stw	fp,52(sp)
  10085c:	df000d04 	addi	fp,sp,52
  100860:	e13fff15 	stw	r4,-4(fp)
	-------------------------------------------------------------------------------
	Variable Declarations
	-------------------------------------------------------------------------------
	*/

	int offset = 0;
  100864:	e03ff615 	stw	zero,-40(fp)
	int decryptFound = 0;
  100868:	e03ff315 	stw	zero,-52(fp)
	int ipHeaderSize = 0;
  10086c:	e03ff415 	stw	zero,-48(fp)
	int transportHeaderSize = 0;
  100870:	e03ff515 	stw	zero,-44(fp)
	int opMode = 0;
  100874:	e03ff715 	stw	zero,-36(fp)
	int dataLength = 0;
  100878:	e03ff815 	stw	zero,-32(fp)
	 /*
	-------------------------------------------------------------------------------
	Get Header Values
	-------------------------------------------------------------------------------
	*/
		void *packet_pointer = packet;
  10087c:	e0bfff17 	ldw	r2,-4(fp)
  100880:	e0bff915 	stw	r2,-28(fp)
		 /*
		-------------------------------------------------------------------------------
		Link Layer
		-------------------------------------------------------------------------------
		*/
		eth = (eth_h*) packet_pointer;
  100884:	e0bff917 	ldw	r2,-28(fp)
  100888:	e0bffa15 	stw	r2,-24(fp)
		packet_pointer += ETH_HEADER_SIZE;
  10088c:	e0bff917 	ldw	r2,-28(fp)
  100890:	10800384 	addi	r2,r2,14
  100894:	e0bff915 	stw	r2,-28(fp)
		 /*
		-------------------------------------------------------------------------------
		Network Layer
		-------------------------------------------------------------------------------
		*/
		ip = (ip_h*) packet_pointer;
  100898:	e0bff917 	ldw	r2,-28(fp)
  10089c:	e0bffb15 	stw	r2,-20(fp)
		if(ip->verIHL != 0x45) {
  1008a0:	e0bffb17 	ldw	r2,-20(fp)
  1008a4:	10801160 	cmpeqi	r2,r2,69
  1008a8:	1000071e 	bne	r2,zero,1008c8 <PacketProcessor_Black_Rx+0x78>
			ipHeaderSize = (ip->verIHL[0]-69)*4;
  1008ac:	e0bffb17 	ldw	r2,-20(fp)
  1008b0:	10800003 	ldbu	r2,0(r2)
  1008b4:	10803fcc 	andi	r2,r2,255
  1008b8:	10bfeec4 	addi	r2,r2,-69
  1008bc:	1085883a 	add	r2,r2,r2
  1008c0:	1085883a 	add	r2,r2,r2
  1008c4:	e0bff415 	stw	r2,-48(fp)
		}
		ipHeaderSize += IP_HEADER_SIZE;
  1008c8:	e0bff417 	ldw	r2,-48(fp)
  1008cc:	10800504 	addi	r2,r2,20
  1008d0:	e0bff415 	stw	r2,-48(fp)
		packet_pointer += ipHeaderSize;
  1008d4:	e0bff417 	ldw	r2,-48(fp)
  1008d8:	e0fff917 	ldw	r3,-28(fp)
  1008dc:	1885883a 	add	r2,r3,r2
  1008e0:	e0bff915 	stw	r2,-28(fp)
		 /*
		-------------------------------------------------------------------------------
		Transport Layer
		-------------------------------------------------------------------------------
		*/
		tran = (tran_h*) packet_pointer;
  1008e4:	e0bff917 	ldw	r2,-28(fp)
  1008e8:	e0bffc15 	stw	r2,-16(fp)
		if ((*(char*)ip->protocol) == 0x11) {
  1008ec:	e0bffb17 	ldw	r2,-20(fp)
  1008f0:	10800244 	addi	r2,r2,9
  1008f4:	10800003 	ldbu	r2,0(r2)
  1008f8:	10803fcc 	andi	r2,r2,255
  1008fc:	1080201c 	xori	r2,r2,128
  100900:	10bfe004 	addi	r2,r2,-128
  100904:	10800458 	cmpnei	r2,r2,17
  100908:	1000051e 	bne	r2,zero,100920 <PacketProcessor_Black_Rx+0xd0>
			udp = (udp_h*) tran;
  10090c:	e0bffc17 	ldw	r2,-16(fp)
  100910:	e0bffd15 	stw	r2,-12(fp)
			transportHeaderSize = 8;
  100914:	00800204 	movi	r2,8
  100918:	e0bff515 	stw	r2,-44(fp)
  10091c:	00001006 	br	100960 <PacketProcessor_Black_Rx+0x110>
		} else if ((*(char*)ip->protocol) == 0x06) {
  100920:	e0bffb17 	ldw	r2,-20(fp)
  100924:	10800244 	addi	r2,r2,9
  100928:	10800003 	ldbu	r2,0(r2)
  10092c:	10803fcc 	andi	r2,r2,255
  100930:	1080201c 	xori	r2,r2,128
  100934:	10bfe004 	addi	r2,r2,-128
  100938:	10800198 	cmpnei	r2,r2,6
  10093c:	1000081e 	bne	r2,zero,100960 <PacketProcessor_Black_Rx+0x110>
			transportHeaderSize = 4* (tran->tcp_length[0] >> 4);
  100940:	e0bffc17 	ldw	r2,-16(fp)
  100944:	10800303 	ldbu	r2,12(r2)
  100948:	10803fcc 	andi	r2,r2,255
  10094c:	1004d13a 	srli	r2,r2,4
  100950:	10803fcc 	andi	r2,r2,255
  100954:	1085883a 	add	r2,r2,r2
  100958:	1085883a 	add	r2,r2,r2
  10095c:	e0bff515 	stw	r2,-44(fp)
		 /*
		-------------------------------------------------------------------------------
		Data
		-------------------------------------------------------------------------------
		*/
		dataLength = ((int) (256 * ip->totalLength[0]) + (int) ip->totalLength[1])
  100960:	e0bffb17 	ldw	r2,-20(fp)
  100964:	10800083 	ldbu	r2,2(r2)
  100968:	10803fcc 	andi	r2,r2,255
  10096c:	1006923a 	slli	r3,r2,8
  100970:	e0bffb17 	ldw	r2,-20(fp)
  100974:	108000c3 	ldbu	r2,3(r2)
  100978:	10803fcc 	andi	r2,r2,255
  10097c:	1887883a 	add	r3,r3,r2
				- (transportHeaderSize + ipHeaderSize);
  100980:	e13ff517 	ldw	r4,-44(fp)
  100984:	e0bff417 	ldw	r2,-48(fp)
  100988:	2085883a 	add	r2,r4,r2
		 /*
		-------------------------------------------------------------------------------
		Data
		-------------------------------------------------------------------------------
		*/
		dataLength = ((int) (256 * ip->totalLength[0]) + (int) ip->totalLength[1])
  10098c:	1885c83a 	sub	r2,r3,r2
  100990:	e0bff815 	stw	r2,-32(fp)
				- (transportHeaderSize + ipHeaderSize);

		packet_pointer += transportHeaderSize;
  100994:	e0bff517 	ldw	r2,-44(fp)
  100998:	e0fff917 	ldw	r3,-28(fp)
  10099c:	1885883a 	add	r2,r3,r2
  1009a0:	e0bff915 	stw	r2,-28(fp)
	-------------------------------------------------------------------------------
	Dissect Packet
	-------------------------------------------------------------------------------
	*/
	B printf("\nTesting TED Packet coming through BLACK:\n");
	if((Ipv4PacketBlack(eth) == 1) && (dataLength != 0)) {
  1009a4:	e13ffa17 	ldw	r4,-24(fp)
  1009a8:	0100b940 	call	100b94 <Ipv4PacketBlack>
  1009ac:	10800058 	cmpnei	r2,r2,1
  1009b0:	1000721e 	bne	r2,zero,100b7c <PacketProcessor_Black_Rx+0x32c>
  1009b4:	e0bff817 	ldw	r2,-32(fp)
  1009b8:	10007026 	beq	r2,zero,100b7c <PacketProcessor_Black_Rx+0x32c>
		B printf("\tIPV4 found, keep checking\n");
		if(!IcmpPacketBlack(ip)) {
  1009bc:	e13ffb17 	ldw	r4,-20(fp)
  1009c0:	0100bd80 	call	100bd8 <IcmpPacketBlack>
  1009c4:	10006d1e 	bne	r2,zero,100b7c <PacketProcessor_Black_Rx+0x32c>
			switch(opMode) {
  1009c8:	e0bff717 	ldw	r2,-36(fp)
  1009cc:	10c00060 	cmpeqi	r3,r2,1
  1009d0:	1800141e 	bne	r3,zero,100a24 <PacketProcessor_Black_Rx+0x1d4>
  1009d4:	10c00088 	cmpgei	r3,r2,2
  1009d8:	1800021e 	bne	r3,zero,1009e4 <PacketProcessor_Black_Rx+0x194>
  1009dc:	10000626 	beq	r2,zero,1009f8 <PacketProcessor_Black_Rx+0x1a8>
						decryptFound = 1;
					}
					break;

				default:
					break;
  1009e0:	00003906 	br	100ac8 <PacketProcessor_Black_Rx+0x278>
	*/
	B printf("\nTesting TED Packet coming through BLACK:\n");
	if((Ipv4PacketBlack(eth) == 1) && (dataLength != 0)) {
		B printf("\tIPV4 found, keep checking\n");
		if(!IcmpPacketBlack(ip)) {
			switch(opMode) {
  1009e4:	10c000a0 	cmpeqi	r3,r2,2
  1009e8:	1800191e 	bne	r3,zero,100a50 <PacketProcessor_Black_Rx+0x200>
  1009ec:	108000e0 	cmpeqi	r2,r2,3
  1009f0:	1000291e 	bne	r2,zero,100a98 <PacketProcessor_Black_Rx+0x248>
						decryptFound = 1;
					}
					break;

				default:
					break;
  1009f4:	00003406 	br	100ac8 <PacketProcessor_Black_Rx+0x278>
	if((Ipv4PacketBlack(eth) == 1) && (dataLength != 0)) {
		B printf("\tIPV4 found, keep checking\n");
		if(!IcmpPacketBlack(ip)) {
			switch(opMode) {
				case 0 :
					if(IpDecrypt(headNumber,ip)) {
  1009f8:	008004b4 	movhi	r2,18
  1009fc:	10a90304 	addi	r2,r2,-23540
  100a00:	10800017 	ldw	r2,0(r2)
  100a04:	1009883a 	mov	r4,r2
  100a08:	e17ffb17 	ldw	r5,-20(fp)
  100a0c:	01003e00 	call	1003e0 <IpDecrypt>
  100a10:	10000326 	beq	r2,zero,100a20 <PacketProcessor_Black_Rx+0x1d0>
						decryptFound = 1;
  100a14:	00800044 	movi	r2,1
  100a18:	e0bff315 	stw	r2,-52(fp)
					}
					break;
  100a1c:	00002a06 	br	100ac8 <PacketProcessor_Black_Rx+0x278>
  100a20:	00002906 	br	100ac8 <PacketProcessor_Black_Rx+0x278>

				case 1 :
					if(PortDecrypt(headNumber,tran)) {
  100a24:	008004b4 	movhi	r2,18
  100a28:	10a90304 	addi	r2,r2,-23540
  100a2c:	10800017 	ldw	r2,0(r2)
  100a30:	1009883a 	mov	r4,r2
  100a34:	e17ffc17 	ldw	r5,-16(fp)
  100a38:	01003580 	call	100358 <PortDecrypt>
  100a3c:	10000326 	beq	r2,zero,100a4c <PacketProcessor_Black_Rx+0x1fc>
						decryptFound = 1;
  100a40:	00800044 	movi	r2,1
  100a44:	e0bff315 	stw	r2,-52(fp)
					}
					break;
  100a48:	00001f06 	br	100ac8 <PacketProcessor_Black_Rx+0x278>
  100a4c:	00001e06 	br	100ac8 <PacketProcessor_Black_Rx+0x278>

				case 2 :

					if(IpDecrypt(headNumber,ip) && PortDecrypt(headNumber,tran)) {
  100a50:	008004b4 	movhi	r2,18
  100a54:	10a90304 	addi	r2,r2,-23540
  100a58:	10800017 	ldw	r2,0(r2)
  100a5c:	1009883a 	mov	r4,r2
  100a60:	e17ffb17 	ldw	r5,-20(fp)
  100a64:	01003e00 	call	1003e0 <IpDecrypt>
  100a68:	10000a26 	beq	r2,zero,100a94 <PacketProcessor_Black_Rx+0x244>
  100a6c:	008004b4 	movhi	r2,18
  100a70:	10a90304 	addi	r2,r2,-23540
  100a74:	10800017 	ldw	r2,0(r2)
  100a78:	1009883a 	mov	r4,r2
  100a7c:	e17ffc17 	ldw	r5,-16(fp)
  100a80:	01003580 	call	100358 <PortDecrypt>
  100a84:	10000326 	beq	r2,zero,100a94 <PacketProcessor_Black_Rx+0x244>
						decryptFound = 1;
  100a88:	00800044 	movi	r2,1
  100a8c:	e0bff315 	stw	r2,-52(fp)
					}
					break;
  100a90:	00000d06 	br	100ac8 <PacketProcessor_Black_Rx+0x278>
  100a94:	00000c06 	br	100ac8 <PacketProcessor_Black_Rx+0x278>

				case 3 :
					if(NatDecrypt(headNumber,ip,tran)) {
  100a98:	008004b4 	movhi	r2,18
  100a9c:	10a90304 	addi	r2,r2,-23540
  100aa0:	10800017 	ldw	r2,0(r2)
  100aa4:	1009883a 	mov	r4,r2
  100aa8:	e17ffb17 	ldw	r5,-20(fp)
  100aac:	e1bffc17 	ldw	r6,-16(fp)
  100ab0:	01004a00 	call	1004a0 <NatDecrypt>
  100ab4:	10000326 	beq	r2,zero,100ac4 <PacketProcessor_Black_Rx+0x274>
						decryptFound = 1;
  100ab8:	00800044 	movi	r2,1
  100abc:	e0bff315 	stw	r2,-52(fp)
					}
					break;
  100ac0:	00000006 	br	100ac4 <PacketProcessor_Black_Rx+0x274>
  100ac4:	0001883a 	nop

				default:
					break;
			} //switch(opMode) end

			if(decryptFound == 1) {
  100ac8:	e0bff317 	ldw	r2,-52(fp)
  100acc:	10800058 	cmpnei	r2,r2,1
  100ad0:	10002a1e 	bne	r2,zero,100b7c <PacketProcessor_Black_Rx+0x32c>
				B printf("\tBeginning decryption:\n");
				//salt is the packet ID which is

				saltMSB = ip->packetID[0];
  100ad4:	e0bffb17 	ldw	r2,-20(fp)
  100ad8:	10800103 	ldbu	r2,4(r2)
  100adc:	e0bffe05 	stb	r2,-8(fp)
				saltLSB = ip->packetID[1];
  100ae0:	e0bffb17 	ldw	r2,-20(fp)
  100ae4:	10800143 	ldbu	r2,5(r2)
  100ae8:	e0bffe45 	stb	r2,-7(fp)

				//injectionVector = (saltMSB << 24) | (saltLSB << 16)
				//		| (saltMSB << 8) | saltLSB;

				B printf("\t\tIP ID is 0x%x%x", saltMSB, saltLSB);
				Decryptor->injectionVector = (saltMSB << 24) | (saltLSB << 16) | (saltMSB << 8) | saltLSB;
  100aec:	008004b4 	movhi	r2,18
  100af0:	10a1ef04 	addi	r2,r2,-30788
  100af4:	10800017 	ldw	r2,0(r2)
  100af8:	e0fffe03 	ldbu	r3,-8(fp)
  100afc:	1808963a 	slli	r4,r3,24
  100b00:	e0fffe43 	ldbu	r3,-7(fp)
  100b04:	1806943a 	slli	r3,r3,16
  100b08:	20c8b03a 	or	r4,r4,r3
  100b0c:	e0fffe03 	ldbu	r3,-8(fp)
  100b10:	1806923a 	slli	r3,r3,8
  100b14:	20c8b03a 	or	r4,r4,r3
  100b18:	e0fffe43 	ldbu	r3,-7(fp)
  100b1c:	20c6b03a 	or	r3,r4,r3
  100b20:	10c00515 	stw	r3,20(r2)
				B printf(", Decryptor IV is 0x%.8x\n", Decryptor->injectionVector);

				Decryptor->readStart = (unsigned int) packet_pointer;
  100b24:	008004b4 	movhi	r2,18
  100b28:	10a1ef04 	addi	r2,r2,-30788
  100b2c:	10800017 	ldw	r2,0(r2)
  100b30:	e0fff917 	ldw	r3,-28(fp)
  100b34:	10c00215 	stw	r3,8(r2)
				Decryptor->writeStart = (unsigned int) packet_pointer;
  100b38:	008004b4 	movhi	r2,18
  100b3c:	10a1ef04 	addi	r2,r2,-30788
  100b40:	10800017 	ldw	r2,0(r2)
  100b44:	e0fff917 	ldw	r3,-28(fp)
  100b48:	10c00315 	stw	r3,12(r2)
				Decryptor->transferLength = (unsigned int) dataLength;
  100b4c:	008004b4 	movhi	r2,18
  100b50:	10a1ef04 	addi	r2,r2,-30788
  100b54:	10800017 	ldw	r2,0(r2)
  100b58:	e0fff817 	ldw	r3,-32(fp)
  100b5c:	10c00415 	stw	r3,16(r2)
				B printf("\t\tDecryptor read start is 0x%.8x\n", Decryptor->readStart);
				B printf("\t\tDecryptor write start is 0x%.8x\n", Decryptor->writeStart);
				B printf("\t\tDecryptor length is %d\n", Decryptor->transferLength);

				B printf("\t\tStarted decryption");
				Decryptor->control = DECRYPT;
  100b60:	008004b4 	movhi	r2,18
  100b64:	10a1ef04 	addi	r2,r2,-30788
  100b68:	10800017 	ldw	r2,0(r2)
  100b6c:	00c000c4 	movi	r3,3
  100b70:	10c00015 	stw	r3,0(r2)
				B printf(". DONE!\n");
				return 2;
  100b74:	00800084 	movi	r2,2
  100b78:	00000106 	br	100b80 <PacketProcessor_Black_Rx+0x330>
		}
	} //If to check ipv4
	else {
		//not ipv4 -> Forward
	}
	return 0;
  100b7c:	0005883a 	mov	r2,zero
}
  100b80:	e037883a 	mov	sp,fp
  100b84:	dfc00117 	ldw	ra,4(sp)
  100b88:	df000017 	ldw	fp,0(sp)
  100b8c:	dec00204 	addi	sp,sp,8
  100b90:	f800283a 	ret

00100b94 <Ipv4PacketBlack>:
Returns:		Returns 1 if Admin Packet Detected.
				Returns 0 for all other cases.
-------------------------------------------------------------------------------
*/

int Ipv4PacketBlack(eth_h* eth) {
  100b94:	defffe04 	addi	sp,sp,-8
  100b98:	df000115 	stw	fp,4(sp)
  100b9c:	df000104 	addi	fp,sp,4
  100ba0:	e13fff15 	stw	r4,-4(fp)
	B printf("\tpacket type : 0x%0.2x%0.2x", eth->eth_protocol[0],
				eth->eth_protocol[1]);
	if ((*(unsigned short*)(eth->eth_protocol)) == 0x0008){
  100ba4:	e0bfff17 	ldw	r2,-4(fp)
  100ba8:	10800304 	addi	r2,r2,12
  100bac:	1080000b 	ldhu	r2,0(r2)
  100bb0:	10bfffcc 	andi	r2,r2,65535
  100bb4:	10800218 	cmpnei	r2,r2,8
  100bb8:	1000021e 	bne	r2,zero,100bc4 <Ipv4PacketBlack+0x30>
	//if (eth->eth_protocol[0] == 0x08 && eth->eth_protocol[1] == 0x00) {
		B printf(" is a valid type, keep checking\n");
		return 1;
  100bbc:	00800044 	movi	r2,1
  100bc0:	00000106 	br	100bc8 <Ipv4PacketBlack+0x34>
	} else {
		B printf(" is not a valid type, forwarding.\n");
		return 0;
  100bc4:	0005883a 	mov	r2,zero
	}

}
  100bc8:	e037883a 	mov	sp,fp
  100bcc:	df000017 	ldw	fp,0(sp)
  100bd0:	dec00104 	addi	sp,sp,4
  100bd4:	f800283a 	ret

00100bd8 <IcmpPacketBlack>:
Returns:		Returns 1 if ICMP Packet Detected.
				Returns 0 for all other cases.
-------------------------------------------------------------------------------
*/

int IcmpPacketBlack(ip_h* ip) {
  100bd8:	defffe04 	addi	sp,sp,-8
  100bdc:	df000115 	stw	fp,4(sp)
  100be0:	df000104 	addi	fp,sp,4
  100be4:	e13fff15 	stw	r4,-4(fp)
	B printf("\tProtocol: 0x%x, ", *(char*)ip->protocol);
	if ((*(char*)ip->protocol) == 0x01) {
  100be8:	e0bfff17 	ldw	r2,-4(fp)
  100bec:	10800244 	addi	r2,r2,9
  100bf0:	10800003 	ldbu	r2,0(r2)
  100bf4:	10803fcc 	andi	r2,r2,255
  100bf8:	1080201c 	xori	r2,r2,128
  100bfc:	10bfe004 	addi	r2,r2,-128
  100c00:	10800058 	cmpnei	r2,r2,1
  100c04:	1000021e 	bne	r2,zero,100c10 <IcmpPacketBlack+0x38>
		B printf("ICMP, forwarding.\n");
		return 1;
  100c08:	00800044 	movi	r2,1
  100c0c:	00000106 	br	100c14 <IcmpPacketBlack+0x3c>
	} else {
		B printf("NOT ICMP, keep checking\n");
		return 0;
  100c10:	0005883a 	mov	r2,zero
	}

}
  100c14:	e037883a 	mov	sp,fp
  100c18:	df000017 	ldw	fp,0(sp)
  100c1c:	dec00104 	addi	sp,sp,4
  100c20:	f800283a 	ret

00100c24 <PacketProcessor_Red_Rx>:
//j = protocol (ICMP, TCP, UDP)
//k = checksum
//l = source IP
//m = destin IP

unsigned char PacketProcessor_Red_Rx(void * packet) {
  100c24:	defff104 	addi	sp,sp,-60
  100c28:	dfc00e15 	stw	ra,56(sp)
  100c2c:	df000d15 	stw	fp,52(sp)
  100c30:	df000d04 	addi	fp,sp,52
  100c34:	e13fff15 	stw	r4,-4(fp)
	 -------------------------------------------------------------------------------
	 Variable Declarations
	 -------------------------------------------------------------------------------
	 */

	int encryptFound = 0;
  100c38:	e03ff315 	stw	zero,-52(fp)
	int ipHeaderSize = 0;
  100c3c:	e03ff415 	stw	zero,-48(fp)
	int transportHeaderSize = 0;
  100c40:	e03ff515 	stw	zero,-44(fp)
	int opMode = 0;
  100c44:	e03ff615 	stw	zero,-40(fp)
	int dataLength = 0;
  100c48:	e03ff715 	stw	zero,-36(fp)
	/*
	 -------------------------------------------------------------------------------
	 Get Header Values
	 -------------------------------------------------------------------------------
	 */
	void* packet_pointer = packet;
  100c4c:	e0bfff17 	ldw	r2,-4(fp)
  100c50:	e0bff815 	stw	r2,-32(fp)
	/*
	 -------------------------------------------------------------------------------
	 Link Layer
	 -------------------------------------------------------------------------------
	 */
	eth = (eth_h*) packet_pointer;
  100c54:	e0bff817 	ldw	r2,-32(fp)
  100c58:	e0bff915 	stw	r2,-28(fp)
	packet_pointer += ETH_HEADER_SIZE;
  100c5c:	e0bff817 	ldw	r2,-32(fp)
  100c60:	10800384 	addi	r2,r2,14
  100c64:	e0bff815 	stw	r2,-32(fp)
	/*
	 -------------------------------------------------------------------------------
	 Network Layer
	 -------------------------------------------------------------------------------
	 */
	ip = (ip_h*) packet_pointer;
  100c68:	e0bff817 	ldw	r2,-32(fp)
  100c6c:	e0bffa15 	stw	r2,-24(fp)
	if (ip->verIHL != 0x45) {
  100c70:	e0bffa17 	ldw	r2,-24(fp)
  100c74:	10801160 	cmpeqi	r2,r2,69
  100c78:	1000071e 	bne	r2,zero,100c98 <PacketProcessor_Red_Rx+0x74>
		ipHeaderSize = (ip->verIHL[0] - 69) * 4;
  100c7c:	e0bffa17 	ldw	r2,-24(fp)
  100c80:	10800003 	ldbu	r2,0(r2)
  100c84:	10803fcc 	andi	r2,r2,255
  100c88:	10bfeec4 	addi	r2,r2,-69
  100c8c:	1085883a 	add	r2,r2,r2
  100c90:	1085883a 	add	r2,r2,r2
  100c94:	e0bff415 	stw	r2,-48(fp)
	}

	ipHeaderSize += IP_HEADER_SIZE;
  100c98:	e0bff417 	ldw	r2,-48(fp)
  100c9c:	10800504 	addi	r2,r2,20
  100ca0:	e0bff415 	stw	r2,-48(fp)
	packet_pointer += ipHeaderSize;
  100ca4:	e0bff417 	ldw	r2,-48(fp)
  100ca8:	e0fff817 	ldw	r3,-32(fp)
  100cac:	1885883a 	add	r2,r3,r2
  100cb0:	e0bff815 	stw	r2,-32(fp)
	/*
	 -------------------------------------------------------------------------------
	 Transport Layer
	 -------------------------------------------------------------------------------
	 */
	tran = (tran_h*) packet_pointer;
  100cb4:	e0bff817 	ldw	r2,-32(fp)
  100cb8:	e0bffb15 	stw	r2,-20(fp)
	if ((*(char*)ip->protocol) == 0x11) {
  100cbc:	e0bffa17 	ldw	r2,-24(fp)
  100cc0:	10800244 	addi	r2,r2,9
  100cc4:	10800003 	ldbu	r2,0(r2)
  100cc8:	10803fcc 	andi	r2,r2,255
  100ccc:	1080201c 	xori	r2,r2,128
  100cd0:	10bfe004 	addi	r2,r2,-128
  100cd4:	10800458 	cmpnei	r2,r2,17
  100cd8:	1000051e 	bne	r2,zero,100cf0 <PacketProcessor_Red_Rx+0xcc>
		udp = (udp_h*) tran;
  100cdc:	e0bffb17 	ldw	r2,-20(fp)
  100ce0:	e0bffc15 	stw	r2,-16(fp)
		transportHeaderSize = 8;
  100ce4:	00800204 	movi	r2,8
  100ce8:	e0bff515 	stw	r2,-44(fp)
  100cec:	00001006 	br	100d30 <PacketProcessor_Red_Rx+0x10c>
	} else if ((*(char*)ip->protocol) == 0x06) {
  100cf0:	e0bffa17 	ldw	r2,-24(fp)
  100cf4:	10800244 	addi	r2,r2,9
  100cf8:	10800003 	ldbu	r2,0(r2)
  100cfc:	10803fcc 	andi	r2,r2,255
  100d00:	1080201c 	xori	r2,r2,128
  100d04:	10bfe004 	addi	r2,r2,-128
  100d08:	10800198 	cmpnei	r2,r2,6
  100d0c:	1000081e 	bne	r2,zero,100d30 <PacketProcessor_Red_Rx+0x10c>
		transportHeaderSize = 4* (tran->tcp_length[0] >> 4);
  100d10:	e0bffb17 	ldw	r2,-20(fp)
  100d14:	10800303 	ldbu	r2,12(r2)
  100d18:	10803fcc 	andi	r2,r2,255
  100d1c:	1004d13a 	srli	r2,r2,4
  100d20:	10803fcc 	andi	r2,r2,255
  100d24:	1085883a 	add	r2,r2,r2
  100d28:	1085883a 	add	r2,r2,r2
  100d2c:	e0bff515 	stw	r2,-44(fp)
	/*
	 -------------------------------------------------------------------------------
	 Data
	 -------------------------------------------------------------------------------
	 */
	dataLength = ((int) (256 * ip->totalLength[0]) + (int) ip->totalLength[1])
  100d30:	e0bffa17 	ldw	r2,-24(fp)
  100d34:	10800083 	ldbu	r2,2(r2)
  100d38:	10803fcc 	andi	r2,r2,255
  100d3c:	1006923a 	slli	r3,r2,8
  100d40:	e0bffa17 	ldw	r2,-24(fp)
  100d44:	108000c3 	ldbu	r2,3(r2)
  100d48:	10803fcc 	andi	r2,r2,255
  100d4c:	1887883a 	add	r3,r3,r2
			- (transportHeaderSize + ipHeaderSize);
  100d50:	e13ff517 	ldw	r4,-44(fp)
  100d54:	e0bff417 	ldw	r2,-48(fp)
  100d58:	2085883a 	add	r2,r4,r2
	/*
	 -------------------------------------------------------------------------------
	 Data
	 -------------------------------------------------------------------------------
	 */
	dataLength = ((int) (256 * ip->totalLength[0]) + (int) ip->totalLength[1])
  100d5c:	1885c83a 	sub	r2,r3,r2
  100d60:	e0bff715 	stw	r2,-36(fp)
			- (transportHeaderSize + ipHeaderSize);
	//printf("DL: %x\n", (unsigned int) dataLength);
	packet_pointer += transportHeaderSize;
  100d64:	e0bff517 	ldw	r2,-44(fp)
  100d68:	e0fff817 	ldw	r3,-32(fp)
  100d6c:	1885883a 	add	r2,r3,r2
  100d70:	e0bff815 	stw	r2,-32(fp)
	 Dissect Packet
	 -------------------------------------------------------------------------------
	 */

	R printf("\nTesting TED Packet coming through RED:\n");
	if (AdminPacket(ip)) {
  100d74:	e13ffa17 	ldw	r4,-24(fp)
  100d78:	0100fac0 	call	100fac <AdminPacket>
  100d7c:	10000e26 	beq	r2,zero,100db8 <PacketProcessor_Red_Rx+0x194>
		R printf("\tAdmin packet found\n");
		admin = (admin_h*) packet_pointer;
  100d80:	e0bff817 	ldw	r2,-32(fp)
  100d84:	e0bffd15 	stw	r2,-12(fp)
		headNumber = ProcessAdminPacket(admin, headNumber);
  100d88:	008004b4 	movhi	r2,18
  100d8c:	10a90304 	addi	r2,r2,-23540
  100d90:	10800017 	ldw	r2,0(r2)
  100d94:	e13ffd17 	ldw	r4,-12(fp)
  100d98:	100b883a 	mov	r5,r2
  100d9c:	01010800 	call	101080 <ProcessAdminPacket>
  100da0:	1007883a 	mov	r3,r2
  100da4:	008004b4 	movhi	r2,18
  100da8:	10a90304 	addi	r2,r2,-23540
  100dac:	10c00015 	stw	r3,0(r2)
		return 1;
  100db0:	00800044 	movi	r2,1
  100db4:	00007806 	br	100f98 <PacketProcessor_Red_Rx+0x374>
	} else {
		if ((Ipv4PacketRed(eth) == 1) && (dataLength != 0)) {
  100db8:	e13ff917 	ldw	r4,-28(fp)
  100dbc:	0100ff00 	call	100ff0 <Ipv4PacketRed>
  100dc0:	10800058 	cmpnei	r2,r2,1
  100dc4:	1000731e 	bne	r2,zero,100f94 <PacketProcessor_Red_Rx+0x370>
  100dc8:	e0bff717 	ldw	r2,-36(fp)
  100dcc:	10007126 	beq	r2,zero,100f94 <PacketProcessor_Red_Rx+0x370>
			R printf("\tIPV4 found, keep checking\n");
			if (!IcmpPacketRed(ip)) {
  100dd0:	e13ffa17 	ldw	r4,-24(fp)
  100dd4:	01010340 	call	101034 <IcmpPacketRed>
  100dd8:	10006e1e 	bne	r2,zero,100f94 <PacketProcessor_Red_Rx+0x370>
				encryptFound = 0;
  100ddc:	e03ff315 	stw	zero,-52(fp)
				switch (opMode) {
  100de0:	e0bff617 	ldw	r2,-40(fp)
  100de4:	10c00060 	cmpeqi	r3,r2,1
  100de8:	1800141e 	bne	r3,zero,100e3c <PacketProcessor_Red_Rx+0x218>
  100dec:	10c00088 	cmpgei	r3,r2,2
  100df0:	1800021e 	bne	r3,zero,100dfc <PacketProcessor_Red_Rx+0x1d8>
  100df4:	10000626 	beq	r2,zero,100e10 <PacketProcessor_Red_Rx+0x1ec>
						encryptFound = 1;
					}
					break;

				default:
					break;
  100df8:	00003906 	br	100ee0 <PacketProcessor_Red_Rx+0x2bc>
	} else {
		if ((Ipv4PacketRed(eth) == 1) && (dataLength != 0)) {
			R printf("\tIPV4 found, keep checking\n");
			if (!IcmpPacketRed(ip)) {
				encryptFound = 0;
				switch (opMode) {
  100dfc:	10c000a0 	cmpeqi	r3,r2,2
  100e00:	1800191e 	bne	r3,zero,100e68 <PacketProcessor_Red_Rx+0x244>
  100e04:	108000e0 	cmpeqi	r2,r2,3
  100e08:	1000291e 	bne	r2,zero,100eb0 <PacketProcessor_Red_Rx+0x28c>
						encryptFound = 1;
					}
					break;

				default:
					break;
  100e0c:	00003406 	br	100ee0 <PacketProcessor_Red_Rx+0x2bc>
			R printf("\tIPV4 found, keep checking\n");
			if (!IcmpPacketRed(ip)) {
				encryptFound = 0;
				switch (opMode) {
				case 0:
					if (IpEncrypt(headNumber, ip)) {
  100e10:	008004b4 	movhi	r2,18
  100e14:	10a90304 	addi	r2,r2,-23540
  100e18:	10800017 	ldw	r2,0(r2)
  100e1c:	1009883a 	mov	r4,r2
  100e20:	e17ffa17 	ldw	r5,-24(fp)
  100e24:	010065c0 	call	10065c <IpEncrypt>
  100e28:	10000326 	beq	r2,zero,100e38 <PacketProcessor_Red_Rx+0x214>
						encryptFound = 1;
  100e2c:	00800044 	movi	r2,1
  100e30:	e0bff315 	stw	r2,-52(fp)
					}
					break;
  100e34:	00002a06 	br	100ee0 <PacketProcessor_Red_Rx+0x2bc>
  100e38:	00002906 	br	100ee0 <PacketProcessor_Red_Rx+0x2bc>

				case 1:
					if (PortEncrypt(headNumber, tran)) {
  100e3c:	008004b4 	movhi	r2,18
  100e40:	10a90304 	addi	r2,r2,-23540
  100e44:	10800017 	ldw	r2,0(r2)
  100e48:	1009883a 	mov	r4,r2
  100e4c:	e17ffb17 	ldw	r5,-20(fp)
  100e50:	01005d40 	call	1005d4 <PortEncrypt>
  100e54:	10000326 	beq	r2,zero,100e64 <PacketProcessor_Red_Rx+0x240>
						encryptFound = 1;
  100e58:	00800044 	movi	r2,1
  100e5c:	e0bff315 	stw	r2,-52(fp)
					}
					break;
  100e60:	00001f06 	br	100ee0 <PacketProcessor_Red_Rx+0x2bc>
  100e64:	00001e06 	br	100ee0 <PacketProcessor_Red_Rx+0x2bc>

				case 2:
					if (IpEncrypt(headNumber, ip)
  100e68:	008004b4 	movhi	r2,18
  100e6c:	10a90304 	addi	r2,r2,-23540
  100e70:	10800017 	ldw	r2,0(r2)
  100e74:	1009883a 	mov	r4,r2
  100e78:	e17ffa17 	ldw	r5,-24(fp)
  100e7c:	010065c0 	call	10065c <IpEncrypt>
  100e80:	10000a26 	beq	r2,zero,100eac <PacketProcessor_Red_Rx+0x288>
							&& PortEncrypt(headNumber, tran)) {
  100e84:	008004b4 	movhi	r2,18
  100e88:	10a90304 	addi	r2,r2,-23540
  100e8c:	10800017 	ldw	r2,0(r2)
  100e90:	1009883a 	mov	r4,r2
  100e94:	e17ffb17 	ldw	r5,-20(fp)
  100e98:	01005d40 	call	1005d4 <PortEncrypt>
  100e9c:	10000326 	beq	r2,zero,100eac <PacketProcessor_Red_Rx+0x288>
						encryptFound = 1;
  100ea0:	00800044 	movi	r2,1
  100ea4:	e0bff315 	stw	r2,-52(fp)
					}
					break;
  100ea8:	00000d06 	br	100ee0 <PacketProcessor_Red_Rx+0x2bc>
  100eac:	00000c06 	br	100ee0 <PacketProcessor_Red_Rx+0x2bc>

				case 3:
					if (NatEncrypt(headNumber, ip, tran)) {
  100eb0:	008004b4 	movhi	r2,18
  100eb4:	10a90304 	addi	r2,r2,-23540
  100eb8:	10800017 	ldw	r2,0(r2)
  100ebc:	1009883a 	mov	r4,r2
  100ec0:	e17ffa17 	ldw	r5,-24(fp)
  100ec4:	e1bffb17 	ldw	r6,-20(fp)
  100ec8:	010071c0 	call	10071c <NatEncrypt>
  100ecc:	10000326 	beq	r2,zero,100edc <PacketProcessor_Red_Rx+0x2b8>
						encryptFound = 1;
  100ed0:	00800044 	movi	r2,1
  100ed4:	e0bff315 	stw	r2,-52(fp)
					}
					break;
  100ed8:	00000006 	br	100edc <PacketProcessor_Red_Rx+0x2b8>
  100edc:	0001883a 	nop

				default:
					break;
				} //switch(opMode) end

				if (encryptFound == 1) {
  100ee0:	e0bff317 	ldw	r2,-52(fp)
  100ee4:	10800058 	cmpnei	r2,r2,1
  100ee8:	10002a1e 	bne	r2,zero,100f94 <PacketProcessor_Red_Rx+0x370>
					R printf("\tBeginning encryption:\n");
					//salt is the packet ID which is

					saltMSB = ip->packetID[0];
  100eec:	e0bffa17 	ldw	r2,-24(fp)
  100ef0:	10800103 	ldbu	r2,4(r2)
  100ef4:	e0bffe05 	stb	r2,-8(fp)
					saltLSB = ip->packetID[1];
  100ef8:	e0bffa17 	ldw	r2,-24(fp)
  100efc:	10800143 	ldbu	r2,5(r2)
  100f00:	e0bffe45 	stb	r2,-7(fp)

					R printf("\t\tIP ID is 0x%x%x", saltMSB, saltLSB);
					Encryptor->injectionVector = (saltMSB << 24) | (saltLSB << 16) | (saltMSB << 8) | saltLSB;;
  100f04:	008004b4 	movhi	r2,18
  100f08:	10a1ee04 	addi	r2,r2,-30792
  100f0c:	10800017 	ldw	r2,0(r2)
  100f10:	e0fffe03 	ldbu	r3,-8(fp)
  100f14:	1808963a 	slli	r4,r3,24
  100f18:	e0fffe43 	ldbu	r3,-7(fp)
  100f1c:	1806943a 	slli	r3,r3,16
  100f20:	20c8b03a 	or	r4,r4,r3
  100f24:	e0fffe03 	ldbu	r3,-8(fp)
  100f28:	1806923a 	slli	r3,r3,8
  100f2c:	20c8b03a 	or	r4,r4,r3
  100f30:	e0fffe43 	ldbu	r3,-7(fp)
  100f34:	20c6b03a 	or	r3,r4,r3
  100f38:	10c00515 	stw	r3,20(r2)
					R printf(", Encryptor IV is 0x%.8x\n", Encryptor->injectionVector);

					Encryptor->readStart = (unsigned int) packet_pointer;
  100f3c:	008004b4 	movhi	r2,18
  100f40:	10a1ee04 	addi	r2,r2,-30792
  100f44:	10800017 	ldw	r2,0(r2)
  100f48:	e0fff817 	ldw	r3,-32(fp)
  100f4c:	10c00215 	stw	r3,8(r2)
					Encryptor->writeStart = (unsigned int) packet_pointer;
  100f50:	008004b4 	movhi	r2,18
  100f54:	10a1ee04 	addi	r2,r2,-30792
  100f58:	10800017 	ldw	r2,0(r2)
  100f5c:	e0fff817 	ldw	r3,-32(fp)
  100f60:	10c00315 	stw	r3,12(r2)
					Encryptor->transferLength = (unsigned int) dataLength;
  100f64:	008004b4 	movhi	r2,18
  100f68:	10a1ee04 	addi	r2,r2,-30792
  100f6c:	10800017 	ldw	r2,0(r2)
  100f70:	e0fff717 	ldw	r3,-36(fp)
  100f74:	10c00415 	stw	r3,16(r2)
					R printf("\t\tEncryptor read start is 0x%.8x\n", Encryptor->readStart);
					R printf("\t\tEncryptor write start is 0x%.8x\n", Encryptor->writeStart);
					R printf("\t\tEncryptor length is %d\n", Encryptor->transferLength);

					R printf("\t\tStarted encryption");
					Encryptor->control = ENCRYPT;
  100f78:	008004b4 	movhi	r2,18
  100f7c:	10a1ee04 	addi	r2,r2,-30792
  100f80:	10800017 	ldw	r2,0(r2)
  100f84:	00c00044 	movi	r3,1
  100f88:	10c00015 	stw	r3,0(r2)
					R printf(". DONE!\n");
					return 2;
  100f8c:	00800084 	movi	r2,2
  100f90:	00000106 	br	100f98 <PacketProcessor_Red_Rx+0x374>
		} //If to check ipv4
		else {
			//not ipv4 -> Forward
		}
	}
	return 0;
  100f94:	0005883a 	mov	r2,zero
}
  100f98:	e037883a 	mov	sp,fp
  100f9c:	dfc00117 	ldw	ra,4(sp)
  100fa0:	df000017 	ldw	fp,0(sp)
  100fa4:	dec00204 	addi	sp,sp,8
  100fa8:	f800283a 	ret

00100fac <AdminPacket>:
	 Returns:		Returns 1 if Admin Packet Detected.
	 Returns 0 for all other cases.
	 -------------------------------------------------------------------------------
	 */

	int AdminPacket(ip_h* ip) {
  100fac:	defffe04 	addi	sp,sp,-8
  100fb0:	df000115 	stw	fp,4(sp)
  100fb4:	df000104 	addi	fp,sp,4
  100fb8:	e13fff15 	stw	r4,-4(fp)
		if ((*(unsigned int*)(ip->ip_dst)) == 0x0a0a0a0a){
  100fbc:	e0bfff17 	ldw	r2,-4(fp)
  100fc0:	10800404 	addi	r2,r2,16
  100fc4:	10c00017 	ldw	r3,0(r2)
  100fc8:	008282b4 	movhi	r2,2570
  100fcc:	10828284 	addi	r2,r2,2570
  100fd0:	1880021e 	bne	r3,r2,100fdc <AdminPacket+0x30>
		//if (ip->ip_dst[0] == 0x0a && ip->ip_dst[1] == 0x0a
		//		&& ip->ip_dst[2] == 0x0a && ip->ip_dst[3] == 0x0a) {
			return 1;
  100fd4:	00800044 	movi	r2,1
  100fd8:	00000106 	br	100fe0 <AdminPacket+0x34>
		} else {
			return 0;
  100fdc:	0005883a 	mov	r2,zero
		}

	}
  100fe0:	e037883a 	mov	sp,fp
  100fe4:	df000017 	ldw	fp,0(sp)
  100fe8:	dec00104 	addi	sp,sp,4
  100fec:	f800283a 	ret

00100ff0 <Ipv4PacketRed>:
	 Returns:		Returns 1 if Admin Packet Detected.
	 Returns 0 for all other cases.
	 -------------------------------------------------------------------------------
	 */

	int Ipv4PacketRed(eth_h* eth) {
  100ff0:	defffe04 	addi	sp,sp,-8
  100ff4:	df000115 	stw	fp,4(sp)
  100ff8:	df000104 	addi	fp,sp,4
  100ffc:	e13fff15 	stw	r4,-4(fp)
		R printf("\tpacket type : 0x%.2x%.2x", eth->eth_protocol[0], eth->eth_protocol[1]);
		if ((*(unsigned short*)(eth->eth_protocol)) == 0x0008){
  101000:	e0bfff17 	ldw	r2,-4(fp)
  101004:	10800304 	addi	r2,r2,12
  101008:	1080000b 	ldhu	r2,0(r2)
  10100c:	10bfffcc 	andi	r2,r2,65535
  101010:	10800218 	cmpnei	r2,r2,8
  101014:	1000021e 	bne	r2,zero,101020 <Ipv4PacketRed+0x30>
		//if (eth->eth_protocol[0] == 0x08 && eth->eth_protocol[1] == 0x00) {
			R printf(" is a valid type, keep checking\n");
			return 1;
  101018:	00800044 	movi	r2,1
  10101c:	00000106 	br	101024 <Ipv4PacketRed+0x34>
		} else {
			R printf(" is not a valid type, forwarding.\n");
			return 0;
  101020:	0005883a 	mov	r2,zero
		}

	}
  101024:	e037883a 	mov	sp,fp
  101028:	df000017 	ldw	fp,0(sp)
  10102c:	dec00104 	addi	sp,sp,4
  101030:	f800283a 	ret

00101034 <IcmpPacketRed>:
	 Returns:		Returns 1 if ICMP Packet Detected.
	 Returns 0 for all other cases.
	 -------------------------------------------------------------------------------
	 */

	int IcmpPacketRed(ip_h* ip) {
  101034:	defffe04 	addi	sp,sp,-8
  101038:	df000115 	stw	fp,4(sp)
  10103c:	df000104 	addi	fp,sp,4
  101040:	e13fff15 	stw	r4,-4(fp)
		R printf("\tProtocol: 0x%x, ", *(char*)ip->protocol);
		if ((*(char*)ip->protocol) == 0x01) {
  101044:	e0bfff17 	ldw	r2,-4(fp)
  101048:	10800244 	addi	r2,r2,9
  10104c:	10800003 	ldbu	r2,0(r2)
  101050:	10803fcc 	andi	r2,r2,255
  101054:	1080201c 	xori	r2,r2,128
  101058:	10bfe004 	addi	r2,r2,-128
  10105c:	10800058 	cmpnei	r2,r2,1
  101060:	1000021e 	bne	r2,zero,10106c <IcmpPacketRed+0x38>
			R printf("ICMP, forwarding.\n");
			return 1;
  101064:	00800044 	movi	r2,1
  101068:	00000106 	br	101070 <IcmpPacketRed+0x3c>
		} else {
			R printf("NOT ICMP, keep checking\n");
			return 0;
  10106c:	0005883a 	mov	r2,zero
		}

	}
  101070:	e037883a 	mov	sp,fp
  101074:	df000017 	ldw	fp,0(sp)
  101078:	dec00104 	addi	sp,sp,4
  10107c:	f800283a 	ret

00101080 <ProcessAdminPacket>:

	 Returns:		The head of the target linked list.
	 -------------------------------------------------------------------------------
	 */

	TARGET* ProcessAdminPacket(admin_h* admin, TARGET* headNumber) {
  101080:	deffe604 	addi	sp,sp,-104
  101084:	dfc01915 	stw	ra,100(sp)
  101088:	df001815 	stw	fp,96(sp)
  10108c:	df001804 	addi	fp,sp,96
  101090:	e13ffe15 	stw	r4,-8(fp)
  101094:	e17fff15 	stw	r5,-4(fp)
		R printf("\tIpSrc: %x.%x.%x.%x\n", admin->ipsrc1[0], admin->ipsrc1[1], admin->ipsrc1[2],admin->ipsrc1[3]);
		R printf("\tIpDst: %x.%x.%x.%x\n", admin->ipdst1[0], admin->ipdst1[1], admin->ipdst1[2],admin->ipdst1[3]);
		R printf("\tPtSrc: %x\n", (admin->srcport1[0] << 8 ) | admin->srcport1[1]);
		R printf("\tPtDst: %x\n", (admin->dstport1[0] << 8 ) | admin->dstport1[1]);

		headNumber->nextTargetNumber = NULL;
  101098:	e0bfff17 	ldw	r2,-4(fp)
  10109c:	10000415 	stw	zero,16(r2)

		headNumber = AddTarget(headNumber, 0, admin->ipsrc1,
  1010a0:	e0bffe17 	ldw	r2,-8(fp)
  1010a4:	10c001c4 	addi	r3,r2,7
				 admin->ipdst1, admin->srcport1,
  1010a8:	e0bffe17 	ldw	r2,-8(fp)
  1010ac:	108002c4 	addi	r2,r2,11
  1010b0:	e13ffe17 	ldw	r4,-8(fp)
  1010b4:	214003c4 	addi	r5,r4,15
				 admin->dstport1);
  1010b8:	e13ffe17 	ldw	r4,-8(fp)
  1010bc:	21000444 	addi	r4,r4,17
		R printf("\tPtSrc: %x\n", (admin->srcport1[0] << 8 ) | admin->srcport1[1]);
		R printf("\tPtDst: %x\n", (admin->dstport1[0] << 8 ) | admin->dstport1[1]);

		headNumber->nextTargetNumber = NULL;

		headNumber = AddTarget(headNumber, 0, admin->ipsrc1,
  1010c0:	d9400015 	stw	r5,0(sp)
  1010c4:	d9000115 	stw	r4,4(sp)
  1010c8:	e13fff17 	ldw	r4,-4(fp)
  1010cc:	000b883a 	mov	r5,zero
  1010d0:	180d883a 	mov	r6,r3
  1010d4:	100f883a 	mov	r7,r2
  1010d8:	01015580 	call	101558 <AddTarget>
  1010dc:	e0bfff15 	stw	r2,-4(fp)
				 admin->ipdst1, admin->srcport1,
				 admin->dstport1);
		headNumber = AddTarget(headNumber, 1, admin->ipsrc2,
  1010e0:	e0bffe17 	ldw	r2,-8(fp)
  1010e4:	10c004c4 	addi	r3,r2,19
				 admin->ipdst2, admin->srcport2,
  1010e8:	e0bffe17 	ldw	r2,-8(fp)
  1010ec:	108005c4 	addi	r2,r2,23
  1010f0:	e13ffe17 	ldw	r4,-8(fp)
  1010f4:	214006c4 	addi	r5,r4,27
				 admin->dstport2);
  1010f8:	e13ffe17 	ldw	r4,-8(fp)
  1010fc:	21000744 	addi	r4,r4,29
		headNumber->nextTargetNumber = NULL;

		headNumber = AddTarget(headNumber, 0, admin->ipsrc1,
				 admin->ipdst1, admin->srcport1,
				 admin->dstport1);
		headNumber = AddTarget(headNumber, 1, admin->ipsrc2,
  101100:	d9400015 	stw	r5,0(sp)
  101104:	d9000115 	stw	r4,4(sp)
  101108:	e13fff17 	ldw	r4,-4(fp)
  10110c:	01400044 	movi	r5,1
  101110:	180d883a 	mov	r6,r3
  101114:	100f883a 	mov	r7,r2
  101118:	01015580 	call	101558 <AddTarget>
  10111c:	e0bfff15 	stw	r2,-4(fp)
				 admin->ipdst2, admin->srcport2,
				 admin->dstport2);
		headNumber = AddTarget(headNumber, 2, admin->ipsrc3,
  101120:	e0bffe17 	ldw	r2,-8(fp)
  101124:	10c007c4 	addi	r3,r2,31
				 admin->ipdst3, admin->srcport3,
  101128:	e0bffe17 	ldw	r2,-8(fp)
  10112c:	108008c4 	addi	r2,r2,35
  101130:	e13ffe17 	ldw	r4,-8(fp)
  101134:	214009c4 	addi	r5,r4,39
				 admin->dstport3);
  101138:	e13ffe17 	ldw	r4,-8(fp)
  10113c:	21000a44 	addi	r4,r4,41
				 admin->ipdst1, admin->srcport1,
				 admin->dstport1);
		headNumber = AddTarget(headNumber, 1, admin->ipsrc2,
				 admin->ipdst2, admin->srcport2,
				 admin->dstport2);
		headNumber = AddTarget(headNumber, 2, admin->ipsrc3,
  101140:	d9400015 	stw	r5,0(sp)
  101144:	d9000115 	stw	r4,4(sp)
  101148:	e13fff17 	ldw	r4,-4(fp)
  10114c:	01400084 	movi	r5,2
  101150:	180d883a 	mov	r6,r3
  101154:	100f883a 	mov	r7,r2
  101158:	01015580 	call	101558 <AddTarget>
  10115c:	e0bfff15 	stw	r2,-4(fp)
				 admin->dstport3);


		R printf("\n");
		R printf("Old key8key16: 0x%08x\n", (unsigned int)Encryptor->key8key16);
		Encryptor->key8key16 = (((admin->key8[0]) << 16) | ((admin->key16[1]) << 8) | (admin->key16[0]));
  101160:	008004b4 	movhi	r2,18
  101164:	10a1ee04 	addi	r2,r2,-30792
  101168:	10800017 	ldw	r2,0(r2)
  10116c:	e0fffe17 	ldw	r3,-8(fp)
  101170:	18c00003 	ldbu	r3,0(r3)
  101174:	18c03fcc 	andi	r3,r3,255
  101178:	1808943a 	slli	r4,r3,16
  10117c:	e0fffe17 	ldw	r3,-8(fp)
  101180:	18c00083 	ldbu	r3,2(r3)
  101184:	18c03fcc 	andi	r3,r3,255
  101188:	1806923a 	slli	r3,r3,8
  10118c:	20c8b03a 	or	r4,r4,r3
  101190:	e0fffe17 	ldw	r3,-8(fp)
  101194:	18c00043 	ldbu	r3,1(r3)
  101198:	18c03fcc 	andi	r3,r3,255
  10119c:	20c6b03a 	or	r3,r4,r3
  1011a0:	10c00615 	stw	r3,24(r2)
		R printf("New key8key16: 0x%08x\n", (unsigned int)Encryptor->key8key16);
		R printf("Old key32: 0x%08x\n", (unsigned int)Encryptor->key32);
		Encryptor->key32 = (((admin->key32[3]) << 24) | ((admin->key32[2]) << 16) | ((admin->key32[1]) << 8) | ((admin->key32[0])));
  1011a4:	008004b4 	movhi	r2,18
  1011a8:	10a1ee04 	addi	r2,r2,-30792
  1011ac:	10800017 	ldw	r2,0(r2)
  1011b0:	e0fffe17 	ldw	r3,-8(fp)
  1011b4:	18c00183 	ldbu	r3,6(r3)
  1011b8:	18c03fcc 	andi	r3,r3,255
  1011bc:	1808963a 	slli	r4,r3,24
  1011c0:	e0fffe17 	ldw	r3,-8(fp)
  1011c4:	18c00143 	ldbu	r3,5(r3)
  1011c8:	18c03fcc 	andi	r3,r3,255
  1011cc:	1806943a 	slli	r3,r3,16
  1011d0:	20c8b03a 	or	r4,r4,r3
  1011d4:	e0fffe17 	ldw	r3,-8(fp)
  1011d8:	18c00103 	ldbu	r3,4(r3)
  1011dc:	18c03fcc 	andi	r3,r3,255
  1011e0:	1806923a 	slli	r3,r3,8
  1011e4:	20c8b03a 	or	r4,r4,r3
  1011e8:	e0fffe17 	ldw	r3,-8(fp)
  1011ec:	18c000c3 	ldbu	r3,3(r3)
  1011f0:	18c03fcc 	andi	r3,r3,255
  1011f4:	20c6b03a 	or	r3,r4,r3
  1011f8:	10c00715 	stw	r3,28(r2)
		R printf("New key32: 0x%08x\n", (unsigned int)Encryptor->key32);
		R printf("LCD: %x",&LCD);

		alt_up_character_lcd_set_cursor_pos(LCD, 0, 0);
  1011fc:	008004b4 	movhi	r2,18
  101200:	10a90804 	addi	r2,r2,-23520
  101204:	10800017 	ldw	r2,0(r2)
  101208:	1009883a 	mov	r4,r2
  10120c:	000b883a 	mov	r5,zero
  101210:	000d883a 	mov	r6,zero
  101214:	011523c0 	call	11523c <alt_up_character_lcd_set_cursor_pos>
		alt_up_character_lcd_string(LCD, "                ");
  101218:	008004b4 	movhi	r2,18
  10121c:	10a90804 	addi	r2,r2,-23520
  101220:	10800017 	ldw	r2,0(r2)
  101224:	1009883a 	mov	r4,r2
  101228:	01400474 	movhi	r5,17
  10122c:	2957f104 	addi	r5,r5,24516
  101230:	01151e80 	call	1151e8 <alt_up_character_lcd_string>
		alt_up_character_lcd_set_cursor_pos(LCD, 0, 0);
  101234:	008004b4 	movhi	r2,18
  101238:	10a90804 	addi	r2,r2,-23520
  10123c:	10800017 	ldw	r2,0(r2)
  101240:	1009883a 	mov	r4,r2
  101244:	000b883a 	mov	r5,zero
  101248:	000d883a 	mov	r6,zero
  10124c:	011523c0 	call	11523c <alt_up_character_lcd_set_cursor_pos>
		sprintf(string, "%d.%d.%d.%d", headNumber->nextTargetNumber->srcHost[0], headNumber->nextTargetNumber->srcHost[1], headNumber->nextTargetNumber->srcHost[2], headNumber->nextTargetNumber->srcHost[3]);
  101250:	e0bfff17 	ldw	r2,-4(fp)
  101254:	10800417 	ldw	r2,16(r2)
  101258:	10800103 	ldbu	r2,4(r2)
  10125c:	10c03fcc 	andi	r3,r2,255
  101260:	e0bfff17 	ldw	r2,-4(fp)
  101264:	10800417 	ldw	r2,16(r2)
  101268:	10800143 	ldbu	r2,5(r2)
  10126c:	10803fcc 	andi	r2,r2,255
  101270:	e13fff17 	ldw	r4,-4(fp)
  101274:	21000417 	ldw	r4,16(r4)
  101278:	21000183 	ldbu	r4,6(r4)
  10127c:	21403fcc 	andi	r5,r4,255
  101280:	e13fff17 	ldw	r4,-4(fp)
  101284:	21000417 	ldw	r4,16(r4)
  101288:	210001c3 	ldbu	r4,7(r4)
  10128c:	21003fcc 	andi	r4,r4,255
  101290:	d9400015 	stw	r5,0(sp)
  101294:	d9000115 	stw	r4,4(sp)
  101298:	e13fea04 	addi	r4,fp,-88
  10129c:	01400474 	movhi	r5,17
  1012a0:	2957f604 	addi	r5,r5,24536
  1012a4:	180d883a 	mov	r6,r3
  1012a8:	100f883a 	mov	r7,r2
  1012ac:	01049440 	call	104944 <sprintf>
		alt_up_character_lcd_string(LCD, string);
  1012b0:	008004b4 	movhi	r2,18
  1012b4:	10a90804 	addi	r2,r2,-23520
  1012b8:	10800017 	ldw	r2,0(r2)
  1012bc:	1009883a 	mov	r4,r2
  1012c0:	e17fea04 	addi	r5,fp,-88
  1012c4:	01151e80 	call	1151e8 <alt_up_character_lcd_string>
		alt_up_character_lcd_set_cursor_pos(LCD, 0, 1);
  1012c8:	008004b4 	movhi	r2,18
  1012cc:	10a90804 	addi	r2,r2,-23520
  1012d0:	10800017 	ldw	r2,0(r2)
  1012d4:	1009883a 	mov	r4,r2
  1012d8:	000b883a 	mov	r5,zero
  1012dc:	01800044 	movi	r6,1
  1012e0:	011523c0 	call	11523c <alt_up_character_lcd_set_cursor_pos>
		alt_up_character_lcd_string(LCD, "                ");
  1012e4:	008004b4 	movhi	r2,18
  1012e8:	10a90804 	addi	r2,r2,-23520
  1012ec:	10800017 	ldw	r2,0(r2)
  1012f0:	1009883a 	mov	r4,r2
  1012f4:	01400474 	movhi	r5,17
  1012f8:	2957f104 	addi	r5,r5,24516
  1012fc:	01151e80 	call	1151e8 <alt_up_character_lcd_string>
		alt_up_character_lcd_set_cursor_pos(LCD, 0, 1);
  101300:	008004b4 	movhi	r2,18
  101304:	10a90804 	addi	r2,r2,-23520
  101308:	10800017 	ldw	r2,0(r2)
  10130c:	1009883a 	mov	r4,r2
  101310:	000b883a 	mov	r5,zero
  101314:	01800044 	movi	r6,1
  101318:	011523c0 	call	11523c <alt_up_character_lcd_set_cursor_pos>
		sprintf(string, "%d.%d.%d.%d", headNumber->nextTargetNumber->dstHost[0], headNumber->nextTargetNumber->dstHost[1], headNumber->nextTargetNumber->dstHost[2], headNumber->nextTargetNumber->dstHost[3]);
  10131c:	e0bfff17 	ldw	r2,-4(fp)
  101320:	10800417 	ldw	r2,16(r2)
  101324:	10800203 	ldbu	r2,8(r2)
  101328:	10c03fcc 	andi	r3,r2,255
  10132c:	e0bfff17 	ldw	r2,-4(fp)
  101330:	10800417 	ldw	r2,16(r2)
  101334:	10800243 	ldbu	r2,9(r2)
  101338:	10803fcc 	andi	r2,r2,255
  10133c:	e13fff17 	ldw	r4,-4(fp)
  101340:	21000417 	ldw	r4,16(r4)
  101344:	21000283 	ldbu	r4,10(r4)
  101348:	21403fcc 	andi	r5,r4,255
  10134c:	e13fff17 	ldw	r4,-4(fp)
  101350:	21000417 	ldw	r4,16(r4)
  101354:	210002c3 	ldbu	r4,11(r4)
  101358:	21003fcc 	andi	r4,r4,255
  10135c:	d9400015 	stw	r5,0(sp)
  101360:	d9000115 	stw	r4,4(sp)
  101364:	e13fea04 	addi	r4,fp,-88
  101368:	01400474 	movhi	r5,17
  10136c:	2957f604 	addi	r5,r5,24536
  101370:	180d883a 	mov	r6,r3
  101374:	100f883a 	mov	r7,r2
  101378:	01049440 	call	104944 <sprintf>
		alt_up_character_lcd_string(LCD, string);
  10137c:	008004b4 	movhi	r2,18
  101380:	10a90804 	addi	r2,r2,-23520
  101384:	10800017 	ldw	r2,0(r2)
  101388:	1009883a 	mov	r4,r2
  10138c:	e17fea04 	addi	r5,fp,-88
  101390:	01151e80 	call	1151e8 <alt_up_character_lcd_string>

		return headNumber;
  101394:	e0bfff17 	ldw	r2,-4(fp)

	}
  101398:	e037883a 	mov	sp,fp
  10139c:	dfc00117 	ldw	ra,4(sp)
  1013a0:	df000017 	ldw	fp,0(sp)
  1013a4:	dec00204 	addi	sp,sp,8
  1013a8:	f800283a 	ret

001013ac <InitializeTargetList>:
Returns:		TARGET pointer to the first element in the linked list.
				Returns itself if list is empty.
-------------------------------------------------------------------------------
*/

TARGET* InitializeTargetList(TARGET* listHead) {
  1013ac:	defff204 	addi	sp,sp,-56
  1013b0:	dfc00d15 	stw	ra,52(sp)
  1013b4:	df000c15 	stw	fp,48(sp)
  1013b8:	df000c04 	addi	fp,sp,48
  1013bc:	e13fff15 	stw	r4,-4(fp)

	unsigned char ipsrc1[] = {IP_SRC_ADDRESS1};
  1013c0:	00bfeb04 	movi	r2,-84
  1013c4:	e0bff605 	stb	r2,-40(fp)
  1013c8:	00800404 	movi	r2,16
  1013cc:	e0bff645 	stb	r2,-39(fp)
  1013d0:	e03ff685 	stb	zero,-38(fp)
  1013d4:	00800144 	movi	r2,5
  1013d8:	e0bff6c5 	stb	r2,-37(fp)
	unsigned char ipdst1[] = {IP_DST_ADDRESS1};
  1013dc:	00800284 	movi	r2,10
  1013e0:	e0bff705 	stb	r2,-36(fp)
  1013e4:	e03ff745 	stb	zero,-35(fp)
  1013e8:	e03ff785 	stb	zero,-34(fp)
  1013ec:	00800144 	movi	r2,5
  1013f0:	e0bff7c5 	stb	r2,-33(fp)
	unsigned char srcport1[] = {SRC_PORT1};
  1013f4:	e03ff805 	stb	zero,-32(fp)
  1013f8:	e03ff845 	stb	zero,-31(fp)
	unsigned char dstport1[] = {DST_PORT1};
  1013fc:	e03ff885 	stb	zero,-30(fp)
  101400:	e03ff8c5 	stb	zero,-29(fp)

	unsigned char ipsrc2[] = {IP_SRC_ADDRESS2};
  101404:	00bfeb04 	movi	r2,-84
  101408:	e0bff905 	stb	r2,-28(fp)
  10140c:	00800404 	movi	r2,16
  101410:	e0bff945 	stb	r2,-27(fp)
  101414:	008008c4 	movi	r2,35
  101418:	e0bff985 	stb	r2,-26(fp)
  10141c:	008000c4 	movi	r2,3
  101420:	e0bff9c5 	stb	r2,-25(fp)
	unsigned char ipdst2[] = {IP_DST_ADDRESS2};
  101424:	00bfeb04 	movi	r2,-84
  101428:	e0bffa05 	stb	r2,-24(fp)
  10142c:	00800404 	movi	r2,16
  101430:	e0bffa45 	stb	r2,-23(fp)
  101434:	00800904 	movi	r2,36
  101438:	e0bffa85 	stb	r2,-22(fp)
  10143c:	00800104 	movi	r2,4
  101440:	e0bffac5 	stb	r2,-21(fp)
	unsigned char srcport2[] = {SRC_PORT2};
  101444:	e03ffb05 	stb	zero,-20(fp)
  101448:	008005c4 	movi	r2,23
  10144c:	e0bffb45 	stb	r2,-19(fp)
	unsigned char dstport2[] = {DST_PORT2};
  101450:	e03ffb85 	stb	zero,-18(fp)
  101454:	00801404 	movi	r2,80
  101458:	e0bffbc5 	stb	r2,-17(fp)

	unsigned char ipsrc3[] = {IP_SRC_ADDRESS3};
  10145c:	00bfeb04 	movi	r2,-84
  101460:	e0bffc05 	stb	r2,-16(fp)
  101464:	00800404 	movi	r2,16
  101468:	e0bffc45 	stb	r2,-15(fp)
  10146c:	00800944 	movi	r2,37
  101470:	e0bffc85 	stb	r2,-14(fp)
  101474:	00800144 	movi	r2,5
  101478:	e0bffcc5 	stb	r2,-13(fp)
	unsigned char ipdst3[] = {IP_DST_ADDRESS3};
  10147c:	00bfeb04 	movi	r2,-84
  101480:	e0bffd05 	stb	r2,-12(fp)
  101484:	00800404 	movi	r2,16
  101488:	e0bffd45 	stb	r2,-11(fp)
  10148c:	00800984 	movi	r2,38
  101490:	e0bffd85 	stb	r2,-10(fp)
  101494:	00800104 	movi	r2,4
  101498:	e0bffdc5 	stb	r2,-9(fp)
	unsigned char srcport3[] = {SRC_PORT3};
  10149c:	e03ffe05 	stb	zero,-8(fp)
  1014a0:	008005c4 	movi	r2,23
  1014a4:	e0bffe45 	stb	r2,-7(fp)
	unsigned char dstport3[] = {DST_PORT3};
  1014a8:	e03ffe85 	stb	zero,-6(fp)
  1014ac:	00801404 	movi	r2,80
  1014b0:	e0bffec5 	stb	r2,-5(fp)

	listHead = AddTarget(listHead,0,ipsrc1,ipdst1,srcport1,dstport1);
  1014b4:	e0bff704 	addi	r2,fp,-36
  1014b8:	e0fff804 	addi	r3,fp,-32
  1014bc:	d8c00015 	stw	r3,0(sp)
  1014c0:	e0fff884 	addi	r3,fp,-30
  1014c4:	d8c00115 	stw	r3,4(sp)
  1014c8:	e13fff17 	ldw	r4,-4(fp)
  1014cc:	000b883a 	mov	r5,zero
  1014d0:	e1bff604 	addi	r6,fp,-40
  1014d4:	100f883a 	mov	r7,r2
  1014d8:	01015580 	call	101558 <AddTarget>
  1014dc:	e0bfff15 	stw	r2,-4(fp)
	listHead = AddTarget(listHead,1,ipsrc2,ipdst2,srcport2,dstport2);
  1014e0:	e0fff904 	addi	r3,fp,-28
  1014e4:	e0bffa04 	addi	r2,fp,-24
  1014e8:	e13ffb04 	addi	r4,fp,-20
  1014ec:	d9000015 	stw	r4,0(sp)
  1014f0:	e13ffb84 	addi	r4,fp,-18
  1014f4:	d9000115 	stw	r4,4(sp)
  1014f8:	e13fff17 	ldw	r4,-4(fp)
  1014fc:	01400044 	movi	r5,1
  101500:	180d883a 	mov	r6,r3
  101504:	100f883a 	mov	r7,r2
  101508:	01015580 	call	101558 <AddTarget>
  10150c:	e0bfff15 	stw	r2,-4(fp)
	listHead = AddTarget(listHead,2,ipsrc3,ipdst3,srcport3,dstport3);
  101510:	e0fffc04 	addi	r3,fp,-16
  101514:	e0bffd04 	addi	r2,fp,-12
  101518:	e13ffe04 	addi	r4,fp,-8
  10151c:	d9000015 	stw	r4,0(sp)
  101520:	e13ffe84 	addi	r4,fp,-6
  101524:	d9000115 	stw	r4,4(sp)
  101528:	e13fff17 	ldw	r4,-4(fp)
  10152c:	01400084 	movi	r5,2
  101530:	180d883a 	mov	r6,r3
  101534:	100f883a 	mov	r7,r2
  101538:	01015580 	call	101558 <AddTarget>
  10153c:	e0bfff15 	stw	r2,-4(fp)

	return listHead;
  101540:	e0bfff17 	ldw	r2,-4(fp)
}
  101544:	e037883a 	mov	sp,fp
  101548:	dfc00117 	ldw	ra,4(sp)
  10154c:	df000017 	ldw	fp,0(sp)
  101550:	dec00204 	addi	sp,sp,8
  101554:	f800283a 	ret

00101558 <AddTarget>:
Returns:		1 = match found
				0 = no matches
-------------------------------------------------------------------------------
*/

TARGET* AddTarget (TARGET* listHead, int targetNumber, unsigned char* srcHost,unsigned char* dstHost,  unsigned char* srcPort, unsigned char* dstPort) {
  101558:	defff404 	addi	sp,sp,-48
  10155c:	dfc00b15 	stw	ra,44(sp)
  101560:	df000a15 	stw	fp,40(sp)
  101564:	df000a04 	addi	fp,sp,40
  101568:	e13ffc15 	stw	r4,-16(fp)
  10156c:	e17ffd15 	stw	r5,-12(fp)
  101570:	e1bffe15 	stw	r6,-8(fp)
  101574:	e1ffff15 	stw	r7,-4(fp)
  static int lastTargetNumber = 0;
  TARGET* pWalker = listHead;
  101578:	e0bffc17 	ldw	r2,-16(fp)
  10157c:	e0bff615 	stw	r2,-40(fp)
  TARGET* newTarget = NULL;
  101580:	e03ffb15 	stw	zero,-20(fp)
  int i,j,k,m = 0;
  101584:	e03ffa15 	stw	zero,-24(fp)

  if (pWalker != NULL)
  101588:	e0bff617 	ldw	r2,-40(fp)
  10158c:	10000726 	beq	r2,zero,1015ac <AddTarget+0x54>
	   while (pWalker->nextTargetNumber != NULL)
  101590:	00000306 	br	1015a0 <AddTarget+0x48>
			 pWalker=pWalker->nextTargetNumber;
  101594:	e0bff617 	ldw	r2,-40(fp)
  101598:	10800417 	ldw	r2,16(r2)
  10159c:	e0bff615 	stw	r2,-40(fp)
  TARGET* pWalker = listHead;
  TARGET* newTarget = NULL;
  int i,j,k,m = 0;

  if (pWalker != NULL)
	   while (pWalker->nextTargetNumber != NULL)
  1015a0:	e0bff617 	ldw	r2,-40(fp)
  1015a4:	10800417 	ldw	r2,16(r2)
  1015a8:	103ffa1e 	bne	r2,zero,101594 <black_to_red_frame+0xfe101594>
			 pWalker=pWalker->nextTargetNumber;

  newTarget = (TARGET*) malloc(sizeof(TARGET));
  1015ac:	01000504 	movi	r4,20
  1015b0:	0103f440 	call	103f44 <malloc>
  1015b4:	e0bffb15 	stw	r2,-20(fp)

  //Initialize new node
  newTarget->targetNumber = ++lastTargetNumber;
  1015b8:	d0a71817 	ldw	r2,-25504(gp)
  1015bc:	10800044 	addi	r2,r2,1
  1015c0:	d0a71815 	stw	r2,-25504(gp)
  1015c4:	d0e71817 	ldw	r3,-25504(gp)
  1015c8:	e0bffb17 	ldw	r2,-20(fp)
  1015cc:	10c00015 	stw	r3,0(r2)

  for(i=0;i<4;i++)
  1015d0:	e03ff715 	stw	zero,-36(fp)
  1015d4:	00000c06 	br	101608 <AddTarget+0xb0>
	   newTarget->srcHost[i] = srcHost[i];
  1015d8:	e0bff717 	ldw	r2,-36(fp)
  1015dc:	e0fffe17 	ldw	r3,-8(fp)
  1015e0:	1885883a 	add	r2,r3,r2
  1015e4:	10c00003 	ldbu	r3,0(r2)
  1015e8:	e13ffb17 	ldw	r4,-20(fp)
  1015ec:	e0bff717 	ldw	r2,-36(fp)
  1015f0:	2085883a 	add	r2,r4,r2
  1015f4:	10800104 	addi	r2,r2,4
  1015f8:	10c00005 	stb	r3,0(r2)
  newTarget = (TARGET*) malloc(sizeof(TARGET));

  //Initialize new node
  newTarget->targetNumber = ++lastTargetNumber;

  for(i=0;i<4;i++)
  1015fc:	e0bff717 	ldw	r2,-36(fp)
  101600:	10800044 	addi	r2,r2,1
  101604:	e0bff715 	stw	r2,-36(fp)
  101608:	e0bff717 	ldw	r2,-36(fp)
  10160c:	10800110 	cmplti	r2,r2,4
  101610:	103ff11e 	bne	r2,zero,1015d8 <black_to_red_frame+0xfe1015d8>
	   newTarget->srcHost[i] = srcHost[i];
  for(j=0;j<4;j++)
  101614:	e03ff815 	stw	zero,-32(fp)
  101618:	00000c06 	br	10164c <AddTarget+0xf4>
	   newTarget->dstHost[j] = dstHost[j];
  10161c:	e0bff817 	ldw	r2,-32(fp)
  101620:	e0ffff17 	ldw	r3,-4(fp)
  101624:	1885883a 	add	r2,r3,r2
  101628:	10c00003 	ldbu	r3,0(r2)
  10162c:	e13ffb17 	ldw	r4,-20(fp)
  101630:	e0bff817 	ldw	r2,-32(fp)
  101634:	2085883a 	add	r2,r4,r2
  101638:	10800204 	addi	r2,r2,8
  10163c:	10c00005 	stb	r3,0(r2)
  //Initialize new node
  newTarget->targetNumber = ++lastTargetNumber;

  for(i=0;i<4;i++)
	   newTarget->srcHost[i] = srcHost[i];
  for(j=0;j<4;j++)
  101640:	e0bff817 	ldw	r2,-32(fp)
  101644:	10800044 	addi	r2,r2,1
  101648:	e0bff815 	stw	r2,-32(fp)
  10164c:	e0bff817 	ldw	r2,-32(fp)
  101650:	10800110 	cmplti	r2,r2,4
  101654:	103ff11e 	bne	r2,zero,10161c <black_to_red_frame+0xfe10161c>
	   newTarget->dstHost[j] = dstHost[j];
  for(k=0;k<2;k++)
  101658:	e03ff915 	stw	zero,-28(fp)
  10165c:	00000c06 	br	101690 <AddTarget+0x138>
	   newTarget->srcPort[k] = srcPort[k];
  101660:	e0bff917 	ldw	r2,-28(fp)
  101664:	e0c00217 	ldw	r3,8(fp)
  101668:	1885883a 	add	r2,r3,r2
  10166c:	10c00003 	ldbu	r3,0(r2)
  101670:	e13ffb17 	ldw	r4,-20(fp)
  101674:	e0bff917 	ldw	r2,-28(fp)
  101678:	2085883a 	add	r2,r4,r2
  10167c:	10800304 	addi	r2,r2,12
  101680:	10c00005 	stb	r3,0(r2)

  for(i=0;i<4;i++)
	   newTarget->srcHost[i] = srcHost[i];
  for(j=0;j<4;j++)
	   newTarget->dstHost[j] = dstHost[j];
  for(k=0;k<2;k++)
  101684:	e0bff917 	ldw	r2,-28(fp)
  101688:	10800044 	addi	r2,r2,1
  10168c:	e0bff915 	stw	r2,-28(fp)
  101690:	e0bff917 	ldw	r2,-28(fp)
  101694:	10800090 	cmplti	r2,r2,2
  101698:	103ff11e 	bne	r2,zero,101660 <black_to_red_frame+0xfe101660>
	   newTarget->srcPort[k] = srcPort[k];
  for(m=0;m<2;m++)
  10169c:	e03ffa15 	stw	zero,-24(fp)
  1016a0:	00000c06 	br	1016d4 <AddTarget+0x17c>
	   newTarget->dstPort[m] = dstPort[m];
  1016a4:	e0bffa17 	ldw	r2,-24(fp)
  1016a8:	e0c00317 	ldw	r3,12(fp)
  1016ac:	1885883a 	add	r2,r3,r2
  1016b0:	10c00003 	ldbu	r3,0(r2)
  1016b4:	e13ffb17 	ldw	r4,-20(fp)
  1016b8:	e0bffa17 	ldw	r2,-24(fp)
  1016bc:	2085883a 	add	r2,r4,r2
  1016c0:	10800304 	addi	r2,r2,12
  1016c4:	10c00085 	stb	r3,2(r2)
	   newTarget->srcHost[i] = srcHost[i];
  for(j=0;j<4;j++)
	   newTarget->dstHost[j] = dstHost[j];
  for(k=0;k<2;k++)
	   newTarget->srcPort[k] = srcPort[k];
  for(m=0;m<2;m++)
  1016c8:	e0bffa17 	ldw	r2,-24(fp)
  1016cc:	10800044 	addi	r2,r2,1
  1016d0:	e0bffa15 	stw	r2,-24(fp)
  1016d4:	e0bffa17 	ldw	r2,-24(fp)
  1016d8:	10800090 	cmplti	r2,r2,2
  1016dc:	103ff11e 	bne	r2,zero,1016a4 <black_to_red_frame+0xfe1016a4>
	   newTarget->dstPort[m] = dstPort[m];

  newTarget->nextTargetNumber = NULL;
  1016e0:	e0bffb17 	ldw	r2,-20(fp)
  1016e4:	10000415 	stw	zero,16(r2)

  //Link new node in list and return head if the list is not empty
  if (pWalker != NULL)
  1016e8:	e0bff617 	ldw	r2,-40(fp)
  1016ec:	10000526 	beq	r2,zero,101704 <AddTarget+0x1ac>
  {
	  pWalker->nextTargetNumber = newTarget;
  1016f0:	e0bff617 	ldw	r2,-40(fp)
  1016f4:	e0fffb17 	ldw	r3,-20(fp)
  1016f8:	10c00415 	stw	r3,16(r2)
	  return listHead;
  1016fc:	e0bffc17 	ldw	r2,-16(fp)
  101700:	00000106 	br	101708 <AddTarget+0x1b0>
  }
  //Return only node if list is empty
  else
	  return newTarget;
  101704:	e0bffb17 	ldw	r2,-20(fp)
}
  101708:	e037883a 	mov	sp,fp
  10170c:	dfc00117 	ldw	ra,4(sp)
  101710:	df000017 	ldw	fp,0(sp)
  101714:	dec00204 	addi	sp,sp,8
  101718:	f800283a 	ret

0010171c <PrintTargetList>:

Returns:		Target pointer to the first element in the linked list.
-------------------------------------------------------------------------------
*/

TARGET* PrintTargetList (TARGET* listHead) {
  10171c:	defffb04 	addi	sp,sp,-20
  101720:	dfc00415 	stw	ra,16(sp)
  101724:	df000315 	stw	fp,12(sp)
  101728:	df000304 	addi	fp,sp,12
  10172c:	e13fff15 	stw	r4,-4(fp)

TARGET* pWalker=listHead;
  101730:	e0bfff17 	ldw	r2,-4(fp)
  101734:	e0bffd15 	stw	r2,-12(fp)
int i=0;
  101738:	e03ffe15 	stw	zero,-8(fp)

	while(pWalker != NULL) {
  10173c:	00006706 	br	1018dc <PrintTargetList+0x1c0>
		printf("Target Number: %d\n", pWalker->targetNumber);
  101740:	e0bffd17 	ldw	r2,-12(fp)
  101744:	10800017 	ldw	r2,0(r2)
  101748:	01000474 	movhi	r4,17
  10174c:	2117f904 	addi	r4,r4,24548
  101750:	100b883a 	mov	r5,r2
  101754:	010475c0 	call	10475c <printf>

		printf("Source Address: ");
  101758:	01000474 	movhi	r4,17
  10175c:	2117fe04 	addi	r4,r4,24568
  101760:	010475c0 	call	10475c <printf>
		for(i=0;i<4;i++)
  101764:	e03ffe15 	stw	zero,-8(fp)
  101768:	00000d06 	br	1017a0 <PrintTargetList+0x84>
			printf("0x%x",pWalker->srcHost[i]);
  10176c:	e0fffd17 	ldw	r3,-12(fp)
  101770:	e0bffe17 	ldw	r2,-8(fp)
  101774:	1885883a 	add	r2,r3,r2
  101778:	10800104 	addi	r2,r2,4
  10177c:	10800003 	ldbu	r2,0(r2)
  101780:	10803fcc 	andi	r2,r2,255
  101784:	01000474 	movhi	r4,17
  101788:	21180304 	addi	r4,r4,24588
  10178c:	100b883a 	mov	r5,r2
  101790:	010475c0 	call	10475c <printf>

	while(pWalker != NULL) {
		printf("Target Number: %d\n", pWalker->targetNumber);

		printf("Source Address: ");
		for(i=0;i<4;i++)
  101794:	e0bffe17 	ldw	r2,-8(fp)
  101798:	10800044 	addi	r2,r2,1
  10179c:	e0bffe15 	stw	r2,-8(fp)
  1017a0:	e0bffe17 	ldw	r2,-8(fp)
  1017a4:	10800110 	cmplti	r2,r2,4
  1017a8:	103ff01e 	bne	r2,zero,10176c <black_to_red_frame+0xfe10176c>
			printf("0x%x",pWalker->srcHost[i]);
		printf("\n");
  1017ac:	01000284 	movi	r4,10
  1017b0:	01047a00 	call	1047a0 <putchar>

		printf("Destination Address: ");
  1017b4:	01000474 	movhi	r4,17
  1017b8:	21180504 	addi	r4,r4,24596
  1017bc:	010475c0 	call	10475c <printf>
		for(i=0;i<4;i++)
  1017c0:	e03ffe15 	stw	zero,-8(fp)
  1017c4:	00000d06 	br	1017fc <PrintTargetList+0xe0>
			printf("0x%x", pWalker->dstHost[i]);
  1017c8:	e0fffd17 	ldw	r3,-12(fp)
  1017cc:	e0bffe17 	ldw	r2,-8(fp)
  1017d0:	1885883a 	add	r2,r3,r2
  1017d4:	10800204 	addi	r2,r2,8
  1017d8:	10800003 	ldbu	r2,0(r2)
  1017dc:	10803fcc 	andi	r2,r2,255
  1017e0:	01000474 	movhi	r4,17
  1017e4:	21180304 	addi	r4,r4,24588
  1017e8:	100b883a 	mov	r5,r2
  1017ec:	010475c0 	call	10475c <printf>
		for(i=0;i<4;i++)
			printf("0x%x",pWalker->srcHost[i]);
		printf("\n");

		printf("Destination Address: ");
		for(i=0;i<4;i++)
  1017f0:	e0bffe17 	ldw	r2,-8(fp)
  1017f4:	10800044 	addi	r2,r2,1
  1017f8:	e0bffe15 	stw	r2,-8(fp)
  1017fc:	e0bffe17 	ldw	r2,-8(fp)
  101800:	10800110 	cmplti	r2,r2,4
  101804:	103ff01e 	bne	r2,zero,1017c8 <black_to_red_frame+0xfe1017c8>
			printf("0x%x", pWalker->dstHost[i]);
		printf("\n");
  101808:	01000284 	movi	r4,10
  10180c:	01047a00 	call	1047a0 <putchar>

		printf("Source Port: ");
  101810:	01000474 	movhi	r4,17
  101814:	21180b04 	addi	r4,r4,24620
  101818:	010475c0 	call	10475c <printf>
		for(i=0;i<2;i++)
  10181c:	e03ffe15 	stw	zero,-8(fp)
  101820:	00000d06 	br	101858 <PrintTargetList+0x13c>
			printf("0x%x", pWalker->srcPort[i]);
  101824:	e0fffd17 	ldw	r3,-12(fp)
  101828:	e0bffe17 	ldw	r2,-8(fp)
  10182c:	1885883a 	add	r2,r3,r2
  101830:	10800304 	addi	r2,r2,12
  101834:	10800003 	ldbu	r2,0(r2)
  101838:	10803fcc 	andi	r2,r2,255
  10183c:	01000474 	movhi	r4,17
  101840:	21180304 	addi	r4,r4,24588
  101844:	100b883a 	mov	r5,r2
  101848:	010475c0 	call	10475c <printf>
		for(i=0;i<4;i++)
			printf("0x%x", pWalker->dstHost[i]);
		printf("\n");

		printf("Source Port: ");
		for(i=0;i<2;i++)
  10184c:	e0bffe17 	ldw	r2,-8(fp)
  101850:	10800044 	addi	r2,r2,1
  101854:	e0bffe15 	stw	r2,-8(fp)
  101858:	e0bffe17 	ldw	r2,-8(fp)
  10185c:	10800090 	cmplti	r2,r2,2
  101860:	103ff01e 	bne	r2,zero,101824 <black_to_red_frame+0xfe101824>
			printf("0x%x", pWalker->srcPort[i]);
		printf("\n");
  101864:	01000284 	movi	r4,10
  101868:	01047a00 	call	1047a0 <putchar>

		printf("Destination Port: ");
  10186c:	01000474 	movhi	r4,17
  101870:	21180f04 	addi	r4,r4,24636
  101874:	010475c0 	call	10475c <printf>
		for(i=0;i<2;i++)
  101878:	e03ffe15 	stw	zero,-8(fp)
  10187c:	00000d06 	br	1018b4 <PrintTargetList+0x198>
			printf("0x%x", pWalker->dstPort[i]);
  101880:	e0fffd17 	ldw	r3,-12(fp)
  101884:	e0bffe17 	ldw	r2,-8(fp)
  101888:	1885883a 	add	r2,r3,r2
  10188c:	10800304 	addi	r2,r2,12
  101890:	10800083 	ldbu	r2,2(r2)
  101894:	10803fcc 	andi	r2,r2,255
  101898:	01000474 	movhi	r4,17
  10189c:	21180304 	addi	r4,r4,24588
  1018a0:	100b883a 	mov	r5,r2
  1018a4:	010475c0 	call	10475c <printf>
		for(i=0;i<2;i++)
			printf("0x%x", pWalker->srcPort[i]);
		printf("\n");

		printf("Destination Port: ");
		for(i=0;i<2;i++)
  1018a8:	e0bffe17 	ldw	r2,-8(fp)
  1018ac:	10800044 	addi	r2,r2,1
  1018b0:	e0bffe15 	stw	r2,-8(fp)
  1018b4:	e0bffe17 	ldw	r2,-8(fp)
  1018b8:	10800090 	cmplti	r2,r2,2
  1018bc:	103ff01e 	bne	r2,zero,101880 <black_to_red_frame+0xfe101880>
			printf("0x%x", pWalker->dstPort[i]);
		printf("\n");
  1018c0:	01000284 	movi	r4,10
  1018c4:	01047a00 	call	1047a0 <putchar>

		pWalker=pWalker->nextTargetNumber;
  1018c8:	e0bffd17 	ldw	r2,-12(fp)
  1018cc:	10800417 	ldw	r2,16(r2)
  1018d0:	e0bffd15 	stw	r2,-12(fp)

		printf("\n");
  1018d4:	01000284 	movi	r4,10
  1018d8:	01047a00 	call	1047a0 <putchar>
TARGET* PrintTargetList (TARGET* listHead) {

TARGET* pWalker=listHead;
int i=0;

	while(pWalker != NULL) {
  1018dc:	e0bffd17 	ldw	r2,-12(fp)
  1018e0:	103f971e 	bne	r2,zero,101740 <black_to_red_frame+0xfe101740>
		pWalker=pWalker->nextTargetNumber;

		printf("\n");
	}

return listHead;
  1018e4:	e0bfff17 	ldw	r2,-4(fp)
}
  1018e8:	e037883a 	mov	sp,fp
  1018ec:	dfc00117 	ldw	ra,4(sp)
  1018f0:	df000017 	ldw	fp,0(sp)
  1018f4:	dec00204 	addi	sp,sp,8
  1018f8:	f800283a 	ret

001018fc <initialize_fifo>:
// details.                                                     //
//                                                              //
----------------------------------------------------------------*/
#include "circular_fifo.h"

void initialize_fifo(struct FIFO* myFIFO, uint mySize){
  1018fc:	defffd04 	addi	sp,sp,-12
  101900:	df000215 	stw	fp,8(sp)
  101904:	df000204 	addi	fp,sp,8
  101908:	e13ffe15 	stw	r4,-8(fp)
  10190c:	e17fff15 	stw	r5,-4(fp)
	myFIFO->size = mySize;
  101910:	e0bffe17 	ldw	r2,-8(fp)
  101914:	e0ffff17 	ldw	r3,-4(fp)
  101918:	10c00015 	stw	r3,0(r2)
	myFIFO->ReadPos = 0;
  10191c:	e0bffe17 	ldw	r2,-8(fp)
  101920:	10000215 	stw	zero,8(r2)
	myFIFO->WritePos = 0;
  101924:	e0bffe17 	ldw	r2,-8(fp)
  101928:	10000315 	stw	zero,12(r2)
	myFIFO->available = mySize -1;
  10192c:	e0bfff17 	ldw	r2,-4(fp)
  101930:	10ffffc4 	addi	r3,r2,-1
  101934:	e0bffe17 	ldw	r2,-8(fp)
  101938:	10c00115 	stw	r3,4(r2)
}
  10193c:	e037883a 	mov	sp,fp
  101940:	df000017 	ldw	fp,0(sp)
  101944:	dec00104 	addi	sp,sp,4
  101948:	f800283a 	ret

0010194c <available>:

unsigned char available(struct FIFO myFIFO){
  10194c:	defffb04 	addi	sp,sp,-20
  101950:	df000415 	stw	fp,16(sp)
  101954:	df000404 	addi	fp,sp,16
  101958:	e13ffc15 	stw	r4,-16(fp)
  10195c:	e17ffd15 	stw	r5,-12(fp)
  101960:	e1bffe15 	stw	r6,-8(fp)
  101964:	e1ffff15 	stw	r7,-4(fp)
	//If ReadPos == WritePos, the queue is empty.
	if (myFIFO.ReadPos == myFIFO.WritePos){
  101968:	e0fffe17 	ldw	r3,-8(fp)
  10196c:	e0bfff17 	ldw	r2,-4(fp)
  101970:	1880031e 	bne	r3,r2,101980 <available+0x34>
		return myFIFO.size - 1;
  101974:	e0bffc17 	ldw	r2,-16(fp)
  101978:	10bfffc4 	addi	r2,r2,-1
  10197c:	00001706 	br	1019dc <available+0x90>
	} else if (myFIFO.WritePos > myFIFO.ReadPos) {
  101980:	e0bfff17 	ldw	r2,-4(fp)
  101984:	e0fffe17 	ldw	r3,-8(fp)
  101988:	1880092e 	bgeu	r3,r2,1019b0 <available+0x64>
		return myFIFO.size - (1 + myFIFO.WritePos - myFIFO.ReadPos);
  10198c:	e0bffc17 	ldw	r2,-16(fp)
  101990:	1007883a 	mov	r3,r2
  101994:	e0bffe17 	ldw	r2,-8(fp)
  101998:	1009883a 	mov	r4,r2
  10199c:	e0bfff17 	ldw	r2,-4(fp)
  1019a0:	2085c83a 	sub	r2,r4,r2
  1019a4:	1885883a 	add	r2,r3,r2
  1019a8:	10bfffc4 	addi	r2,r2,-1
  1019ac:	00000b06 	br	1019dc <available+0x90>
	} else {
		return myFIFO.size - (1 + myFIFO.WritePos + myFIFO.size - myFIFO.ReadPos);
  1019b0:	e0bffc17 	ldw	r2,-16(fp)
  1019b4:	1007883a 	mov	r3,r2
  1019b8:	e0bffe17 	ldw	r2,-8(fp)
  1019bc:	1009883a 	mov	r4,r2
  1019c0:	e0bfff17 	ldw	r2,-4(fp)
  1019c4:	100b883a 	mov	r5,r2
  1019c8:	e0bffc17 	ldw	r2,-16(fp)
  1019cc:	2885883a 	add	r2,r5,r2
  1019d0:	2085c83a 	sub	r2,r4,r2
  1019d4:	1885883a 	add	r2,r3,r2
  1019d8:	10bfffc4 	addi	r2,r2,-1
	}
	//Otherwise, the queue currently has WritePos - ReadPos elements in it if WritePos > ReadPos,
	//and WritePos + SIZE - ReadPos elements if WritePos < ReadPos.
}
  1019dc:	e037883a 	mov	sp,fp
  1019e0:	df000017 	ldw	fp,0(sp)
  1019e4:	dec00104 	addi	sp,sp,4
  1019e8:	f800283a 	ret

001019ec <add_to_fifo>:

void add_to_fifo(struct FIFO* myFIFO){
  1019ec:	defffd04 	addi	sp,sp,-12
  1019f0:	dfc00215 	stw	ra,8(sp)
  1019f4:	df000115 	stw	fp,4(sp)
  1019f8:	df000104 	addi	fp,sp,4
  1019fc:	e13fff15 	stw	r4,-4(fp)
	myFIFO->WritePos = (myFIFO->WritePos + 1) % myFIFO->size;
  101a00:	e0bfff17 	ldw	r2,-4(fp)
  101a04:	10800317 	ldw	r2,12(r2)
  101a08:	10c00044 	addi	r3,r2,1
  101a0c:	e0bfff17 	ldw	r2,-4(fp)
  101a10:	10800017 	ldw	r2,0(r2)
  101a14:	1809883a 	mov	r4,r3
  101a18:	100b883a 	mov	r5,r2
  101a1c:	0103f140 	call	103f14 <__umodsi3>
  101a20:	1007883a 	mov	r3,r2
  101a24:	e0bfff17 	ldw	r2,-4(fp)
  101a28:	10c00315 	stw	r3,12(r2)
	myFIFO->available -= 1;
  101a2c:	e0bfff17 	ldw	r2,-4(fp)
  101a30:	10800117 	ldw	r2,4(r2)
  101a34:	10ffffc4 	addi	r3,r2,-1
  101a38:	e0bfff17 	ldw	r2,-4(fp)
  101a3c:	10c00115 	stw	r3,4(r2)
}
  101a40:	e037883a 	mov	sp,fp
  101a44:	dfc00117 	ldw	ra,4(sp)
  101a48:	df000017 	ldw	fp,0(sp)
  101a4c:	dec00204 	addi	sp,sp,8
  101a50:	f800283a 	ret

00101a54 <remove_from_fifo>:

void remove_from_fifo(struct FIFO* myFIFO){
  101a54:	defffd04 	addi	sp,sp,-12
  101a58:	dfc00215 	stw	ra,8(sp)
  101a5c:	df000115 	stw	fp,4(sp)
  101a60:	df000104 	addi	fp,sp,4
  101a64:	e13fff15 	stw	r4,-4(fp)
	myFIFO->ReadPos = (myFIFO->ReadPos + 1) % myFIFO->size;
  101a68:	e0bfff17 	ldw	r2,-4(fp)
  101a6c:	10800217 	ldw	r2,8(r2)
  101a70:	10c00044 	addi	r3,r2,1
  101a74:	e0bfff17 	ldw	r2,-4(fp)
  101a78:	10800017 	ldw	r2,0(r2)
  101a7c:	1809883a 	mov	r4,r3
  101a80:	100b883a 	mov	r5,r2
  101a84:	0103f140 	call	103f14 <__umodsi3>
  101a88:	1007883a 	mov	r3,r2
  101a8c:	e0bfff17 	ldw	r2,-4(fp)
  101a90:	10c00215 	stw	r3,8(r2)
	myFIFO->available += 1;
  101a94:	e0bfff17 	ldw	r2,-4(fp)
  101a98:	10800117 	ldw	r2,4(r2)
  101a9c:	10c00044 	addi	r3,r2,1
  101aa0:	e0bfff17 	ldw	r2,-4(fp)
  101aa4:	10c00115 	stw	r3,4(r2)
}
  101aa8:	e037883a 	mov	sp,fp
  101aac:	dfc00117 	ldw	ra,4(sp)
  101ab0:	df000017 	ldw	fp,0(sp)
  101ab4:	dec00204 	addi	sp,sp,8
  101ab8:	f800283a 	ret

00101abc <hexInit>:
// details.                                                     //
//                                                              //
----------------------------------------------------------------*/
#include "hex.h"

unsigned int hexInit(HEX_t* hex){
  101abc:	defffc04 	addi	sp,sp,-16
  101ac0:	dfc00315 	stw	ra,12(sp)
  101ac4:	df000215 	stw	fp,8(sp)
  101ac8:	df000204 	addi	fp,sp,8
  101acc:	e13fff15 	stw	r4,-4(fp)
	unsigned short temp;
	hex->redFrames = 0x1234;
  101ad0:	e0bfff17 	ldw	r2,-4(fp)
  101ad4:	00c48d04 	movi	r3,4660
  101ad8:	10c0008d 	sth	r3,2(r2)
	temp = hex->redFrames;
  101adc:	e0bfff17 	ldw	r2,-4(fp)
  101ae0:	1080008b 	ldhu	r2,2(r2)
  101ae4:	e0bffe0d 	sth	r2,-8(fp)
	if (temp == 0x1234){
  101ae8:	e0bffe0b 	ldhu	r2,-8(fp)
  101aec:	10848d18 	cmpnei	r2,r2,4660
  101af0:	1000051e 	bne	r2,zero,101b08 <hexInit+0x4c>
		printf("[hex.c]\tInitialize HEX (SUCCESS)\n");
  101af4:	01000474 	movhi	r4,17
  101af8:	21181404 	addi	r4,r4,24656
  101afc:	01048740 	call	104874 <puts>
		return 0;
  101b00:	0005883a 	mov	r2,zero
  101b04:	00000406 	br	101b18 <hexInit+0x5c>
	} else {
		printf("[hex.c]\tInitialize HEX (FAILURE)\n");
  101b08:	01000474 	movhi	r4,17
  101b0c:	21181d04 	addi	r4,r4,24692
  101b10:	01048740 	call	104874 <puts>
		return 1;
  101b14:	00800044 	movi	r2,1
	}
}
  101b18:	e037883a 	mov	sp,fp
  101b1c:	dfc00117 	ldw	ra,4(sp)
  101b20:	df000017 	ldw	fp,0(sp)
  101b24:	dec00204 	addi	sp,sp,8
  101b28:	f800283a 	ret

00101b2c <lcdInit>:
#include <stdio.h>
#include "system.h"
#include <altera_up_avalon_character_lcd.h>
#include "Target_Constants.h"

unsigned int lcdInit(alt_up_character_lcd_dev* lcd){
  101b2c:	deffe604 	addi	sp,sp,-104
  101b30:	dfc01915 	stw	ra,100(sp)
  101b34:	df001815 	stw	fp,96(sp)
  101b38:	df001804 	addi	fp,sp,96
  101b3c:	e13fff15 	stw	r4,-4(fp)
	char* string[20];
	lcd = alt_up_character_lcd_open_dev("/dev/lcd");
  101b40:	01000474 	movhi	r4,17
  101b44:	21182604 	addi	r4,r4,24728
  101b48:	01151bc0 	call	1151bc <alt_up_character_lcd_open_dev>
  101b4c:	e0bfea15 	stw	r2,-88(fp)
	if (lcd == NULL){
  101b50:	e0bfea17 	ldw	r2,-88(fp)
  101b54:	1000051e 	bne	r2,zero,101b6c <lcdInit+0x40>
		printf("[lcd.c]\tInitialize interface (FAILURE)\n");
  101b58:	01000474 	movhi	r4,17
  101b5c:	21182904 	addi	r4,r4,24740
  101b60:	01048740 	call	104874 <puts>
		return 1;
  101b64:	00800044 	movi	r2,1
  101b68:	00002806 	br	101c0c <lcdInit+0xe0>
	}
	alt_up_character_lcd_init (lcd);
  101b6c:	e13fea17 	ldw	r4,-88(fp)
  101b70:	01151ac0 	call	1151ac <alt_up_character_lcd_init>
	alt_up_character_lcd_cursor_off(lcd);
  101b74:	e13fea17 	ldw	r4,-88(fp)
  101b78:	011535c0 	call	11535c <alt_up_character_lcd_cursor_off>
	sprintf(string, "%d.%d.%d.%d", IP_SRC_ADDRESS1);
  101b7c:	e0bfeb04 	addi	r2,fp,-84
  101b80:	d8000015 	stw	zero,0(sp)
  101b84:	00c00144 	movi	r3,5
  101b88:	d8c00115 	stw	r3,4(sp)
  101b8c:	1009883a 	mov	r4,r2
  101b90:	01400474 	movhi	r5,17
  101b94:	29583304 	addi	r5,r5,24780
  101b98:	01802b04 	movi	r6,172
  101b9c:	01c00404 	movi	r7,16
  101ba0:	01049440 	call	104944 <sprintf>
	alt_up_character_lcd_string(lcd, string);
  101ba4:	e0bfeb04 	addi	r2,fp,-84
  101ba8:	e13fea17 	ldw	r4,-88(fp)
  101bac:	100b883a 	mov	r5,r2
  101bb0:	01151e80 	call	1151e8 <alt_up_character_lcd_string>
	alt_up_character_lcd_set_cursor_pos(lcd, 0, 1);
  101bb4:	e13fea17 	ldw	r4,-88(fp)
  101bb8:	000b883a 	mov	r5,zero
  101bbc:	01800044 	movi	r6,1
  101bc0:	011523c0 	call	11523c <alt_up_character_lcd_set_cursor_pos>
	sprintf(string, "%d.%d.%d.%d", IP_DST_ADDRESS1);
  101bc4:	e0bfeb04 	addi	r2,fp,-84
  101bc8:	d8000015 	stw	zero,0(sp)
  101bcc:	00c00144 	movi	r3,5
  101bd0:	d8c00115 	stw	r3,4(sp)
  101bd4:	1009883a 	mov	r4,r2
  101bd8:	01400474 	movhi	r5,17
  101bdc:	29583304 	addi	r5,r5,24780
  101be0:	01800284 	movi	r6,10
  101be4:	000f883a 	mov	r7,zero
  101be8:	01049440 	call	104944 <sprintf>
	alt_up_character_lcd_string(lcd, string);
  101bec:	e0bfeb04 	addi	r2,fp,-84
  101bf0:	e13fea17 	ldw	r4,-88(fp)
  101bf4:	100b883a 	mov	r5,r2
  101bf8:	01151e80 	call	1151e8 <alt_up_character_lcd_string>
	printf("[lcd.c]\tInitialize interface (SUCCESS)\n");
  101bfc:	01000474 	movhi	r4,17
  101c00:	21183604 	addi	r4,r4,24792
  101c04:	01048740 	call	104874 <puts>
	return 0;
  101c08:	0005883a 	mov	r2,zero


}
  101c0c:	e037883a 	mov	sp,fp
  101c10:	dfc00117 	ldw	ra,4(sp)
  101c14:	df000017 	ldw	fp,0(sp)
  101c18:	dec00204 	addi	sp,sp,8
  101c1c:	f800283a 	ret

00101c20 <ledInit>:
 // details.                                                     //
 //                                                              //
 ----------------------------------------------------------------*/
#include "led.h"

unsigned char ledInit(volatile LED_t* targetLED) {
  101c20:	defffd04 	addi	sp,sp,-12
  101c24:	dfc00215 	stw	ra,8(sp)
  101c28:	df000115 	stw	fp,4(sp)
  101c2c:	df000104 	addi	fp,sp,4
  101c30:	e13fff15 	stw	r4,-4(fp)

  targetLED->DATA = 0x1;
  101c34:	e0bfff17 	ldw	r2,-4(fp)
  101c38:	00c00044 	movi	r3,1
  101c3c:	10c00015 	stw	r3,0(r2)
  if (targetLED->DATA == 0x1) {
  101c40:	e0bfff17 	ldw	r2,-4(fp)
  101c44:	10800017 	ldw	r2,0(r2)
  101c48:	10800058 	cmpnei	r2,r2,1
  101c4c:	1000051e 	bne	r2,zero,101c64 <ledInit+0x44>
    printf("[led.c]\tInitialize leds (SUCCESS)\n");
  101c50:	01000474 	movhi	r4,17
  101c54:	21184004 	addi	r4,r4,24832
  101c58:	01048740 	call	104874 <puts>
    return 0;
  101c5c:	0005883a 	mov	r2,zero
  101c60:	00000406 	br	101c74 <ledInit+0x54>
  } else {
    printf("[led.c]\tInitialize leds (FAILURE)\n");
  101c64:	01000474 	movhi	r4,17
  101c68:	21184904 	addi	r4,r4,24868
  101c6c:	01048740 	call	104874 <puts>
    return 1;
  101c70:	00800044 	movi	r2,1
  }
}
  101c74:	e037883a 	mov	sp,fp
  101c78:	dfc00117 	ldw	ra,4(sp)
  101c7c:	df000017 	ldw	fp,0(sp)
  101c80:	dec00204 	addi	sp,sp,8
  101c84:	f800283a 	ret

00101c88 <macInit>:
----------------------------------------------------------------*/
#include "phy.h"
#include "sw.h"
#include "mac.h"

unsigned char macInit(volatile MAC_t* targetMAC, unsigned char SW_Status){
  101c88:	defffb04 	addi	sp,sp,-20
  101c8c:	dfc00415 	stw	ra,16(sp)
  101c90:	df000315 	stw	fp,12(sp)
  101c94:	df000304 	addi	fp,sp,12
  101c98:	e13ffe15 	stw	r4,-8(fp)
  101c9c:	2805883a 	mov	r2,r5
  101ca0:	e0bfff05 	stb	r2,-4(fp)
	  unsigned short control = 0;
  101ca4:	e03ffd0d 	sth	zero,-12(fp)
	  switch (SW_Status & SPD_MSK) {
  101ca8:	e0bfff03 	ldbu	r2,-4(fp)
  101cac:	108000cc 	andi	r2,r2,3
  101cb0:	10c00060 	cmpeqi	r3,r2,1
  101cb4:	1800321e 	bne	r3,zero,101d80 <macInit+0xf8>
  101cb8:	10c000a0 	cmpeqi	r3,r2,2
  101cbc:	1800621e 	bne	r3,zero,101e48 <macInit+0x1c0>
  101cc0:	1000921e 	bne	r2,zero,101f0c <macInit+0x284>
	    case 0: //Speed 10 Selected
	      printf("[mac.c]\tSpeed 10 selected\n");
  101cc4:	01000474 	movhi	r4,17
  101cc8:	21185204 	addi	r4,r4,24904
  101ccc:	01048740 	call	104874 <puts>
	      //Register 4
	        //Advertisement control register
	          control = targetMAC->mdio_PHY_ACR;
  101cd0:	e0bffe17 	ldw	r2,-8(fp)
  101cd4:	10808417 	ldw	r2,528(r2)
  101cd8:	e0bffd0d 	sth	r2,-12(fp)
	        //Don't advertise anything
	          control &= ~(ADVERTISE_10HALF | ADVERTISE_10FULL | ADVERTISE_100HALF | ADVERTISE_100FULL);
  101cdc:	e0fffd0b 	ldhu	r3,-12(fp)
  101ce0:	00bf87c4 	movi	r2,-481
  101ce4:	1884703a 	and	r2,r3,r2
  101ce8:	e0bffd0d 	sth	r2,-12(fp)
	        //Advertise 10mbps
	          control |= (ADVERTISE_10HALF | ADVERTISE_10FULL);
  101cec:	e0bffd0b 	ldhu	r2,-12(fp)
  101cf0:	10801814 	ori	r2,r2,96
  101cf4:	e0bffd0d 	sth	r2,-12(fp)
	        //Write changes
	          targetMAC->mdio_PHY_ACR = control;
  101cf8:	e0fffd0b 	ldhu	r3,-12(fp)
  101cfc:	e0bffe17 	ldw	r2,-8(fp)
  101d00:	10c08415 	stw	r3,528(r2)

	      //Register 9
	        //1000BT control register
	          control = targetMAC->mdio_PHY_CTRL1000;
  101d04:	e0bffe17 	ldw	r2,-8(fp)
  101d08:	10808917 	ldw	r2,548(r2)
  101d0c:	e0bffd0d 	sth	r2,-12(fp)
	        //Don't advertise anything
	          control &= ~(MII_1000BASETCONTROL_FULLDUPLEXCAP | MII_1000BASETCONTROL_HALFDUPLEXCAP);
  101d10:	e0fffd0b 	ldhu	r3,-12(fp)
  101d14:	00bf3fc4 	movi	r2,-769
  101d18:	1884703a 	and	r2,r3,r2
  101d1c:	e0bffd0d 	sth	r2,-12(fp)
	        //Advertise 10mbps

	        //Write changes
	          targetMAC->mdio_PHY_CTRL1000 = control;
  101d20:	e0fffd0b 	ldhu	r3,-12(fp)
  101d24:	e0bffe17 	ldw	r2,-8(fp)
  101d28:	10c08915 	stw	r3,548(r2)

	      //Register 0
	        //base control register
	          control = targetMAC->mdio_PHY_CR;
  101d2c:	e0bffe17 	ldw	r2,-8(fp)
  101d30:	10808017 	ldw	r2,512(r2)
  101d34:	e0bffd0d 	sth	r2,-12(fp)
	        //Don't advertise anything
	          control &= !(CR_SPEED1000 | CR_SPEED100);
  101d38:	e03ffd0d 	sth	zero,-12(fp)
	        //Advertise 10mbps
	          //10mbps = "00"
	        //Write changes
	          targetMAC->mdio_PHY_CR = control;
  101d3c:	e0fffd0b 	ldhu	r3,-12(fp)
  101d40:	e0bffe17 	ldw	r2,-8(fp)
  101d44:	10c08015 	stw	r3,512(r2)

	          control = targetMAC->command_config;
  101d48:	e0bffe17 	ldw	r2,-8(fp)
  101d4c:	10800217 	ldw	r2,8(r2)
  101d50:	e0bffd0d 	sth	r2,-12(fp)
	          control &= ~(CC_ETH_SPEED);
  101d54:	e0fffd0b 	ldhu	r3,-12(fp)
  101d58:	00bffdc4 	movi	r2,-9
  101d5c:	1884703a 	and	r2,r3,r2
  101d60:	e0bffd0d 	sth	r2,-12(fp)
	          control |= (CC_ENA_10);
	          targetMAC->command_config = control;
  101d64:	e0fffd0b 	ldhu	r3,-12(fp)
  101d68:	e0bffe17 	ldw	r2,-8(fp)
  101d6c:	10c00215 	stw	r3,8(r2)
	          printf("HERE");
  101d70:	01000474 	movhi	r4,17
  101d74:	21185904 	addi	r4,r4,24932
  101d78:	010475c0 	call	10475c <printf>



	      break;
  101d7c:	00006b06 	br	101f2c <macInit+0x2a4>
	    case 1: //Speed 100 Selected
	      printf("[mac.c]\tSpeed 100 selected\n");
  101d80:	01000474 	movhi	r4,17
  101d84:	21185b04 	addi	r4,r4,24940
  101d88:	01048740 	call	104874 <puts>
	      //Register 4
	        //Advertisement control register
	          control = targetMAC->mdio_PHY_ACR;
  101d8c:	e0bffe17 	ldw	r2,-8(fp)
  101d90:	10808417 	ldw	r2,528(r2)
  101d94:	e0bffd0d 	sth	r2,-12(fp)
	        //Don't advertise anything
	          control &= ~(ADVERTISE_10HALF | ADVERTISE_10FULL | ADVERTISE_100HALF | ADVERTISE_100FULL);
  101d98:	e0fffd0b 	ldhu	r3,-12(fp)
  101d9c:	00bf87c4 	movi	r2,-481
  101da0:	1884703a 	and	r2,r3,r2
  101da4:	e0bffd0d 	sth	r2,-12(fp)
	        //Advertise 100mbps
	          control |= (ADVERTISE_100HALF | ADVERTISE_100FULL);
  101da8:	e0bffd0b 	ldhu	r2,-12(fp)
  101dac:	10806014 	ori	r2,r2,384
  101db0:	e0bffd0d 	sth	r2,-12(fp)
	        //Write changes
	          targetMAC->mdio_PHY_ACR = control;
  101db4:	e0fffd0b 	ldhu	r3,-12(fp)
  101db8:	e0bffe17 	ldw	r2,-8(fp)
  101dbc:	10c08415 	stw	r3,528(r2)

	      //Register 9
	        //1000BT control register
	    	  control = targetMAC->mdio_PHY_CTRL1000;
  101dc0:	e0bffe17 	ldw	r2,-8(fp)
  101dc4:	10808917 	ldw	r2,548(r2)
  101dc8:	e0bffd0d 	sth	r2,-12(fp)
	        //Don't advertise anything
	          control &= ~(MII_1000BASETCONTROL_FULLDUPLEXCAP | MII_1000BASETCONTROL_HALFDUPLEXCAP);
  101dcc:	e0fffd0b 	ldhu	r3,-12(fp)
  101dd0:	00bf3fc4 	movi	r2,-769
  101dd4:	1884703a 	and	r2,r3,r2
  101dd8:	e0bffd0d 	sth	r2,-12(fp)
	        //Advertise 100mbps

	        //Write changes
	          targetMAC->mdio_PHY_CTRL1000 = control;
  101ddc:	e0fffd0b 	ldhu	r3,-12(fp)
  101de0:	e0bffe17 	ldw	r2,-8(fp)
  101de4:	10c08915 	stw	r3,548(r2)

	      //Register 0
	        //base control register
	          control = targetMAC->mdio_PHY_CR;
  101de8:	e0bffe17 	ldw	r2,-8(fp)
  101dec:	10808017 	ldw	r2,512(r2)
  101df0:	e0bffd0d 	sth	r2,-12(fp)
	        //Don't advertise anything
	          control &= ~(CR_SPEED1000 | CR_SPEED100);
  101df4:	e0fffd0b 	ldhu	r3,-12(fp)
  101df8:	00b7efc4 	movi	r2,-8257
  101dfc:	1884703a 	and	r2,r3,r2
  101e00:	e0bffd0d 	sth	r2,-12(fp)
	        //Advertise 10mbps
	          //100mbps = "01"
	          control |= (CR_SPEED100);
  101e04:	e0bffd0b 	ldhu	r2,-12(fp)
  101e08:	10880014 	ori	r2,r2,8192
  101e0c:	e0bffd0d 	sth	r2,-12(fp)
	        //Write changes
	          targetMAC->mdio_PHY_CR = control;
  101e10:	e0fffd0b 	ldhu	r3,-12(fp)
  101e14:	e0bffe17 	ldw	r2,-8(fp)
  101e18:	10c08015 	stw	r3,512(r2)

	          control = targetMAC->command_config;
  101e1c:	e0bffe17 	ldw	r2,-8(fp)
  101e20:	10800217 	ldw	r2,8(r2)
  101e24:	e0bffd0d 	sth	r2,-12(fp)
	          control &= ~(CC_ETH_SPEED | CC_ENA_10);
  101e28:	e0fffd0b 	ldhu	r3,-12(fp)
  101e2c:	00bffdc4 	movi	r2,-9
  101e30:	1884703a 	and	r2,r3,r2
  101e34:	e0bffd0d 	sth	r2,-12(fp)
	          targetMAC->command_config = control;
  101e38:	e0fffd0b 	ldhu	r3,-12(fp)
  101e3c:	e0bffe17 	ldw	r2,-8(fp)
  101e40:	10c00215 	stw	r3,8(r2)

	      break;
  101e44:	00003906 	br	101f2c <macInit+0x2a4>
	    case 2: //Speed 1000 Selected
	      printf("[mac.c]\tSpeed 1000 selected\n");
  101e48:	01000474 	movhi	r4,17
  101e4c:	21186204 	addi	r4,r4,24968
  101e50:	01048740 	call	104874 <puts>
	      //Register 4
	        //Advertisement control register
	      	  control = targetMAC->mdio_PHY_ACR;
  101e54:	e0bffe17 	ldw	r2,-8(fp)
  101e58:	10808417 	ldw	r2,528(r2)
  101e5c:	e0bffd0d 	sth	r2,-12(fp)
	        //Don't advertise anything
	          control &= ~(ADVERTISE_10HALF | ADVERTISE_10FULL | ADVERTISE_100HALF | ADVERTISE_100FULL);
  101e60:	e0fffd0b 	ldhu	r3,-12(fp)
  101e64:	00bf87c4 	movi	r2,-481
  101e68:	1884703a 	and	r2,r3,r2
  101e6c:	e0bffd0d 	sth	r2,-12(fp)
	        //Advertise 1000mbps

	        //Write changes
	          targetMAC->mdio_PHY_ACR = control;
  101e70:	e0fffd0b 	ldhu	r3,-12(fp)
  101e74:	e0bffe17 	ldw	r2,-8(fp)
  101e78:	10c08415 	stw	r3,528(r2)

	      //Register 9
	        //1000BT control register
	          control = targetMAC->mdio_PHY_CTRL1000;
  101e7c:	e0bffe17 	ldw	r2,-8(fp)
  101e80:	10808917 	ldw	r2,548(r2)
  101e84:	e0bffd0d 	sth	r2,-12(fp)
	        //Don't advertise anything
	          control &= ~(MII_1000BASETCONTROL_FULLDUPLEXCAP | MII_1000BASETCONTROL_HALFDUPLEXCAP);
  101e88:	e0fffd0b 	ldhu	r3,-12(fp)
  101e8c:	00bf3fc4 	movi	r2,-769
  101e90:	1884703a 	and	r2,r3,r2
  101e94:	e0bffd0d 	sth	r2,-12(fp)
	        //Advertise 100mbps
	          control |= (MII_1000BASETCONTROL_FULLDUPLEXCAP | MII_1000BASETCONTROL_HALFDUPLEXCAP);
  101e98:	e0bffd0b 	ldhu	r2,-12(fp)
  101e9c:	1080c014 	ori	r2,r2,768
  101ea0:	e0bffd0d 	sth	r2,-12(fp)
	        //Write changes
	          targetMAC->mdio_PHY_CTRL1000 = control;
  101ea4:	e0fffd0b 	ldhu	r3,-12(fp)
  101ea8:	e0bffe17 	ldw	r2,-8(fp)
  101eac:	10c08915 	stw	r3,548(r2)

	      //Register 0
	        //base control register
	          control = targetMAC->mdio_PHY_CR;
  101eb0:	e0bffe17 	ldw	r2,-8(fp)
  101eb4:	10808017 	ldw	r2,512(r2)
  101eb8:	e0bffd0d 	sth	r2,-12(fp)
	        //Don't advertise anything
	          control &= ~(CR_SPEED1000 | CR_SPEED100);
  101ebc:	e0fffd0b 	ldhu	r3,-12(fp)
  101ec0:	00b7efc4 	movi	r2,-8257
  101ec4:	1884703a 	and	r2,r3,r2
  101ec8:	e0bffd0d 	sth	r2,-12(fp)
	        //Advertise 10mbps
	          //100mbps = "01"
	          control |= (CR_SPEED1000);
  101ecc:	e0bffd0b 	ldhu	r2,-12(fp)
  101ed0:	10801014 	ori	r2,r2,64
  101ed4:	e0bffd0d 	sth	r2,-12(fp)
	        //Write changes
	          targetMAC->mdio_PHY_CR = control;
  101ed8:	e0fffd0b 	ldhu	r3,-12(fp)
  101edc:	e0bffe17 	ldw	r2,-8(fp)
  101ee0:	10c08015 	stw	r3,512(r2)

	          control = targetMAC->command_config;
  101ee4:	e0bffe17 	ldw	r2,-8(fp)
  101ee8:	10800217 	ldw	r2,8(r2)
  101eec:	e0bffd0d 	sth	r2,-12(fp)
	          control &= ~(CC_ENA_10);
	          control |= CC_ETH_SPEED;
  101ef0:	e0bffd0b 	ldhu	r2,-12(fp)
  101ef4:	10800214 	ori	r2,r2,8
  101ef8:	e0bffd0d 	sth	r2,-12(fp)
	          targetMAC->command_config = control;
  101efc:	e0fffd0b 	ldhu	r3,-12(fp)
  101f00:	e0bffe17 	ldw	r2,-8(fp)
  101f04:	10c00215 	stw	r3,8(r2)

	      break;
  101f08:	00000806 	br	101f2c <macInit+0x2a4>
	    default:
	      printf("[mac.c]\tInvalid speed selected\n");
  101f0c:	01000474 	movhi	r4,17
  101f10:	21186904 	addi	r4,r4,24996
  101f14:	01048740 	call	104874 <puts>
	      printf("[mac.c]\tInitialize interface (FAILURE)\n");
  101f18:	01000474 	movhi	r4,17
  101f1c:	21187104 	addi	r4,r4,25028
  101f20:	01048740 	call	104874 <puts>
	      return 1;
  101f24:	00800044 	movi	r2,1
  101f28:	0000bf06 	br	102228 <macInit+0x5a0>
	      break;
	  }

	  if(SW_Status & DUP_MSK){
  101f2c:	e0bfff03 	ldbu	r2,-4(fp)
  101f30:	1080010c 	andi	r2,r2,4
  101f34:	10002b26 	beq	r2,zero,101fe4 <macInit+0x35c>
	    //Enable FULL DUPLEX mode!
	    printf("[mac.c]\tFull-duplex selected\n");
  101f38:	01000474 	movhi	r4,17
  101f3c:	21187b04 	addi	r4,r4,25068
  101f40:	01048740 	call	104874 <puts>
	    //Register 4
	      //Advertisement control register
	    	control = targetMAC->mdio_PHY_ACR;
  101f44:	e0bffe17 	ldw	r2,-8(fp)
  101f48:	10808417 	ldw	r2,528(r2)
  101f4c:	e0bffd0d 	sth	r2,-12(fp)
	      //Don't advertise half duplex!
	        control &= ~(ADVERTISE_10HALF | ADVERTISE_100HALF);
  101f50:	e0fffd0b 	ldhu	r3,-12(fp)
  101f54:	00bfd7c4 	movi	r2,-161
  101f58:	1884703a 	and	r2,r3,r2
  101f5c:	e0bffd0d 	sth	r2,-12(fp)
	      //Write changes
	        targetMAC->mdio_PHY_ACR = control;
  101f60:	e0fffd0b 	ldhu	r3,-12(fp)
  101f64:	e0bffe17 	ldw	r2,-8(fp)
  101f68:	10c08415 	stw	r3,528(r2)

	    //Register 9
	      //1000BT control register
	        control = targetMAC->mdio_PHY_CTRL1000;
  101f6c:	e0bffe17 	ldw	r2,-8(fp)
  101f70:	10808917 	ldw	r2,548(r2)
  101f74:	e0bffd0d 	sth	r2,-12(fp)
	      //Don't advertise helf duplex!
	        control &= ~(MII_1000BASETCONTROL_HALFDUPLEXCAP);
  101f78:	e0fffd0b 	ldhu	r3,-12(fp)
  101f7c:	00bfbfc4 	movi	r2,-257
  101f80:	1884703a 	and	r2,r3,r2
  101f84:	e0bffd0d 	sth	r2,-12(fp)
	      //Write changes
	        targetMAC->mdio_PHY_CTRL1000 = control;
  101f88:	e0fffd0b 	ldhu	r3,-12(fp)
  101f8c:	e0bffe17 	ldw	r2,-8(fp)
  101f90:	10c08915 	stw	r3,548(r2)


	    //Register 0
	      //base control register
	        control = targetMAC->mdio_PHY_CR;
  101f94:	e0bffe17 	ldw	r2,-8(fp)
  101f98:	10808017 	ldw	r2,512(r2)
  101f9c:	e0bffd0d 	sth	r2,-12(fp)
	      //Engage Duplex
	        control |= (CR_FULLDPLX);
  101fa0:	e0bffd0b 	ldhu	r2,-12(fp)
  101fa4:	10804014 	ori	r2,r2,256
  101fa8:	e0bffd0d 	sth	r2,-12(fp)
	      //Write changes
	        targetMAC->mdio_PHY_CR = control;
  101fac:	e0fffd0b 	ldhu	r3,-12(fp)
  101fb0:	e0bffe17 	ldw	r2,-8(fp)
  101fb4:	10c08015 	stw	r3,512(r2)

		  control = targetMAC->command_config;
  101fb8:	e0bffe17 	ldw	r2,-8(fp)
  101fbc:	10800217 	ldw	r2,8(r2)
  101fc0:	e0bffd0d 	sth	r2,-12(fp)
		  control &= ~(CC_HD_ENA);
  101fc4:	e0fffd0b 	ldhu	r3,-12(fp)
  101fc8:	00beffc4 	movi	r2,-1025
  101fcc:	1884703a 	and	r2,r3,r2
  101fd0:	e0bffd0d 	sth	r2,-12(fp)
		  targetMAC->command_config = control;
  101fd4:	e0fffd0b 	ldhu	r3,-12(fp)
  101fd8:	e0bffe17 	ldw	r2,-8(fp)
  101fdc:	10c00215 	stw	r3,8(r2)
  101fe0:	00002a06 	br	10208c <macInit+0x404>

	  } else {
	    //Enable HALF DUPLEX mode!
	    printf("[mac.c]\tHalf-duplex selected\n");
  101fe4:	01000474 	movhi	r4,17
  101fe8:	21188304 	addi	r4,r4,25100
  101fec:	01048740 	call	104874 <puts>
	    //Register 4
	      //Advertisement control register
    		control = targetMAC->mdio_PHY_ACR;
  101ff0:	e0bffe17 	ldw	r2,-8(fp)
  101ff4:	10808417 	ldw	r2,528(r2)
  101ff8:	e0bffd0d 	sth	r2,-12(fp)
	      //Don't advertise full duplex!
	        control &= ~(ADVERTISE_10FULL | ADVERTISE_100FULL);
  101ffc:	e0fffd0b 	ldhu	r3,-12(fp)
  102000:	00bfafc4 	movi	r2,-321
  102004:	1884703a 	and	r2,r3,r2
  102008:	e0bffd0d 	sth	r2,-12(fp)
	      //Write changes
	        targetMAC->mdio_PHY_ACR = control;
  10200c:	e0fffd0b 	ldhu	r3,-12(fp)
  102010:	e0bffe17 	ldw	r2,-8(fp)
  102014:	10c08415 	stw	r3,528(r2)

	    //Register 9
	      //1000BT control register
	        control = targetMAC->mdio_PHY_CTRL1000;
  102018:	e0bffe17 	ldw	r2,-8(fp)
  10201c:	10808917 	ldw	r2,548(r2)
  102020:	e0bffd0d 	sth	r2,-12(fp)
	      //Don't advertise helf duplex!
	        control &= ~(MII_1000BASETCONTROL_FULLDUPLEXCAP);
  102024:	e0fffd0b 	ldhu	r3,-12(fp)
  102028:	00bf7fc4 	movi	r2,-513
  10202c:	1884703a 	and	r2,r3,r2
  102030:	e0bffd0d 	sth	r2,-12(fp)
	      //Write changes
	        targetMAC->mdio_PHY_CTRL1000 = control;
  102034:	e0fffd0b 	ldhu	r3,-12(fp)
  102038:	e0bffe17 	ldw	r2,-8(fp)
  10203c:	10c08915 	stw	r3,548(r2)

	    //Register 0
	      //base control register
	        control = targetMAC->mdio_PHY_CR;
  102040:	e0bffe17 	ldw	r2,-8(fp)
  102044:	10808017 	ldw	r2,512(r2)
  102048:	e0bffd0d 	sth	r2,-12(fp)
	      //Say no to duplex
	        control &= ~(CR_FULLDPLX);
  10204c:	e0fffd0b 	ldhu	r3,-12(fp)
  102050:	00bfbfc4 	movi	r2,-257
  102054:	1884703a 	and	r2,r3,r2
  102058:	e0bffd0d 	sth	r2,-12(fp)
	      //Write changes
	        targetMAC->mdio_PHY_CR = control;
  10205c:	e0fffd0b 	ldhu	r3,-12(fp)
  102060:	e0bffe17 	ldw	r2,-8(fp)
  102064:	10c08015 	stw	r3,512(r2)

		  control = targetMAC->command_config;
  102068:	e0bffe17 	ldw	r2,-8(fp)
  10206c:	10800217 	ldw	r2,8(r2)
  102070:	e0bffd0d 	sth	r2,-12(fp)
		  control |= (CC_HD_ENA);
  102074:	e0bffd0b 	ldhu	r2,-12(fp)
  102078:	10810014 	ori	r2,r2,1024
  10207c:	e0bffd0d 	sth	r2,-12(fp)
		  targetMAC->command_config = control;
  102080:	e0fffd0b 	ldhu	r3,-12(fp)
  102084:	e0bffe17 	ldw	r2,-8(fp)
  102088:	10c00215 	stw	r3,8(r2)
	  }

	  if(SW_Status & XO_MSK){
  10208c:	e0bfff03 	ldbu	r2,-4(fp)
  102090:	1080020c 	andi	r2,r2,8
  102094:	10000d26 	beq	r2,zero,1020cc <macInit+0x444>
	    //Enable Auto-crossover mode!
	    printf("[mac.c]\tAuto-crossover selected\n");
  102098:	01000474 	movhi	r4,17
  10209c:	21188b04 	addi	r4,r4,25132
  1020a0:	01048740 	call	104874 <puts>
	    //Register 16
	      //PHY Specific Control register
	    	control = targetMAC->mdio_PHY_PHYSCR;
  1020a4:	e0bffe17 	ldw	r2,-8(fp)
  1020a8:	10809017 	ldw	r2,576(r2)
  1020ac:	e0bffd0d 	sth	r2,-12(fp)
	      //Change to auto-crossover!
	        control |= (PHYSCR_MDI_MSB | PHYSCR_MDI_LSB);
  1020b0:	e0bffd0b 	ldhu	r2,-12(fp)
  1020b4:	10801814 	ori	r2,r2,96
  1020b8:	e0bffd0d 	sth	r2,-12(fp)
	      //Write changes
	        targetMAC->mdio_PHY_PHYSCR = control;
  1020bc:	e0fffd0b 	ldhu	r3,-12(fp)
  1020c0:	e0bffe17 	ldw	r2,-8(fp)
  1020c4:	10c09015 	stw	r3,576(r2)
  1020c8:	00000d06 	br	102100 <macInit+0x478>

	  } else {
	    //Disable auto-crossover mode!
	    printf("[mac.c]\tNon-crossover selected\n");
  1020cc:	01000474 	movhi	r4,17
  1020d0:	21189304 	addi	r4,r4,25164
  1020d4:	01048740 	call	104874 <puts>
	    //Register 16
	      //PHY Specific Control register
	    	control = targetMAC->mdio_PHY_PHYSSR;
  1020d8:	e0bffe17 	ldw	r2,-8(fp)
  1020dc:	10809117 	ldw	r2,580(r2)
  1020e0:	e0bffd0d 	sth	r2,-12(fp)
	      //Disable auto-crossover, straight across!
	        control &= ~(PHYSCR_MDI_MSB | PHYSCR_MDI_LSB);
  1020e4:	e0fffd0b 	ldhu	r3,-12(fp)
  1020e8:	00bfe7c4 	movi	r2,-97
  1020ec:	1884703a 	and	r2,r3,r2
  1020f0:	e0bffd0d 	sth	r2,-12(fp)
	      //Write changes
	        targetMAC->mdio_PHY_PHYSSR = control;
  1020f4:	e0fffd0b 	ldhu	r3,-12(fp)
  1020f8:	e0bffe17 	ldw	r2,-8(fp)
  1020fc:	10c09115 	stw	r3,580(r2)
	  }

	  if(SW_Status & AN_MSK){
  102100:	e0bfff03 	ldbu	r2,-4(fp)
  102104:	1080040c 	andi	r2,r2,16
  102108:	10001f26 	beq	r2,zero,102188 <macInit+0x500>
	    //Enable auto-negotiation!
	    printf("[mac.c]\tAuto-negotiation selected\n");
  10210c:	01000474 	movhi	r4,17
  102110:	21189b04 	addi	r4,r4,25196
  102114:	01048740 	call	104874 <puts>
	    //Register 4
	      //Advertisement control register
			control = targetMAC->mdio_PHY_ACR;
  102118:	e0bffe17 	ldw	r2,-8(fp)
  10211c:	10808417 	ldw	r2,528(r2)
  102120:	e0bffd0d 	sth	r2,-12(fp)
	      //Advertise everything
	        control |= (ADVERTISE_10HALF | ADVERTISE_10FULL | ADVERTISE_100HALF | ADVERTISE_100FULL);
  102124:	e0bffd0b 	ldhu	r2,-12(fp)
  102128:	10807814 	ori	r2,r2,480
  10212c:	e0bffd0d 	sth	r2,-12(fp)
	      //Write changes
	        targetMAC->mdio_PHY_ACR = control;
  102130:	e0fffd0b 	ldhu	r3,-12(fp)
  102134:	e0bffe17 	ldw	r2,-8(fp)
  102138:	10c08415 	stw	r3,528(r2)

	    //Register 9
	      //1000BT control register
	        control = targetMAC->mdio_PHY_CTRL1000;
  10213c:	e0bffe17 	ldw	r2,-8(fp)
  102140:	10808917 	ldw	r2,548(r2)
  102144:	e0bffd0d 	sth	r2,-12(fp)
	      //Advertise everything
	        control |= (MII_1000BASETCONTROL_FULLDUPLEXCAP | MII_1000BASETCONTROL_HALFDUPLEXCAP);
  102148:	e0bffd0b 	ldhu	r2,-12(fp)
  10214c:	1080c014 	ori	r2,r2,768
  102150:	e0bffd0d 	sth	r2,-12(fp)
	      //Write changes
	        targetMAC->mdio_PHY_CTRL1000 = control;
  102154:	e0fffd0b 	ldhu	r3,-12(fp)
  102158:	e0bffe17 	ldw	r2,-8(fp)
  10215c:	10c08915 	stw	r3,548(r2)

	    //Register 0
	      //base control register
	        control = targetMAC->mdio_PHY_CR;
  102160:	e0bffe17 	ldw	r2,-8(fp)
  102164:	10808017 	ldw	r2,512(r2)
  102168:	e0bffd0d 	sth	r2,-12(fp)
	      //auto-negotiation on!
	        control |= (CR_ANENABLE);
  10216c:	e0bffd0b 	ldhu	r2,-12(fp)
  102170:	10840014 	ori	r2,r2,4096
  102174:	e0bffd0d 	sth	r2,-12(fp)
	      //Write changes
	        targetMAC->mdio_PHY_CR = control;
  102178:	e0fffd0b 	ldhu	r3,-12(fp)
  10217c:	e0bffe17 	ldw	r2,-8(fp)
  102180:	10c08015 	stw	r3,512(r2)
  102184:	00000d06 	br	1021bc <macInit+0x534>

	  } else {
	    //Disable auto-crossover mode!
	    printf("[mac.c]\tAuto-negotiation unselected\n");
  102188:	01000474 	movhi	r4,17
  10218c:	2118a404 	addi	r4,r4,25232
  102190:	01048740 	call	104874 <puts>
	    //Register 0
	      //base control register
	    	control = targetMAC->mdio_PHY_CR;
  102194:	e0bffe17 	ldw	r2,-8(fp)
  102198:	10808017 	ldw	r2,512(r2)
  10219c:	e0bffd0d 	sth	r2,-12(fp)
	      //auto-negotiation on!
	        control &= ~(CR_ANENABLE);
  1021a0:	e0fffd0b 	ldhu	r3,-12(fp)
  1021a4:	00bbffc4 	movi	r2,-4097
  1021a8:	1884703a 	and	r2,r3,r2
  1021ac:	e0bffd0d 	sth	r2,-12(fp)
	      //Write changes
	        targetMAC->mdio_PHY_CR = control;
  1021b0:	e0fffd0b 	ldhu	r3,-12(fp)
  1021b4:	e0bffe17 	ldw	r2,-8(fp)
  1021b8:	10c08015 	stw	r3,512(r2)
	  }

	  // Write to register 20 of the PHY chip to set up delay for input/output clk
	  targetMAC->mdio_PHY_EPHYSCR |= 0x0082;
  1021bc:	e0bffe17 	ldw	r2,-8(fp)
  1021c0:	10809417 	ldw	r2,592(r2)
  1021c4:	10c02094 	ori	r3,r2,130
  1021c8:	e0bffe17 	ldw	r2,-8(fp)
  1021cc:	10c09415 	stw	r3,592(r2)

	  control = targetMAC->command_config;
  1021d0:	e0bffe17 	ldw	r2,-8(fp)
  1021d4:	10800217 	ldw	r2,8(r2)
  1021d8:	e0bffd0d 	sth	r2,-12(fp)
	  control |= (CC_PROMIS_EN | CC_PAD_EN);
  1021dc:	e0bffd0b 	ldhu	r2,-12(fp)
  1021e0:	10800c14 	ori	r2,r2,48
  1021e4:	e0bffd0d 	sth	r2,-12(fp)
	  control &= ~(CC_CRC_FWD | CC_PAUSE_FWD | CC_PAUSE_IGNORE | CC_TX_ADDR_INS);
  1021e8:	e0fffd0b 	ldhu	r3,-12(fp)
  1021ec:	00bf0fc4 	movi	r2,-961
  1021f0:	1884703a 	and	r2,r3,r2
  1021f4:	e0bffd0d 	sth	r2,-12(fp)
	  targetMAC->command_config = control;
  1021f8:	e0fffd0b 	ldhu	r3,-12(fp)
  1021fc:	e0bffe17 	ldw	r2,-8(fp)
  102200:	10c00215 	stw	r3,8(r2)

	  targetMAC->mdio_PHY_CR |= (CR_ANRESTART | CR_RESET);
  102204:	e0bffe17 	ldw	r2,-8(fp)
  102208:	10808017 	ldw	r2,512(r2)
  10220c:	10e08014 	ori	r3,r2,33280
  102210:	e0bffe17 	ldw	r2,-8(fp)
  102214:	10c08015 	stw	r3,512(r2)

  printf("[mac.c]\tInitialize interface (SUCCESS)\n");
  102218:	01000474 	movhi	r4,17
  10221c:	2118ad04 	addi	r4,r4,25268
  102220:	01048740 	call	104874 <puts>
  return 0;
  102224:	0005883a 	mov	r2,zero

  printf("[mac.c]\tInitialize interface (FAILURE)\n");
  return 1;
}
  102228:	e037883a 	mov	sp,fp
  10222c:	dfc00117 	ldw	ra,4(sp)
  102230:	df000017 	ldw	fp,0(sp)
  102234:	dec00204 	addi	sp,sp,8
  102238:	f800283a 	ret

0010223c <macPrintRegs>:

void macPrintRegs(volatile MAC_t* targetMAC){
  10223c:	defffd04 	addi	sp,sp,-12
  102240:	dfc00215 	stw	ra,8(sp)
  102244:	df000115 	stw	fp,4(sp)
  102248:	df000104 	addi	fp,sp,4
  10224c:	e13fff15 	stw	r4,-4(fp)
  /* Mode Register */
  printf("\tRevision Reg:\t\t0x%.8x\n", (unsigned int) targetMAC->rev);
  102250:	e0bfff17 	ldw	r2,-4(fp)
  102254:	10800017 	ldw	r2,0(r2)
  102258:	01000474 	movhi	r4,17
  10225c:	2118b704 	addi	r4,r4,25308
  102260:	100b883a 	mov	r5,r2
  102264:	010475c0 	call	10475c <printf>

  /* Interrupt Source Register */
  printf("\tScratch Reg:\t\t0x%.8x\n", (unsigned int) targetMAC->scratch);
  102268:	e0bfff17 	ldw	r2,-4(fp)
  10226c:	10800117 	ldw	r2,4(r2)
  102270:	01000474 	movhi	r4,17
  102274:	2118bd04 	addi	r4,r4,25332
  102278:	100b883a 	mov	r5,r2
  10227c:	010475c0 	call	10475c <printf>

  /* Interrupt Mask Register */
  printf("\tCommand Config  Reg:\t\t0x%.8x\n", (unsigned int) targetMAC->command_config);
  102280:	e0bfff17 	ldw	r2,-4(fp)
  102284:	10800217 	ldw	r2,8(r2)
  102288:	01000474 	movhi	r4,17
  10228c:	2118c304 	addi	r4,r4,25356
  102290:	100b883a 	mov	r5,r2
  102294:	010475c0 	call	10475c <printf>

  /* Back to Back Inter Packet Gap Register */
  printf("\tMAC0 Reg: \t\t\t0x%.8x\n", (unsigned int) targetMAC->mac_0);
  102298:	e0bfff17 	ldw	r2,-4(fp)
  10229c:	10800317 	ldw	r2,12(r2)
  1022a0:	01000474 	movhi	r4,17
  1022a4:	2118cb04 	addi	r4,r4,25388
  1022a8:	100b883a 	mov	r5,r2
  1022ac:	010475c0 	call	10475c <printf>

  /* Non Back to Back Inter Packet Gap Register 1 */
  printf("\tMAC1 Reg: \t\t\t0x%.8x\n", (unsigned int) targetMAC->mac_1);
  1022b0:	e0bfff17 	ldw	r2,-4(fp)
  1022b4:	10800417 	ldw	r2,16(r2)
  1022b8:	01000474 	movhi	r4,17
  1022bc:	2118d104 	addi	r4,r4,25412
  1022c0:	100b883a 	mov	r5,r2
  1022c4:	010475c0 	call	10475c <printf>

  /* Non Back to Back Inter Packet Gap Register 2 */
  printf("\tFrame Length Reg: \t\t0x%.8x\n", (unsigned int) targetMAC->frm_length);
  1022c8:	e0bfff17 	ldw	r2,-4(fp)
  1022cc:	10800517 	ldw	r2,20(r2)
  1022d0:	01000474 	movhi	r4,17
  1022d4:	2118d704 	addi	r4,r4,25436
  1022d8:	100b883a 	mov	r5,r2
  1022dc:	010475c0 	call	10475c <printf>

  /* Packet Length Register (min. and max.) */
  printf("\tPause Quant Reg: \t\t0x%.8x\n", (unsigned int) targetMAC->pause_quant);
  1022e0:	e0bfff17 	ldw	r2,-4(fp)
  1022e4:	10800617 	ldw	r2,24(r2)
  1022e8:	01000474 	movhi	r4,17
  1022ec:	2118df04 	addi	r4,r4,25468
  1022f0:	100b883a 	mov	r5,r2
  1022f4:	010475c0 	call	10475c <printf>

  /* Collision and Retry Configuration Register */
  printf("\tMDIO0 Reg: \t\t0x%.8x\n", (unsigned int) targetMAC->mdio_addr0);
  1022f8:	e0bfff17 	ldw	r2,-4(fp)
  1022fc:	10800f17 	ldw	r2,60(r2)
  102300:	01000474 	movhi	r4,17
  102304:	2118e604 	addi	r4,r4,25496
  102308:	100b883a 	mov	r5,r2
  10230c:	010475c0 	call	10475c <printf>

  /* Transmit Buffer Descriptor Number Register */
  printf("\tMDIO1 Reg: \t\t0x%.8x\n", (unsigned int) targetMAC->mdio_addr1);
  102310:	e0bfff17 	ldw	r2,-4(fp)
  102314:	10801017 	ldw	r2,64(r2)
  102318:	01000474 	movhi	r4,17
  10231c:	2118ec04 	addi	r4,r4,25520
  102320:	100b883a 	mov	r5,r2
  102324:	010475c0 	call	10475c <printf>

  /* Control Module Mode Register */
  printf("\tHoldoff Quant Reg: \t\t0x%.8x\n", (unsigned int) targetMAC->holdoff_quant);
  102328:	e0bfff17 	ldw	r2,-4(fp)
  10232c:	10801117 	ldw	r2,68(r2)
  102330:	01000474 	movhi	r4,17
  102334:	2118f204 	addi	r4,r4,25544
  102338:	100b883a 	mov	r5,r2
  10233c:	010475c0 	call	10475c <printf>

  /* MII Mode Register */
  printf("\tTX IPG Reg: \t\t0x%.8x\n", (unsigned int) targetMAC->tx_ipg_length);
  102340:	e0bfff17 	ldw	r2,-4(fp)
  102344:	10801717 	ldw	r2,92(r2)
  102348:	01000474 	movhi	r4,17
  10234c:	2118fa04 	addi	r4,r4,25576
  102350:	100b883a 	mov	r5,r2
  102354:	010475c0 	call	10475c <printf>

  /* MII Command Register */
  printf("\tTX Command Reg:\t\t0x%.8x\n", (unsigned int) targetMAC->tx_command);
  102358:	e0bfff17 	ldw	r2,-4(fp)
  10235c:	10803a17 	ldw	r2,232(r2)
  102360:	01000474 	movhi	r4,17
  102364:	21190004 	addi	r4,r4,25600
  102368:	100b883a 	mov	r5,r2
  10236c:	010475c0 	call	10475c <printf>

  /* MII Address Register */
  printf("\tRX Command Reg:\t\t0x%.8x\n", (unsigned int) targetMAC->rx_command);
  102370:	e0bfff17 	ldw	r2,-4(fp)
  102374:	10803b17 	ldw	r2,236(r2)
  102378:	01000474 	movhi	r4,17
  10237c:	21190704 	addi	r4,r4,25628
  102380:	100b883a 	mov	r5,r2
  102384:	010475c0 	call	10475c <printf>
}
  102388:	e037883a 	mov	sp,fp
  10238c:	dfc00117 	ldw	ra,4(sp)
  102390:	df000017 	ldw	fp,0(sp)
  102394:	dec00204 	addi	sp,sp,8
  102398:	f800283a 	ret

0010239c <__list_add>:
 * the prev/next entries already!
 */
static inline void __list_add(struct list_head *new,
			      struct list_head *prev,
			      struct list_head *next)
{
  10239c:	defffc04 	addi	sp,sp,-16
  1023a0:	df000315 	stw	fp,12(sp)
  1023a4:	df000304 	addi	fp,sp,12
  1023a8:	e13ffd15 	stw	r4,-12(fp)
  1023ac:	e17ffe15 	stw	r5,-8(fp)
  1023b0:	e1bfff15 	stw	r6,-4(fp)
	next->prev = new;
  1023b4:	e0bfff17 	ldw	r2,-4(fp)
  1023b8:	e0fffd17 	ldw	r3,-12(fp)
  1023bc:	10c00115 	stw	r3,4(r2)
	new->next = next;
  1023c0:	e0bffd17 	ldw	r2,-12(fp)
  1023c4:	e0ffff17 	ldw	r3,-4(fp)
  1023c8:	10c00015 	stw	r3,0(r2)
	new->prev = prev;
  1023cc:	e0bffd17 	ldw	r2,-12(fp)
  1023d0:	e0fffe17 	ldw	r3,-8(fp)
  1023d4:	10c00115 	stw	r3,4(r2)
	prev->next = new;
  1023d8:	e0bffe17 	ldw	r2,-8(fp)
  1023dc:	e0fffd17 	ldw	r3,-12(fp)
  1023e0:	10c00015 	stw	r3,0(r2)
}
  1023e4:	e037883a 	mov	sp,fp
  1023e8:	df000017 	ldw	fp,0(sp)
  1023ec:	dec00104 	addi	sp,sp,4
  1023f0:	f800283a 	ret

001023f4 <list_add_tail>:
 *
 * Insert a new entry before the specified head.
 * This is useful for implementing queues.
 */
static inline void list_add_tail(struct list_head *new, struct list_head *head)
{
  1023f4:	defffc04 	addi	sp,sp,-16
  1023f8:	dfc00315 	stw	ra,12(sp)
  1023fc:	df000215 	stw	fp,8(sp)
  102400:	df000204 	addi	fp,sp,8
  102404:	e13ffe15 	stw	r4,-8(fp)
  102408:	e17fff15 	stw	r5,-4(fp)
	__list_add(new, head->prev, head);
  10240c:	e0bfff17 	ldw	r2,-4(fp)
  102410:	10800117 	ldw	r2,4(r2)
  102414:	e13ffe17 	ldw	r4,-8(fp)
  102418:	100b883a 	mov	r5,r2
  10241c:	e1bfff17 	ldw	r6,-4(fp)
  102420:	010239c0 	call	10239c <__list_add>
}
  102424:	e037883a 	mov	sp,fp
  102428:	dfc00117 	ldw	ra,4(sp)
  10242c:	df000017 	ldw	fp,0(sp)
  102430:	dec00204 	addi	sp,sp,8
  102434:	f800283a 	ret

00102438 <__list_del>:
 *
 * This is only for internal list manipulation where we know
 * the prev/next entries already!
 */
static inline void __list_del(struct list_head *prev, struct list_head *next)
{
  102438:	defffd04 	addi	sp,sp,-12
  10243c:	df000215 	stw	fp,8(sp)
  102440:	df000204 	addi	fp,sp,8
  102444:	e13ffe15 	stw	r4,-8(fp)
  102448:	e17fff15 	stw	r5,-4(fp)
	next->prev = prev;
  10244c:	e0bfff17 	ldw	r2,-4(fp)
  102450:	e0fffe17 	ldw	r3,-8(fp)
  102454:	10c00115 	stw	r3,4(r2)
	prev->next = next;
  102458:	e0bffe17 	ldw	r2,-8(fp)
  10245c:	e0ffff17 	ldw	r3,-4(fp)
  102460:	10c00015 	stw	r3,0(r2)
}
  102464:	e037883a 	mov	sp,fp
  102468:	df000017 	ldw	fp,0(sp)
  10246c:	dec00104 	addi	sp,sp,4
  102470:	f800283a 	ret

00102474 <list_move_tail>:
 * @list: the entry to move
 * @head: the head that will follow our entry
 */
static inline void list_move_tail(struct list_head *list,
				  struct list_head *head)
{
  102474:	defffc04 	addi	sp,sp,-16
  102478:	dfc00315 	stw	ra,12(sp)
  10247c:	df000215 	stw	fp,8(sp)
  102480:	df000204 	addi	fp,sp,8
  102484:	e13ffe15 	stw	r4,-8(fp)
  102488:	e17fff15 	stw	r5,-4(fp)
        __list_del(list->prev, list->next);
  10248c:	e0bffe17 	ldw	r2,-8(fp)
  102490:	10c00117 	ldw	r3,4(r2)
  102494:	e0bffe17 	ldw	r2,-8(fp)
  102498:	10800017 	ldw	r2,0(r2)
  10249c:	1809883a 	mov	r4,r3
  1024a0:	100b883a 	mov	r5,r2
  1024a4:	01024380 	call	102438 <__list_del>
        list_add_tail(list, head);
  1024a8:	e13ffe17 	ldw	r4,-8(fp)
  1024ac:	e17fff17 	ldw	r5,-4(fp)
  1024b0:	01023f40 	call	1023f4 <list_add_tail>
}
  1024b4:	e037883a 	mov	sp,fp
  1024b8:	dfc00117 	ldw	ra,4(sp)
  1024bc:	df000017 	ldw	fp,0(sp)
  1024c0:	dec00204 	addi	sp,sp,8
  1024c4:	f800283a 	ret

001024c8 <main>:
alt_sgdma_dev * BlackTx;

TARGET* headNumber = NULL;

int main(void)
{
  1024c8:	defe5804 	addi	sp,sp,-1696
  1024cc:	dfc1a715 	stw	ra,1692(sp)
  1024d0:	df01a615 	stw	fp,1688(sp)
  1024d4:	dc41a515 	stw	r17,1684(sp)
  1024d8:	dc01a415 	stw	r16,1680(sp)
  1024dc:	df01a604 	addi	fp,sp,1688
/*
-------------------------------------------------------------------------------
Initialize the Linked List
-------------------------------------------------------------------------------
*/
	headNumber = InitializeTargetList(headNumber);
  1024e0:	d0a71917 	ldw	r2,-25500(gp)
  1024e4:	1009883a 	mov	r4,r2
  1024e8:	01013ac0 	call	1013ac <InitializeTargetList>
  1024ec:	d0a71915 	stw	r2,-25500(gp)
	headNumber = PrintTargetList(headNumber);
  1024f0:	d0a71917 	ldw	r2,-25500(gp)
  1024f4:	1009883a 	mov	r4,r2
  1024f8:	010171c0 	call	10171c <PrintTargetList>
  1024fc:	d0a71915 	stw	r2,-25500(gp)

	int i;

	struct FIFO RedRx_FIFO;
	initialize_fifo(&RedRx_FIFO, NUMBER_BUFFERS);
  102500:	e0be6604 	addi	r2,fp,-1640
  102504:	1009883a 	mov	r4,r2
  102508:	01400604 	movi	r5,24
  10250c:	01018fc0 	call	1018fc <initialize_fifo>
	struct FIFO RedTx_FIFO;
	initialize_fifo(&RedTx_FIFO, NUMBER_BUFFERS);
  102510:	e0be6a04 	addi	r2,fp,-1624
  102514:	1009883a 	mov	r4,r2
  102518:	01400604 	movi	r5,24
  10251c:	01018fc0 	call	1018fc <initialize_fifo>
	struct FIFO BlackRx_FIFO;
	initialize_fifo(&BlackRx_FIFO, NUMBER_BUFFERS);
  102520:	e0be6e04 	addi	r2,fp,-1608
  102524:	1009883a 	mov	r4,r2
  102528:	01400604 	movi	r5,24
  10252c:	01018fc0 	call	1018fc <initialize_fifo>
	struct FIFO BlackTx_FIFO;
	initialize_fifo(&BlackTx_FIFO, NUMBER_BUFFERS);
  102530:	e0be7204 	addi	r2,fp,-1592
  102534:	1009883a 	mov	r4,r2
  102538:	01400604 	movi	r5,24
  10253c:	01018fc0 	call	1018fc <initialize_fifo>
	I printf("RedRx available: %d\n", RedRx_FIFO.available);
	I printf("RedTx available: %d\n", RedTx_FIFO.available);
	I printf("BlackRx available: %d\n", BlackRx_FIFO.available);
	I printf("BlackTx available: %d\n", BlackTx_FIFO.available);

	char fstRedRx 	= -1;
  102540:	00bfffc4 	movi	r2,-1
  102544:	e0be5f05 	stb	r2,-1668(fp)
	char fstRedTx 	= -1;
  102548:	00bfffc4 	movi	r2,-1
  10254c:	e0be5f45 	stb	r2,-1667(fp)
	char fstBlackRx = -1;
  102550:	00bfffc4 	movi	r2,-1
  102554:	e0be5f85 	stb	r2,-1666(fp)
	char fstBlackTx = -1;
  102558:	00bfffc4 	movi	r2,-1
  10255c:	e0be5fc5 	stb	r2,-1665(fp)
	char nxtRedRx	= 0;
  102560:	e03e6005 	stb	zero,-1664(fp)
	char nxtRedTx	= 0;
  102564:	e03e6045 	stb	zero,-1663(fp)
	char nxtBlackRx	= 0;
  102568:	e03e6085 	stb	zero,-1662(fp)
	char nxtBlackTx	= 0;
  10256c:	e03e60c5 	stb	zero,-1661(fp)

	I printf("[TED.c]\tStarting Initialization\n");

	//Initialize Crypto
 	printf("[TED.c]\tInitialize Crypto\n");
  102570:	01000474 	movhi	r4,17
  102574:	21190e04 	addi	r4,r4,25656
  102578:	01048740 	call	104874 <puts>
 	printf("[TED.c]\t\tInitialize Encryptor\n");
  10257c:	01000474 	movhi	r4,17
  102580:	21191504 	addi	r4,r4,25684
  102584:	01048740 	call	104874 <puts>
 	Encryptor->key8key16 = (DEFAULT_KEY8 << 16) | (DEFAULT_KEY16);
  102588:	d0a00417 	ldw	r2,-32752(gp)
  10258c:	00c00c74 	movhi	r3,49
  102590:	18c92184 	addi	r3,r3,9350
  102594:	10c00615 	stw	r3,24(r2)
 	printf ("[TED.c]\t\tKey8 and Key16 set to: 0x%.8x\n", Encryptor->key8key16);
  102598:	d0a00417 	ldw	r2,-32752(gp)
  10259c:	10800617 	ldw	r2,24(r2)
  1025a0:	01000474 	movhi	r4,17
  1025a4:	21191d04 	addi	r4,r4,25716
  1025a8:	100b883a 	mov	r5,r2
  1025ac:	010475c0 	call	10475c <printf>
 	Encryptor->key32 = DEFAULT_KEY32;
  1025b0:	d0a00417 	ldw	r2,-32752(gp)
  1025b4:	00f7abb4 	movhi	r3,57006
  1025b8:	18efbbc4 	addi	r3,r3,-16657
  1025bc:	10c00715 	stw	r3,28(r2)
 	printf ("[TED.c]\t\tKey32 set to: 0x%.8x\n", Encryptor->key32);
  1025c0:	d0a00417 	ldw	r2,-32752(gp)
  1025c4:	10800717 	ldw	r2,28(r2)
  1025c8:	01000474 	movhi	r4,17
  1025cc:	21192704 	addi	r4,r4,25756
  1025d0:	100b883a 	mov	r5,r2
  1025d4:	010475c0 	call	10475c <printf>
 	printf("[TED.c]\t\tInitialize Encryptor (SUCCESS)\n");
  1025d8:	01000474 	movhi	r4,17
  1025dc:	21192f04 	addi	r4,r4,25788
  1025e0:	01048740 	call	104874 <puts>
 	printf("[TED.c]\t\tInitialize Decryptor\n");
  1025e4:	01000474 	movhi	r4,17
  1025e8:	21193904 	addi	r4,r4,25828
  1025ec:	01048740 	call	104874 <puts>
 	Decryptor->key8key16 = (DEFAULT_KEY8 << 16) | (DEFAULT_KEY16);
  1025f0:	d0a00517 	ldw	r2,-32748(gp)
  1025f4:	00c00c74 	movhi	r3,49
  1025f8:	18c92184 	addi	r3,r3,9350
  1025fc:	10c00615 	stw	r3,24(r2)
 	printf ("[TED.c]\t\tKey8 and Key16 set to: 0x%.8x\n", Encryptor->key8key16);
  102600:	d0a00417 	ldw	r2,-32752(gp)
  102604:	10800617 	ldw	r2,24(r2)
  102608:	01000474 	movhi	r4,17
  10260c:	21191d04 	addi	r4,r4,25716
  102610:	100b883a 	mov	r5,r2
  102614:	010475c0 	call	10475c <printf>
 	Decryptor->key32 = DEFAULT_KEY32;
  102618:	d0a00517 	ldw	r2,-32748(gp)
  10261c:	00f7abb4 	movhi	r3,57006
  102620:	18efbbc4 	addi	r3,r3,-16657
  102624:	10c00715 	stw	r3,28(r2)
 	printf ("[TED.c]\t\tKey32 set to: 0x%.8x\n", Encryptor->key32);
  102628:	d0a00417 	ldw	r2,-32752(gp)
  10262c:	10800717 	ldw	r2,28(r2)
  102630:	01000474 	movhi	r4,17
  102634:	21192704 	addi	r4,r4,25756
  102638:	100b883a 	mov	r5,r2
  10263c:	010475c0 	call	10475c <printf>
 	printf("[TED.c]\t\tInitialize Decryptor (SUCCESS)\n");
  102640:	01000474 	movhi	r4,17
  102644:	21194104 	addi	r4,r4,25860
  102648:	01048740 	call	104874 <puts>
 	printf("[TED.c]\tInitialize Crypto (SUCCESS)\n");
  10264c:	01000474 	movhi	r4,17
  102650:	21194b04 	addi	r4,r4,25900
  102654:	01048740 	call	104874 <puts>

	//Initialize LEDs
 	I printf("[TED.c]\tInitialize LEDs\n");
	if (ledInit(LEDs) != SUCCESS) HALT
  102658:	d0a00617 	ldw	r2,-32744(gp)
  10265c:	1009883a 	mov	r4,r2
  102660:	0101c200 	call	101c20 <ledInit>
  102664:	10803fcc 	andi	r2,r2,255
  102668:	10000526 	beq	r2,zero,102680 <main+0x1b8>
  10266c:	01000474 	movhi	r4,17
  102670:	21195404 	addi	r4,r4,25936
  102674:	01048740 	call	104874 <puts>
  102678:	00800044 	movi	r2,1
  10267c:	0004e806 	br	103a20 <main+0x1558>

    //Initialize switches for desired link settings
 	I printf("[TED.c]\tInitialize Switches\n");
	if (swInit(Switches) != SUCCESS) HALT
  102680:	d0a00217 	ldw	r2,-32760(gp)
  102684:	1009883a 	mov	r4,r2
  102688:	0103b580 	call	103b58 <swInit>
  10268c:	10803fcc 	andi	r2,r2,255
  102690:	10000526 	beq	r2,zero,1026a8 <main+0x1e0>
  102694:	01000474 	movhi	r4,17
  102698:	21195404 	addi	r4,r4,25936
  10269c:	01048740 	call	104874 <puts>
  1026a0:	00800044 	movi	r2,1
  1026a4:	0004de06 	br	103a20 <main+0x1558>
	swPrintStatus(Switches);
  1026a8:	d0a00217 	ldw	r2,-32760(gp)
  1026ac:	1009883a 	mov	r4,r2
  1026b0:	0103be00 	call	103be0 <swPrintStatus>
	LEDs->DATA |= 0x2;
  1026b4:	d0a00617 	ldw	r2,-32744(gp)
  1026b8:	d0e00617 	ldw	r3,-32744(gp)
  1026bc:	18c00017 	ldw	r3,0(r3)
  1026c0:	18c00094 	ori	r3,r3,2
  1026c4:	10c00015 	stw	r3,0(r2)

	//Bring up the HEX display counter
	I printf("[TED.c]\tInitialize Hex display\n");
	if (hexInit(HEX) != SUCCESS) HALT
  1026c8:	d0a00317 	ldw	r2,-32756(gp)
  1026cc:	1009883a 	mov	r4,r2
  1026d0:	0101abc0 	call	101abc <hexInit>
  1026d4:	10000526 	beq	r2,zero,1026ec <main+0x224>
  1026d8:	01000474 	movhi	r4,17
  1026dc:	21195404 	addi	r4,r4,25936
  1026e0:	01048740 	call	104874 <puts>
  1026e4:	00800044 	movi	r2,1
  1026e8:	0004cd06 	br	103a20 <main+0x1558>
	HEX->redFrames = 0;
  1026ec:	d0a00317 	ldw	r2,-32756(gp)
  1026f0:	1000008d 	sth	zero,2(r2)
	HEX->blackFrames = 0;
  1026f4:	d0a00317 	ldw	r2,-32756(gp)
  1026f8:	1000000d 	sth	zero,0(r2)
	LEDs->DATA |= 0x4;
  1026fc:	d0a00617 	ldw	r2,-32744(gp)
  102700:	d0e00617 	ldw	r3,-32744(gp)
  102704:	18c00017 	ldw	r3,0(r3)
  102708:	18c00114 	ori	r3,r3,4
  10270c:	10c00015 	stw	r3,0(r2)

	//Bring up the LCD
	I printf("[TED.c]\tInitialize LCD\n");
	char* string[20];

	LCD = alt_up_character_lcd_open_dev("/dev/lcd");
  102710:	01000474 	movhi	r4,17
  102714:	21195804 	addi	r4,r4,25952
  102718:	01151bc0 	call	1151bc <alt_up_character_lcd_open_dev>
  10271c:	d0a71e15 	stw	r2,-25480(gp)
	alt_up_character_lcd_init (LCD);
  102720:	d0a71e17 	ldw	r2,-25480(gp)
  102724:	1009883a 	mov	r4,r2
  102728:	01151ac0 	call	1151ac <alt_up_character_lcd_init>
	alt_up_character_lcd_cursor_off(LCD);
  10272c:	d0a71e17 	ldw	r2,-25480(gp)
  102730:	1009883a 	mov	r4,r2
  102734:	011535c0 	call	11535c <alt_up_character_lcd_cursor_off>
	sprintf(string, "%d.%d.%d.%d", IP_SRC_ADDRESS1);
  102738:	e0be7604 	addi	r2,fp,-1576
  10273c:	d8000015 	stw	zero,0(sp)
  102740:	00c00144 	movi	r3,5
  102744:	d8c00115 	stw	r3,4(sp)
  102748:	1009883a 	mov	r4,r2
  10274c:	01400474 	movhi	r5,17
  102750:	29595b04 	addi	r5,r5,25964
  102754:	01802b04 	movi	r6,172
  102758:	01c00404 	movi	r7,16
  10275c:	01049440 	call	104944 <sprintf>
	alt_up_character_lcd_string(LCD, string);
  102760:	d0e71e17 	ldw	r3,-25480(gp)
  102764:	e0be7604 	addi	r2,fp,-1576
  102768:	1809883a 	mov	r4,r3
  10276c:	100b883a 	mov	r5,r2
  102770:	01151e80 	call	1151e8 <alt_up_character_lcd_string>
	alt_up_character_lcd_set_cursor_pos(LCD, 0, 1);
  102774:	d0a71e17 	ldw	r2,-25480(gp)
  102778:	1009883a 	mov	r4,r2
  10277c:	000b883a 	mov	r5,zero
  102780:	01800044 	movi	r6,1
  102784:	011523c0 	call	11523c <alt_up_character_lcd_set_cursor_pos>
	sprintf(string, "%d.%d.%d.%d", IP_DST_ADDRESS1);
  102788:	e0be7604 	addi	r2,fp,-1576
  10278c:	d8000015 	stw	zero,0(sp)
  102790:	00c00144 	movi	r3,5
  102794:	d8c00115 	stw	r3,4(sp)
  102798:	1009883a 	mov	r4,r2
  10279c:	01400474 	movhi	r5,17
  1027a0:	29595b04 	addi	r5,r5,25964
  1027a4:	01800284 	movi	r6,10
  1027a8:	000f883a 	mov	r7,zero
  1027ac:	01049440 	call	104944 <sprintf>
	alt_up_character_lcd_string(LCD, string);
  1027b0:	d0e71e17 	ldw	r3,-25480(gp)
  1027b4:	e0be7604 	addi	r2,fp,-1576
  1027b8:	1809883a 	mov	r4,r3
  1027bc:	100b883a 	mov	r5,r2
  1027c0:	01151e80 	call	1151e8 <alt_up_character_lcd_string>
	LEDs->DATA |= 0x8;
  1027c4:	d0a00617 	ldw	r2,-32744(gp)
  1027c8:	d0e00617 	ldw	r3,-32744(gp)
  1027cc:	18c00017 	ldw	r3,0(r3)
  1027d0:	18c00214 	ori	r3,r3,8
  1027d4:	10c00015 	stw	r3,0(r2)

	//Bring up the Red Interface
	I printf("[TED.c]\tInitialize Red Interface MAC\n");
	// Initialize the MAC address
	Red_Interface->mac_0 = 0x116E6001;
  1027d8:	d0a00117 	ldw	r2,-32764(gp)
  1027dc:	00c45bb4 	movhi	r3,4462
  1027e0:	18d80044 	addi	r3,r3,24577
  1027e4:	10c00315 	stw	r3,12(r2)
	Red_Interface->mac_1 = 0x00000F02;
  1027e8:	d0a00117 	ldw	r2,-32764(gp)
  1027ec:	00c3c084 	movi	r3,3842
  1027f0:	10c00415 	stw	r3,16(r2)
	// Specify the addresses of the PHY devices to be accessed through MDIO interface
	Red_Interface->mdio_addr0 = 0x10;
  1027f4:	d0a00117 	ldw	r2,-32764(gp)
  1027f8:	00c00404 	movi	r3,16
  1027fc:	10c00f15 	stw	r3,60(r2)
	Red_Interface->mdio_addr1 = 0x10;
  102800:	d0a00117 	ldw	r2,-32764(gp)
  102804:	00c00404 	movi	r3,16
  102808:	10c01015 	stw	r3,64(r2)
	if (macInit(Red_Interface, ((Switches->DATA) >> RED_OFFSET)& 0x3F) != SUCCESS) HALT
  10280c:	d0e00117 	ldw	r3,-32764(gp)
  102810:	d0a00217 	ldw	r2,-32760(gp)
  102814:	10800017 	ldw	r2,0(r2)
  102818:	1004d1ba 	srli	r2,r2,6
  10281c:	10803fcc 	andi	r2,r2,255
  102820:	10800fcc 	andi	r2,r2,63
  102824:	1809883a 	mov	r4,r3
  102828:	100b883a 	mov	r5,r2
  10282c:	0101c880 	call	101c88 <macInit>
  102830:	10803fcc 	andi	r2,r2,255
  102834:	10000526 	beq	r2,zero,10284c <main+0x384>
  102838:	01000474 	movhi	r4,17
  10283c:	21195404 	addi	r4,r4,25936
  102840:	01048740 	call	104874 <puts>
  102844:	00800044 	movi	r2,1
  102848:	00047506 	br	103a20 <main+0x1558>
	macPrintRegs(Red_Interface);
  10284c:	d0a00117 	ldw	r2,-32764(gp)
  102850:	1009883a 	mov	r4,r2
  102854:	010223c0 	call	10223c <macPrintRegs>
	Red_Interface->pause_quant = 0xffff;
  102858:	d0a00117 	ldw	r2,-32764(gp)
  10285c:	00ffffd4 	movui	r3,65535
  102860:	10c00615 	stw	r3,24(r2)
	Red_Interface->rx_section_empty = 4096 - 16;
  102864:	d0a00117 	ldw	r2,-32764(gp)
  102868:	00c3fc04 	movi	r3,4080
  10286c:	10c00715 	stw	r3,28(r2)
	Red_Interface->rx_section_full = 0;
  102870:	d0a00117 	ldw	r2,-32764(gp)
  102874:	10000815 	stw	zero,32(r2)
	Red_Interface->tx_section_empty = 2048 - 16;
  102878:	d0a00117 	ldw	r2,-32764(gp)
  10287c:	00c1fc04 	movi	r3,2032
  102880:	10c00915 	stw	r3,36(r2)
	Red_Interface->tx_section_full = 0;
  102884:	d0a00117 	ldw	r2,-32764(gp)
  102888:	10000a15 	stw	zero,40(r2)
	Red_Interface->rx_almost_empty = 8;
  10288c:	d0a00117 	ldw	r2,-32764(gp)
  102890:	00c00204 	movi	r3,8
  102894:	10c00b15 	stw	r3,44(r2)
	Red_Interface->rx_almost_full = 8;
  102898:	d0a00117 	ldw	r2,-32764(gp)
  10289c:	00c00204 	movi	r3,8
  1028a0:	10c00c15 	stw	r3,48(r2)
	Red_Interface->tx_almost_empty = 8;
  1028a4:	d0a00117 	ldw	r2,-32764(gp)
  1028a8:	00c00204 	movi	r3,8
  1028ac:	10c00d15 	stw	r3,52(r2)
	Red_Interface->tx_almost_full = 8;
  1028b0:	d0a00117 	ldw	r2,-32764(gp)
  1028b4:	00c00204 	movi	r3,8
  1028b8:	10c00e15 	stw	r3,56(r2)
	Red_Interface->holdoff_quant = 0x00ff;
  1028bc:	d0a00117 	ldw	r2,-32764(gp)
  1028c0:	00c03fc4 	movi	r3,255
  1028c4:	10c01115 	stw	r3,68(r2)
	I printf("RX Almost full 0x%.4x\n",Red_Interface->rx_almost_full);
	I printf("TX Almost Empty 0x%.4x\n",Red_Interface->tx_almost_empty);
	I printf("TX Almost full 0x%.4x\n",Red_Interface->tx_almost_full);

	// Open the RedRx DMA receive device
	RedRx = alt_avalon_sgdma_open ("/dev/red_rx");
  1028c8:	01000474 	movhi	r4,17
  1028cc:	21195e04 	addi	r4,r4,25976
  1028d0:	0114c5c0 	call	114c5c <alt_avalon_sgdma_open>
  1028d4:	d0a71d15 	stw	r2,-25484(gp)
	if (RedRx == NULL) {
  1028d8:	d0a71d17 	ldw	r2,-25484(gp)
  1028dc:	1000021e 	bne	r2,zero,1028e8 <main+0x420>
		I printf("Error: could not open RedRx DMA receive device\n");
		return -1;
  1028e0:	00bfffc4 	movi	r2,-1
  1028e4:	00044e06 	br	103a20 <main+0x1558>
	} else I printf("Opened RedRx DMA receive device\n");
	// Open the RedTx DMA transmit device
	RedTx = alt_avalon_sgdma_open ("/dev/red_tx");
  1028e8:	01000474 	movhi	r4,17
  1028ec:	21196104 	addi	r4,r4,25988
  1028f0:	0114c5c0 	call	114c5c <alt_avalon_sgdma_open>
  1028f4:	d0a71a15 	stw	r2,-25496(gp)
	if (RedTx == NULL) {
  1028f8:	d0a71a17 	ldw	r2,-25496(gp)
  1028fc:	1000021e 	bne	r2,zero,102908 <main+0x440>
		I printf("Error: could not open RedTx DMA transmit device\n");
		return -1;
  102900:	00bfffc4 	movi	r2,-1
  102904:	00044606 	br	103a20 <main+0x1558>
	} else I printf("Opened RedTx DMA transmit device\n");
	for (i = 0; i < NUMBER_BUFFERS-1; i++){
  102908:	e03e5e15 	stw	zero,-1672(fp)
  10290c:	00001d06 	br	102984 <main+0x4bc>
		red_rx_descriptor[i].next = &red_rx_descriptor[i+1];
  102910:	e0be5e17 	ldw	r2,-1672(fp)
  102914:	10800044 	addi	r2,r2,1
  102918:	1006917a 	slli	r3,r2,5
  10291c:	00800034 	movhi	r2,0
  102920:	10800004 	addi	r2,r2,0
  102924:	1887883a 	add	r3,r3,r2
  102928:	01000034 	movhi	r4,0
  10292c:	21000004 	addi	r4,r4,0
  102930:	e0be5e17 	ldw	r2,-1672(fp)
  102934:	1004917a 	slli	r2,r2,5
  102938:	2085883a 	add	r2,r4,r2
  10293c:	10800404 	addi	r2,r2,16
  102940:	10c00015 	stw	r3,0(r2)
		red_tx_descriptor[i].next = &red_tx_descriptor[i+1];
  102944:	e0be5e17 	ldw	r2,-1672(fp)
  102948:	10800044 	addi	r2,r2,1
  10294c:	1006917a 	slli	r3,r2,5
  102950:	00800034 	movhi	r2,0
  102954:	1080c004 	addi	r2,r2,768
  102958:	1887883a 	add	r3,r3,r2
  10295c:	01000034 	movhi	r4,0
  102960:	2100c004 	addi	r4,r4,768
  102964:	e0be5e17 	ldw	r2,-1672(fp)
  102968:	1004917a 	slli	r2,r2,5
  10296c:	2085883a 	add	r2,r4,r2
  102970:	10800404 	addi	r2,r2,16
  102974:	10c00015 	stw	r3,0(r2)
	RedTx = alt_avalon_sgdma_open ("/dev/red_tx");
	if (RedTx == NULL) {
		I printf("Error: could not open RedTx DMA transmit device\n");
		return -1;
	} else I printf("Opened RedTx DMA transmit device\n");
	for (i = 0; i < NUMBER_BUFFERS-1; i++){
  102978:	e0be5e17 	ldw	r2,-1672(fp)
  10297c:	10800044 	addi	r2,r2,1
  102980:	e0be5e15 	stw	r2,-1672(fp)
  102984:	e0be5e17 	ldw	r2,-1672(fp)
  102988:	108005d0 	cmplti	r2,r2,23
  10298c:	103fe01e 	bne	r2,zero,102910 <black_to_red_frame+0xfe102910>
		red_rx_descriptor[i].next = &red_rx_descriptor[i+1];
		red_tx_descriptor[i].next = &red_tx_descriptor[i+1];
	}
	red_rx_descriptor[NUMBER_BUFFERS-1].next = &red_rx_descriptor[0];
  102990:	00800034 	movhi	r2,0
  102994:	10800004 	addi	r2,r2,0
  102998:	00c00034 	movhi	r3,0
  10299c:	18c00004 	addi	r3,r3,0
  1029a0:	10c0bc15 	stw	r3,752(r2)
	red_tx_descriptor[NUMBER_BUFFERS-1].next = &red_tx_descriptor[0];
  1029a4:	00800034 	movhi	r2,0
  1029a8:	1080c004 	addi	r2,r2,768
  1029ac:	00c00034 	movhi	r3,0
  1029b0:	18c0c004 	addi	r3,r3,768
  1029b4:	10c0bc15 	stw	r3,752(r2)
	//Done With the Red Interface!


	LEDs->DATA |= 0x10;
  1029b8:	d0a00617 	ldw	r2,-32744(gp)
  1029bc:	d0e00617 	ldw	r3,-32744(gp)
  1029c0:	18c00017 	ldw	r3,0(r3)
  1029c4:	18c00414 	ori	r3,r3,16
  1029c8:	10c00015 	stw	r3,0(r2)

	//Bring up the Black interface
	I printf("[TED.c]\tInitialize Black Interface MAC\n");
	// Initialize the MAC address
	Black_Interface->mac_0 = 0x116E6001;
  1029cc:	d0a00017 	ldw	r2,-32768(gp)
  1029d0:	00c45bb4 	movhi	r3,4462
  1029d4:	18d80044 	addi	r3,r3,24577
  1029d8:	10c00315 	stw	r3,12(r2)
	Black_Interface->mac_1 = 0x00000F02;
  1029dc:	d0a00017 	ldw	r2,-32768(gp)
  1029e0:	00c3c084 	movi	r3,3842
  1029e4:	10c00415 	stw	r3,16(r2)
	// Specify the addresses of the PHY devices to be accessed through MDIO interface
	Black_Interface->mdio_addr0 = 0x11;
  1029e8:	d0a00017 	ldw	r2,-32768(gp)
  1029ec:	00c00444 	movi	r3,17
  1029f0:	10c00f15 	stw	r3,60(r2)
	Black_Interface->mdio_addr1 = 0x11;
  1029f4:	d0a00017 	ldw	r2,-32768(gp)
  1029f8:	00c00444 	movi	r3,17
  1029fc:	10c01015 	stw	r3,64(r2)
	if (macInit(Black_Interface, ((Switches->DATA) >> BLACK_OFFSET)& 0x3F) != SUCCESS) HALT
  102a00:	d0e00017 	ldw	r3,-32768(gp)
  102a04:	d0a00217 	ldw	r2,-32760(gp)
  102a08:	10800017 	ldw	r2,0(r2)
  102a0c:	10803fcc 	andi	r2,r2,255
  102a10:	10800fcc 	andi	r2,r2,63
  102a14:	1809883a 	mov	r4,r3
  102a18:	100b883a 	mov	r5,r2
  102a1c:	0101c880 	call	101c88 <macInit>
  102a20:	10803fcc 	andi	r2,r2,255
  102a24:	10000526 	beq	r2,zero,102a3c <main+0x574>
  102a28:	01000474 	movhi	r4,17
  102a2c:	21195404 	addi	r4,r4,25936
  102a30:	01048740 	call	104874 <puts>
  102a34:	00800044 	movi	r2,1
  102a38:	0003f906 	br	103a20 <main+0x1558>
	macPrintRegs(Black_Interface);
  102a3c:	d0a00017 	ldw	r2,-32768(gp)
  102a40:	1009883a 	mov	r4,r2
  102a44:	010223c0 	call	10223c <macPrintRegs>
	Black_Interface->pause_quant = 0xffff;
  102a48:	d0a00017 	ldw	r2,-32768(gp)
  102a4c:	00ffffd4 	movui	r3,65535
  102a50:	10c00615 	stw	r3,24(r2)
	Black_Interface->rx_section_empty = 4096 - 16;
  102a54:	d0a00017 	ldw	r2,-32768(gp)
  102a58:	00c3fc04 	movi	r3,4080
  102a5c:	10c00715 	stw	r3,28(r2)
	Black_Interface->rx_section_full = 0;
  102a60:	d0a00017 	ldw	r2,-32768(gp)
  102a64:	10000815 	stw	zero,32(r2)
	Black_Interface->tx_section_empty = 2048 - 16;
  102a68:	d0a00017 	ldw	r2,-32768(gp)
  102a6c:	00c1fc04 	movi	r3,2032
  102a70:	10c00915 	stw	r3,36(r2)
	Black_Interface->tx_section_full = 0;
  102a74:	d0a00017 	ldw	r2,-32768(gp)
  102a78:	10000a15 	stw	zero,40(r2)
	Black_Interface->rx_almost_empty = 8;
  102a7c:	d0a00017 	ldw	r2,-32768(gp)
  102a80:	00c00204 	movi	r3,8
  102a84:	10c00b15 	stw	r3,44(r2)
	Black_Interface->rx_almost_full = 8;
  102a88:	d0a00017 	ldw	r2,-32768(gp)
  102a8c:	00c00204 	movi	r3,8
  102a90:	10c00c15 	stw	r3,48(r2)
	Black_Interface->tx_almost_empty = 8;
  102a94:	d0a00017 	ldw	r2,-32768(gp)
  102a98:	00c00204 	movi	r3,8
  102a9c:	10c00d15 	stw	r3,52(r2)
	Black_Interface->tx_almost_full = 8;
  102aa0:	d0a00017 	ldw	r2,-32768(gp)
  102aa4:	00c00204 	movi	r3,8
  102aa8:	10c00e15 	stw	r3,56(r2)
	Black_Interface->holdoff_quant = 0x00ff;
  102aac:	d0a00017 	ldw	r2,-32768(gp)
  102ab0:	00c03fc4 	movi	r3,255
  102ab4:	10c01115 	stw	r3,68(r2)
	I printf("RX Almost Empty 0x%.4x\n",Black_Interface->rx_almost_empty);
	I printf("RX Almost full 0x%.4x\n",Black_Interface->rx_almost_full);
	I printf("TX Almost Empty 0x%.4x\n",Black_Interface->tx_almost_empty);
	I printf("TX Almost full 0x%.4x\n",Black_Interface->tx_almost_full);
	// Open the BlackRx DMA receive device
	BlackRx = alt_avalon_sgdma_open ("/dev/black_rx");
  102ab8:	01000474 	movhi	r4,17
  102abc:	21196404 	addi	r4,r4,26000
  102ac0:	0114c5c0 	call	114c5c <alt_avalon_sgdma_open>
  102ac4:	d0a71c15 	stw	r2,-25488(gp)
	if (BlackRx == NULL) {
  102ac8:	d0a71c17 	ldw	r2,-25488(gp)
  102acc:	1000021e 	bne	r2,zero,102ad8 <main+0x610>
		return -1;
  102ad0:	00bfffc4 	movi	r2,-1
  102ad4:	0003d206 	br	103a20 <main+0x1558>
	} else I printf("Opened BlackRx DMA receive device\n");
	// Open the BlackTx DMA transmit device
	BlackTx = alt_avalon_sgdma_open ("/dev/black_tx");
  102ad8:	01000474 	movhi	r4,17
  102adc:	21196804 	addi	r4,r4,26016
  102ae0:	0114c5c0 	call	114c5c <alt_avalon_sgdma_open>
  102ae4:	d0a71b15 	stw	r2,-25492(gp)
	if (BlackTx == NULL) {
  102ae8:	d0a71b17 	ldw	r2,-25492(gp)
  102aec:	1000021e 	bne	r2,zero,102af8 <main+0x630>

		return -1;
  102af0:	00bfffc4 	movi	r2,-1
  102af4:	0003ca06 	br	103a20 <main+0x1558>
	} else I printf("Opened BlackTx DMA transmit device\n");
	for (i = 0; i < NUMBER_BUFFERS-1; i++){
  102af8:	e03e5e15 	stw	zero,-1672(fp)
  102afc:	00001d06 	br	102b74 <main+0x6ac>
		black_rx_descriptor[i].next = &black_rx_descriptor[i+1];
  102b00:	e0be5e17 	ldw	r2,-1672(fp)
  102b04:	10800044 	addi	r2,r2,1
  102b08:	1006917a 	slli	r3,r2,5
  102b0c:	00800034 	movhi	r2,0
  102b10:	10818004 	addi	r2,r2,1536
  102b14:	1887883a 	add	r3,r3,r2
  102b18:	01000034 	movhi	r4,0
  102b1c:	21018004 	addi	r4,r4,1536
  102b20:	e0be5e17 	ldw	r2,-1672(fp)
  102b24:	1004917a 	slli	r2,r2,5
  102b28:	2085883a 	add	r2,r4,r2
  102b2c:	10800404 	addi	r2,r2,16
  102b30:	10c00015 	stw	r3,0(r2)
		black_tx_descriptor[i].next = &black_tx_descriptor[i+1];
  102b34:	e0be5e17 	ldw	r2,-1672(fp)
  102b38:	10800044 	addi	r2,r2,1
  102b3c:	1006917a 	slli	r3,r2,5
  102b40:	00800034 	movhi	r2,0
  102b44:	10824004 	addi	r2,r2,2304
  102b48:	1887883a 	add	r3,r3,r2
  102b4c:	01000034 	movhi	r4,0
  102b50:	21024004 	addi	r4,r4,2304
  102b54:	e0be5e17 	ldw	r2,-1672(fp)
  102b58:	1004917a 	slli	r2,r2,5
  102b5c:	2085883a 	add	r2,r4,r2
  102b60:	10800404 	addi	r2,r2,16
  102b64:	10c00015 	stw	r3,0(r2)
	BlackTx = alt_avalon_sgdma_open ("/dev/black_tx");
	if (BlackTx == NULL) {

		return -1;
	} else I printf("Opened BlackTx DMA transmit device\n");
	for (i = 0; i < NUMBER_BUFFERS-1; i++){
  102b68:	e0be5e17 	ldw	r2,-1672(fp)
  102b6c:	10800044 	addi	r2,r2,1
  102b70:	e0be5e15 	stw	r2,-1672(fp)
  102b74:	e0be5e17 	ldw	r2,-1672(fp)
  102b78:	108005d0 	cmplti	r2,r2,23
  102b7c:	103fe01e 	bne	r2,zero,102b00 <black_to_red_frame+0xfe102b00>
		black_rx_descriptor[i].next = &black_rx_descriptor[i+1];
		black_tx_descriptor[i].next = &black_tx_descriptor[i+1];
	}
	black_rx_descriptor[NUMBER_BUFFERS-1].next = &black_rx_descriptor[0];
  102b80:	00800034 	movhi	r2,0
  102b84:	10818004 	addi	r2,r2,1536
  102b88:	00c00034 	movhi	r3,0
  102b8c:	18c18004 	addi	r3,r3,1536
  102b90:	10c0bc15 	stw	r3,752(r2)
	black_tx_descriptor[NUMBER_BUFFERS-1].next = &black_tx_descriptor[0];
  102b94:	00800034 	movhi	r2,0
  102b98:	10824004 	addi	r2,r2,2304
  102b9c:	00c00034 	movhi	r3,0
  102ba0:	18c24004 	addi	r3,r3,2304
  102ba4:	10c0bc15 	stw	r3,752(r2)
	//Done With the Black Interface!
	LEDs->DATA |= 0x20;
  102ba8:	d0a00617 	ldw	r2,-32744(gp)
  102bac:	d0e00617 	ldw	r3,-32744(gp)
  102bb0:	18c00017 	ldw	r3,0(r3)
  102bb4:	18c00814 	ori	r3,r3,32
  102bb8:	10c00015 	stw	r3,0(r2)
	//Linked list initialization
	struct frame_list availableListRed, rxListRed, inspectListRed, controlListRed, encryptListRed, readyTxListRed, txListRed;
	struct frame_list availableListBlack, rxListBlack, inspectListBlack, controlListBlack, encryptListBlack, readyTxListBlack, txListBlack;
	struct list_head *pos, *q;
	struct frame_list *tmp;
	INIT_LIST_HEAD(&availableListRed.list);
  102bbc:	e0be8a04 	addi	r2,fp,-1496
  102bc0:	10800404 	addi	r2,r2,16
  102bc4:	e0be8e15 	stw	r2,-1480(fp)
  102bc8:	e0be8a04 	addi	r2,fp,-1496
  102bcc:	10800404 	addi	r2,r2,16
  102bd0:	e0be8f15 	stw	r2,-1476(fp)
	INIT_LIST_HEAD(&rxListRed.list);
  102bd4:	e0be9004 	addi	r2,fp,-1472
  102bd8:	10800404 	addi	r2,r2,16
  102bdc:	e0be9415 	stw	r2,-1456(fp)
  102be0:	e0be9004 	addi	r2,fp,-1472
  102be4:	10800404 	addi	r2,r2,16
  102be8:	e0be9515 	stw	r2,-1452(fp)
	INIT_LIST_HEAD(&inspectListRed.list);
  102bec:	e0be9604 	addi	r2,fp,-1448
  102bf0:	10800404 	addi	r2,r2,16
  102bf4:	e0be9a15 	stw	r2,-1432(fp)
  102bf8:	e0be9604 	addi	r2,fp,-1448
  102bfc:	10800404 	addi	r2,r2,16
  102c00:	e0be9b15 	stw	r2,-1428(fp)
	INIT_LIST_HEAD(&controlListRed.list);
  102c04:	e0be9c04 	addi	r2,fp,-1424
  102c08:	10800404 	addi	r2,r2,16
  102c0c:	e0bea015 	stw	r2,-1408(fp)
  102c10:	e0be9c04 	addi	r2,fp,-1424
  102c14:	10800404 	addi	r2,r2,16
  102c18:	e0bea115 	stw	r2,-1404(fp)
	INIT_LIST_HEAD(&encryptListRed.list);
  102c1c:	e0bea204 	addi	r2,fp,-1400
  102c20:	10800404 	addi	r2,r2,16
  102c24:	e0bea615 	stw	r2,-1384(fp)
  102c28:	e0bea204 	addi	r2,fp,-1400
  102c2c:	10800404 	addi	r2,r2,16
  102c30:	e0bea715 	stw	r2,-1380(fp)
	INIT_LIST_HEAD(&readyTxListRed.list);
  102c34:	e0bea804 	addi	r2,fp,-1376
  102c38:	10800404 	addi	r2,r2,16
  102c3c:	e0beac15 	stw	r2,-1360(fp)
  102c40:	e0bea804 	addi	r2,fp,-1376
  102c44:	10800404 	addi	r2,r2,16
  102c48:	e0bead15 	stw	r2,-1356(fp)
	INIT_LIST_HEAD(&txListRed.list);
  102c4c:	e0beae04 	addi	r2,fp,-1352
  102c50:	10800404 	addi	r2,r2,16
  102c54:	e0beb215 	stw	r2,-1336(fp)
  102c58:	e0beae04 	addi	r2,fp,-1352
  102c5c:	10800404 	addi	r2,r2,16
  102c60:	e0beb315 	stw	r2,-1332(fp)
	INIT_LIST_HEAD(&availableListBlack.list);
  102c64:	e0beb404 	addi	r2,fp,-1328
  102c68:	10800404 	addi	r2,r2,16
  102c6c:	e0beb815 	stw	r2,-1312(fp)
  102c70:	e0beb404 	addi	r2,fp,-1328
  102c74:	10800404 	addi	r2,r2,16
  102c78:	e0beb915 	stw	r2,-1308(fp)
	INIT_LIST_HEAD(&rxListBlack.list);
  102c7c:	e0beba04 	addi	r2,fp,-1304
  102c80:	10800404 	addi	r2,r2,16
  102c84:	e0bebe15 	stw	r2,-1288(fp)
  102c88:	e0beba04 	addi	r2,fp,-1304
  102c8c:	10800404 	addi	r2,r2,16
  102c90:	e0bebf15 	stw	r2,-1284(fp)
	INIT_LIST_HEAD(&inspectListBlack.list);
  102c94:	e0bec004 	addi	r2,fp,-1280
  102c98:	10800404 	addi	r2,r2,16
  102c9c:	e0bec415 	stw	r2,-1264(fp)
  102ca0:	e0bec004 	addi	r2,fp,-1280
  102ca4:	10800404 	addi	r2,r2,16
  102ca8:	e0bec515 	stw	r2,-1260(fp)
	INIT_LIST_HEAD(&encryptListBlack.list);
  102cac:	e0becc04 	addi	r2,fp,-1232
  102cb0:	10800404 	addi	r2,r2,16
  102cb4:	e0bed015 	stw	r2,-1216(fp)
  102cb8:	e0becc04 	addi	r2,fp,-1232
  102cbc:	10800404 	addi	r2,r2,16
  102cc0:	e0bed115 	stw	r2,-1212(fp)
	INIT_LIST_HEAD(&readyTxListBlack.list);
  102cc4:	e0bed204 	addi	r2,fp,-1208
  102cc8:	10800404 	addi	r2,r2,16
  102ccc:	e0bed615 	stw	r2,-1192(fp)
  102cd0:	e0bed204 	addi	r2,fp,-1208
  102cd4:	10800404 	addi	r2,r2,16
  102cd8:	e0bed715 	stw	r2,-1188(fp)
	INIT_LIST_HEAD(&txListBlack.list);
  102cdc:	e0bed804 	addi	r2,fp,-1184
  102ce0:	10800404 	addi	r2,r2,16
  102ce4:	e0bedc15 	stw	r2,-1168(fp)
  102ce8:	e0bed804 	addi	r2,fp,-1184
  102cec:	10800404 	addi	r2,r2,16
  102cf0:	e0bedd15 	stw	r2,-1164(fp)
	//Spool up the available lists
	struct frame_list temp[NUMBER_BUFFERS*2];
	for(i = 0; i < NUMBER_BUFFERS; i++){
  102cf4:	e03e5e15 	stw	zero,-1672(fp)
  102cf8:	00006d06 	br	102eb0 <main+0x9e8>
		temp[i].frameStart			= &(red_to_black_frame[i]);
  102cfc:	e13e5e17 	ldw	r4,-1672(fp)
  102d00:	01417c04 	movi	r5,1520
  102d04:	0103f1c0 	call	103f1c <__mulsi3>
  102d08:	1007883a 	mov	r3,r2
  102d0c:	00804034 	movhi	r2,256
  102d10:	10800004 	addi	r2,r2,0
  102d14:	18a1883a 	add	r16,r3,r2
  102d18:	e0be5e17 	ldw	r2,-1672(fp)
  102d1c:	1009883a 	mov	r4,r2
  102d20:	01400604 	movi	r5,24
  102d24:	0103f1c0 	call	103f1c <__mulsi3>
  102d28:	e0fe5e04 	addi	r3,fp,-1672
  102d2c:	1885883a 	add	r2,r3,r2
  102d30:	10808004 	addi	r2,r2,512
  102d34:	14000015 	stw	r16,0(r2)
		temp[i].frameLength 		= 0;
  102d38:	e0be5e17 	ldw	r2,-1672(fp)
  102d3c:	1009883a 	mov	r4,r2
  102d40:	01400604 	movi	r5,24
  102d44:	0103f1c0 	call	103f1c <__mulsi3>
  102d48:	e0fe5e04 	addi	r3,fp,-1672
  102d4c:	1885883a 	add	r2,r3,r2
  102d50:	10808104 	addi	r2,r2,516
  102d54:	10000015 	stw	zero,0(r2)
		temp[i].payloadLength 		= 0;
  102d58:	e0be5e17 	ldw	r2,-1672(fp)
  102d5c:	1009883a 	mov	r4,r2
  102d60:	01400604 	movi	r5,24
  102d64:	0103f1c0 	call	103f1c <__mulsi3>
  102d68:	e0fe5e04 	addi	r3,fp,-1672
  102d6c:	1885883a 	add	r2,r3,r2
  102d70:	10808304 	addi	r2,r2,524
  102d74:	10000015 	stw	zero,0(r2)
		temp[i].payloadStart		= 0;
  102d78:	e0be5e17 	ldw	r2,-1672(fp)
  102d7c:	1009883a 	mov	r4,r2
  102d80:	01400604 	movi	r5,24
  102d84:	0103f1c0 	call	103f1c <__mulsi3>
  102d88:	e0fe5e04 	addi	r3,fp,-1672
  102d8c:	1885883a 	add	r2,r3,r2
  102d90:	10808204 	addi	r2,r2,520
  102d94:	10000015 	stw	zero,0(r2)

		temp[i+NUMBER_BUFFERS].frameStart		= &(black_to_red_frame[i]);
  102d98:	e0be5e17 	ldw	r2,-1672(fp)
  102d9c:	14400604 	addi	r17,r2,24
  102da0:	e13e5e17 	ldw	r4,-1672(fp)
  102da4:	01417c04 	movi	r5,1520
  102da8:	0103f1c0 	call	103f1c <__mulsi3>
  102dac:	1007883a 	mov	r3,r2
  102db0:	00808034 	movhi	r2,512
  102db4:	10800004 	addi	r2,r2,0
  102db8:	18a1883a 	add	r16,r3,r2
  102dbc:	8809883a 	mov	r4,r17
  102dc0:	01400604 	movi	r5,24
  102dc4:	0103f1c0 	call	103f1c <__mulsi3>
  102dc8:	e0fe5e04 	addi	r3,fp,-1672
  102dcc:	1885883a 	add	r2,r3,r2
  102dd0:	10808004 	addi	r2,r2,512
  102dd4:	14000015 	stw	r16,0(r2)
		temp[i+NUMBER_BUFFERS].frameLength 		= 0;
  102dd8:	e0be5e17 	ldw	r2,-1672(fp)
  102ddc:	10800604 	addi	r2,r2,24
  102de0:	1009883a 	mov	r4,r2
  102de4:	01400604 	movi	r5,24
  102de8:	0103f1c0 	call	103f1c <__mulsi3>
  102dec:	e0fe5e04 	addi	r3,fp,-1672
  102df0:	1885883a 	add	r2,r3,r2
  102df4:	10808104 	addi	r2,r2,516
  102df8:	10000015 	stw	zero,0(r2)
		temp[i+NUMBER_BUFFERS].payloadLength 	= 0;
  102dfc:	e0be5e17 	ldw	r2,-1672(fp)
  102e00:	10800604 	addi	r2,r2,24
  102e04:	1009883a 	mov	r4,r2
  102e08:	01400604 	movi	r5,24
  102e0c:	0103f1c0 	call	103f1c <__mulsi3>
  102e10:	e0fe5e04 	addi	r3,fp,-1672
  102e14:	1885883a 	add	r2,r3,r2
  102e18:	10808304 	addi	r2,r2,524
  102e1c:	10000015 	stw	zero,0(r2)
		temp[i+NUMBER_BUFFERS].payloadStart		= 0;
  102e20:	e0be5e17 	ldw	r2,-1672(fp)
  102e24:	10800604 	addi	r2,r2,24
  102e28:	1009883a 	mov	r4,r2
  102e2c:	01400604 	movi	r5,24
  102e30:	0103f1c0 	call	103f1c <__mulsi3>
  102e34:	e0fe5e04 	addi	r3,fp,-1672
  102e38:	1885883a 	add	r2,r3,r2
  102e3c:	10808204 	addi	r2,r2,520
  102e40:	10000015 	stw	zero,0(r2)

		// add the new items 'temp' to the list of items in the availableList
		list_add_tail(&(temp[i].list), &(availableListRed.list));
  102e44:	e43ede04 	addi	r16,fp,-1160
  102e48:	e13e5e17 	ldw	r4,-1672(fp)
  102e4c:	01400604 	movi	r5,24
  102e50:	0103f1c0 	call	103f1c <__mulsi3>
  102e54:	10800404 	addi	r2,r2,16
  102e58:	8087883a 	add	r3,r16,r2
  102e5c:	e0be8a04 	addi	r2,fp,-1496
  102e60:	10800404 	addi	r2,r2,16
  102e64:	1809883a 	mov	r4,r3
  102e68:	100b883a 	mov	r5,r2
  102e6c:	01023f40 	call	1023f4 <list_add_tail>
		list_add_tail(&(temp[i+NUMBER_BUFFERS].list), &(availableListBlack.list));
  102e70:	e0be5e17 	ldw	r2,-1672(fp)
  102e74:	10800604 	addi	r2,r2,24
  102e78:	e43ede04 	addi	r16,fp,-1160
  102e7c:	1009883a 	mov	r4,r2
  102e80:	01400604 	movi	r5,24
  102e84:	0103f1c0 	call	103f1c <__mulsi3>
  102e88:	10800404 	addi	r2,r2,16
  102e8c:	8087883a 	add	r3,r16,r2
  102e90:	e0beb404 	addi	r2,fp,-1328
  102e94:	10800404 	addi	r2,r2,16
  102e98:	1809883a 	mov	r4,r3
  102e9c:	100b883a 	mov	r5,r2
  102ea0:	01023f40 	call	1023f4 <list_add_tail>
	INIT_LIST_HEAD(&encryptListBlack.list);
	INIT_LIST_HEAD(&readyTxListBlack.list);
	INIT_LIST_HEAD(&txListBlack.list);
	//Spool up the available lists
	struct frame_list temp[NUMBER_BUFFERS*2];
	for(i = 0; i < NUMBER_BUFFERS; i++){
  102ea4:	e0be5e17 	ldw	r2,-1672(fp)
  102ea8:	10800044 	addi	r2,r2,1
  102eac:	e0be5e15 	stw	r2,-1672(fp)
  102eb0:	e0be5e17 	ldw	r2,-1672(fp)
  102eb4:	10800610 	cmplti	r2,r2,24
  102eb8:	103f901e 	bne	r2,zero,102cfc <black_to_red_frame+0xfe102cfc>
		// add the new items 'temp' to the list of items in the availableList
		list_add_tail(&(temp[i].list), &(availableListRed.list));
		list_add_tail(&(temp[i+NUMBER_BUFFERS].list), &(availableListBlack.list));
	}

	i = 0;
  102ebc:	e03e5e15 	stw	zero,-1672(fp)
	I printf("\nRed Available List\n");
	for (pos = (&availableListRed.list)->next, q = pos->next; pos != (&availableListRed.list); pos = q, q = pos->next){
  102ec0:	e0be8e17 	ldw	r2,-1480(fp)
  102ec4:	e0be6115 	stw	r2,-1660(fp)
  102ec8:	e0be6117 	ldw	r2,-1660(fp)
  102ecc:	10800017 	ldw	r2,0(r2)
  102ed0:	e0be6215 	stw	r2,-1656(fp)
  102ed4:	00000806 	br	102ef8 <main+0xa30>
		 tmp = list_entry(pos, struct frame_list, list);
  102ed8:	e0be6117 	ldw	r2,-1660(fp)
  102edc:	10bffc04 	addi	r2,r2,-16
  102ee0:	e0be6315 	stw	r2,-1652(fp)
		list_add_tail(&(temp[i+NUMBER_BUFFERS].list), &(availableListBlack.list));
	}

	i = 0;
	I printf("\nRed Available List\n");
	for (pos = (&availableListRed.list)->next, q = pos->next; pos != (&availableListRed.list); pos = q, q = pos->next){
  102ee4:	e0be6217 	ldw	r2,-1656(fp)
  102ee8:	e0be6115 	stw	r2,-1660(fp)
  102eec:	e0be6117 	ldw	r2,-1660(fp)
  102ef0:	10800017 	ldw	r2,0(r2)
  102ef4:	e0be6215 	stw	r2,-1656(fp)
  102ef8:	e0be8a04 	addi	r2,fp,-1496
  102efc:	10800404 	addi	r2,r2,16
  102f00:	e0fe6117 	ldw	r3,-1660(fp)
  102f04:	18bff41e 	bne	r3,r2,102ed8 <black_to_red_frame+0xfe102ed8>
		 tmp = list_entry(pos, struct frame_list, list);
		 I printf("Address of %d is: %x\n", i++, tmp->frameStart);
	}
	i = 0;
  102f08:	e03e5e15 	stw	zero,-1672(fp)
	I printf("\nBlack Available List\n");
	for (pos = (&availableListBlack.list)->next, q = pos->next; pos != (&availableListBlack.list); pos = q, q = pos->next){
  102f0c:	e0beb817 	ldw	r2,-1312(fp)
  102f10:	e0be6115 	stw	r2,-1660(fp)
  102f14:	e0be6117 	ldw	r2,-1660(fp)
  102f18:	10800017 	ldw	r2,0(r2)
  102f1c:	e0be6215 	stw	r2,-1656(fp)
  102f20:	00000806 	br	102f44 <main+0xa7c>
		 tmp = list_entry(pos, struct frame_list, list);
  102f24:	e0be6117 	ldw	r2,-1660(fp)
  102f28:	10bffc04 	addi	r2,r2,-16
  102f2c:	e0be6315 	stw	r2,-1652(fp)
		 tmp = list_entry(pos, struct frame_list, list);
		 I printf("Address of %d is: %x\n", i++, tmp->frameStart);
	}
	i = 0;
	I printf("\nBlack Available List\n");
	for (pos = (&availableListBlack.list)->next, q = pos->next; pos != (&availableListBlack.list); pos = q, q = pos->next){
  102f30:	e0be6217 	ldw	r2,-1656(fp)
  102f34:	e0be6115 	stw	r2,-1660(fp)
  102f38:	e0be6117 	ldw	r2,-1660(fp)
  102f3c:	10800017 	ldw	r2,0(r2)
  102f40:	e0be6215 	stw	r2,-1656(fp)
  102f44:	e0beb404 	addi	r2,fp,-1328
  102f48:	10800404 	addi	r2,r2,16
  102f4c:	e0fe6117 	ldw	r3,-1660(fp)
  102f50:	18bff41e 	bne	r3,r2,102f24 <black_to_red_frame+0xfe102f24>
		 tmp = list_entry(pos, struct frame_list, list);
		 I printf("Address of %d is: %x\n", i++, tmp->frameStart);
	}

	//Wait for both interfaces to establish link
	while (((Black_Interface->mdio_PHY_PHYSSR & 0x400) != 0x400) || ((Red_Interface->mdio_PHY_PHYSSR & 0x400) != 0x400)){
  102f54:	0001883a 	nop
  102f58:	d0a00017 	ldw	r2,-32768(gp)
  102f5c:	10809117 	ldw	r2,580(r2)
  102f60:	1081000c 	andi	r2,r2,1024
  102f64:	103ffc26 	beq	r2,zero,102f58 <black_to_red_frame+0xfe102f58>
  102f68:	d0a00117 	ldw	r2,-32764(gp)
  102f6c:	10809117 	ldw	r2,580(r2)
  102f70:	1081000c 	andi	r2,r2,1024
  102f74:	103ff826 	beq	r2,zero,102f58 <black_to_red_frame+0xfe102f58>
    };
	LEDs->DATA |= 0xC0;
  102f78:	d0a00617 	ldw	r2,-32744(gp)
  102f7c:	d0e00617 	ldw	r3,-32744(gp)
  102f80:	18c00017 	ldw	r3,0(r3)
  102f84:	18c03014 	ori	r3,r3,192
  102f88:	10c00015 	stw	r3,0(r2)

	IOWR_ALTERA_AVALON_SGDMA_CONTROL(RED_RX_BASE, 0);
  102f8c:	0007883a 	mov	r3,zero
  102f90:	008000f4 	movhi	r2,3
  102f94:	10865404 	addi	r2,r2,6480
  102f98:	10c00035 	stwio	r3,0(r2)
	IOWR_ALTERA_AVALON_SGDMA_CONTROL(BLACK_RX_BASE, 0);
  102f9c:	0007883a 	mov	r3,zero
  102fa0:	008000f4 	movhi	r2,3
  102fa4:	10863404 	addi	r2,r2,6352
  102fa8:	10c00035 	stwio	r3,0(r2)
	I printf("Black Tx Control: %8x\n", (IORD_ALTERA_AVALON_SGDMA_CONTROL(BLACK_TX_BASE)));
	I printf("BLK 0x%.4x\n", Black_Interface->mdio_PHY_PHYSSR);
	I printf("RED 0x%.4x\n", Red_Interface->mdio_PHY_PHYSSR);

	// Enable read and write transfers, gigabit Ethernet operation, and CRC forwarding
	Black_Interface->command_config |= (CC_TX_ENA | CC_RX_ENA);
  102fac:	d0a00017 	ldw	r2,-32768(gp)
  102fb0:	d0e00017 	ldw	r3,-32768(gp)
  102fb4:	18c00217 	ldw	r3,8(r3)
  102fb8:	18c000d4 	ori	r3,r3,3
  102fbc:	10c00215 	stw	r3,8(r2)
	Red_Interface->command_config 	|= (CC_TX_ENA | CC_RX_ENA);
  102fc0:	d0a00117 	ldw	r2,-32764(gp)
  102fc4:	d0e00117 	ldw	r3,-32764(gp)
  102fc8:	18c00217 	ldw	r3,8(r3)
  102fcc:	18c000d4 	ori	r3,r3,3
  102fd0:	10c00215 	stw	r3,8(r2)
//////////////////////////////////////////////////////////////////////////////////////////////////////////////////////////////////
//	SUPER LOOP BEGINS HERE
//////////////////////////////////////////////////////////////////////////////////////////////////////////////////////////////////
	while (1){
		//LED Heartbeat!
			LEDs->DATA ^= 0x100;
  102fd4:	d0a00617 	ldw	r2,-32744(gp)
  102fd8:	d0e00617 	ldw	r3,-32744(gp)
  102fdc:	18c00017 	ldw	r3,0(r3)
  102fe0:	18c0401c 	xori	r3,r3,256
  102fe4:	10c00015 	stw	r3,0(r2)
//////////////////////////////////////////////////////////////////////////////////////////////////////////////////////////////////
//	1.	Inspect nodes from availableList*.list pump them into the respective rx descriptors, then move nodes to the rxList*.list
//////////////////////////////////////////////////////////////////////////////////////////////////////////////////////////////////
		D printf("\n----------Available List\n");
		D printf("-----Red\n");
		fstRedRx = -1;
  102fe8:	00bfffc4 	movi	r2,-1
  102fec:	e0be5f05 	stb	r2,-1668(fp)
		for (pos = (&availableListRed.list)->next, q = pos->next; pos != (&availableListRed.list); pos = q, q = pos->next){
  102ff0:	e0be8e17 	ldw	r2,-1480(fp)
  102ff4:	e0be6115 	stw	r2,-1660(fp)
  102ff8:	e0be6117 	ldw	r2,-1660(fp)
  102ffc:	10800017 	ldw	r2,0(r2)
  103000:	e0be6215 	stw	r2,-1656(fp)
  103004:	00003506 	br	1030dc <main+0xc14>
			tmp = list_entry(pos, struct frame_list, list);
  103008:	e0be6117 	ldw	r2,-1660(fp)
  10300c:	10bffc04 	addi	r2,r2,-16
  103010:	e0be6315 	stw	r2,-1652(fp)

			if(RedRx_FIFO.available == 1){
  103014:	e0be6717 	ldw	r2,-1636(fp)
  103018:	10800058 	cmpnei	r2,r2,1
  10301c:	1000011e 	bne	r2,zero,103024 <main+0xb5c>
				//No SPACE!
				break;
  103020:	00003206 	br	1030ec <main+0xc24>
			} else {

				//We have available room on the List, and Available Buffer Room
				if (fstRedRx == -1){
  103024:	e0be5f07 	ldb	r2,-1668(fp)
  103028:	10bfffd8 	cmpnei	r2,r2,-1
  10302c:	1000021e 	bne	r2,zero,103038 <main+0xb70>
					fstRedRx = RedRx_FIFO.WritePos;
  103030:	e0be6917 	ldw	r2,-1628(fp)
  103034:	e0be5f05 	stb	r2,-1668(fp)
				}

				if (RedRx_FIFO.WritePos == (RedRx_FIFO.size - 1)){
  103038:	e0fe6917 	ldw	r3,-1628(fp)
  10303c:	e0be6617 	ldw	r2,-1640(fp)
  103040:	10bfffc4 	addi	r2,r2,-1
  103044:	1880021e 	bne	r3,r2,103050 <main+0xb88>
					nxtRedRx = 0;
  103048:	e03e6005 	stb	zero,-1664(fp)
  10304c:	00000306 	br	10305c <main+0xb94>
				} else {
					nxtRedRx = (RedRx_FIFO.WritePos + 1);
  103050:	e0be6917 	ldw	r2,-1628(fp)
  103054:	10800044 	addi	r2,r2,1
  103058:	e0be6005 	stb	r2,-1664(fp)
				}
				//Construct and send new descriptors
				alt_avalon_sgdma_construct_stream_to_mem_desc(&red_rx_descriptor[RedRx_FIFO.WritePos],&red_rx_descriptor[nxtRedRx],tmp->frameStart,0,0);
  10305c:	e0be6917 	ldw	r2,-1628(fp)
  103060:	1006917a 	slli	r3,r2,5
  103064:	00800034 	movhi	r2,0
  103068:	10800004 	addi	r2,r2,0
  10306c:	1889883a 	add	r4,r3,r2
  103070:	e0be6007 	ldb	r2,-1664(fp)
  103074:	1006917a 	slli	r3,r2,5
  103078:	00800034 	movhi	r2,0
  10307c:	10800004 	addi	r2,r2,0
  103080:	1887883a 	add	r3,r3,r2
  103084:	e0be6317 	ldw	r2,-1652(fp)
  103088:	10800017 	ldw	r2,0(r2)
  10308c:	d8000015 	stw	zero,0(sp)
  103090:	180b883a 	mov	r5,r3
  103094:	100d883a 	mov	r6,r2
  103098:	000f883a 	mov	r7,zero
  10309c:	0114f500 	call	114f50 <alt_avalon_sgdma_construct_stream_to_mem_desc>
			}

			D printf("Available Space: %d,  \tRed WP: %d, \Red Nxt: %d,  \tAddr: 0x%08.8x\n", RedRx_FIFO.available, RedRx_FIFO.WritePos, nxtRedRx, tmp->frameStart);
			D printf("New Desc C: %x, S: %x, Next Desc C: %x, S: %x\n\n", red_rx_descriptor[RedRx_FIFO.WritePos].control, red_rx_descriptor[RedRx_FIFO.WritePos].status, red_rx_descriptor[nxtRedRx].control, red_rx_descriptor[nxtRedRx].status);
			list_move_tail(&(tmp->list), &(rxListRed.list));
  1030a0:	e0be6317 	ldw	r2,-1652(fp)
  1030a4:	10c00404 	addi	r3,r2,16
  1030a8:	e0be9004 	addi	r2,fp,-1472
  1030ac:	10800404 	addi	r2,r2,16
  1030b0:	1809883a 	mov	r4,r3
  1030b4:	100b883a 	mov	r5,r2
  1030b8:	01024740 	call	102474 <list_move_tail>

			//Increment the write position
			add_to_fifo(&RedRx_FIFO);
  1030bc:	e0be6604 	addi	r2,fp,-1640
  1030c0:	1009883a 	mov	r4,r2
  1030c4:	01019ec0 	call	1019ec <add_to_fifo>
//	1.	Inspect nodes from availableList*.list pump them into the respective rx descriptors, then move nodes to the rxList*.list
//////////////////////////////////////////////////////////////////////////////////////////////////////////////////////////////////
		D printf("\n----------Available List\n");
		D printf("-----Red\n");
		fstRedRx = -1;
		for (pos = (&availableListRed.list)->next, q = pos->next; pos != (&availableListRed.list); pos = q, q = pos->next){
  1030c8:	e0be6217 	ldw	r2,-1656(fp)
  1030cc:	e0be6115 	stw	r2,-1660(fp)
  1030d0:	e0be6117 	ldw	r2,-1660(fp)
  1030d4:	10800017 	ldw	r2,0(r2)
  1030d8:	e0be6215 	stw	r2,-1656(fp)
  1030dc:	e0be8a04 	addi	r2,fp,-1496
  1030e0:	10800404 	addi	r2,r2,16
  1030e4:	e0fe6117 	ldw	r3,-1660(fp)
  1030e8:	18bfc71e 	bne	r3,r2,103008 <black_to_red_frame+0xfe103008>

			//Increment the write position
			add_to_fifo(&RedRx_FIFO);
		}
		//Check if we actually made a new list of descriptors
		if(fstRedRx != -1){
  1030ec:	e0be5f07 	ldb	r2,-1668(fp)
  1030f0:	10bfffe0 	cmpeqi	r2,r2,-1
  1030f4:	10000f1e 	bne	r2,zero,103134 <main+0xc6c>
			D printf("REDRX BASE C: %x\n", (IORD_ALTERA_AVALON_SGDMA_CONTROL(RED_RX_BASE)));
			D printf("REDRX BASE S: %x\n", (IORD_ALTERA_AVALON_SGDMA_STATUS(RED_RX_BASE)));
			while ((IORD_ALTERA_AVALON_SGDMA_STATUS(RED_RX_BASE)) & 0x10 != 0){
  1030f8:	0001883a 	nop
  1030fc:	008000f4 	movhi	r2,3
  103100:	10865004 	addi	r2,r2,6464
  103104:	10800037 	ldwio	r2,0(r2)
  103108:	1080004c 	andi	r2,r2,1
  10310c:	103ffb1e 	bne	r2,zero,1030fc <black_to_red_frame+0xfe1030fc>
				D printf("F");
			};
			alt_avalon_sgdma_do_async_transfer(RedRx,&red_rx_descriptor[fstRedRx]);
  103110:	d0e71d17 	ldw	r3,-25484(gp)
  103114:	e0be5f07 	ldb	r2,-1668(fp)
  103118:	1008917a 	slli	r4,r2,5
  10311c:	00800034 	movhi	r2,0
  103120:	10800004 	addi	r2,r2,0
  103124:	2085883a 	add	r2,r4,r2
  103128:	1809883a 	mov	r4,r3
  10312c:	100b883a 	mov	r5,r2
  103130:	0114adc0 	call	114adc <alt_avalon_sgdma_do_async_transfer>
		}

		D printf("-----Black\n");
		fstBlackRx = -1;
  103134:	00bfffc4 	movi	r2,-1
  103138:	e0be5f85 	stb	r2,-1666(fp)
		for (pos = (&availableListBlack.list)->next, q = pos->next; pos != (&availableListBlack.list); pos = q, q = pos->next){
  10313c:	e0beb817 	ldw	r2,-1312(fp)
  103140:	e0be6115 	stw	r2,-1660(fp)
  103144:	e0be6117 	ldw	r2,-1660(fp)
  103148:	10800017 	ldw	r2,0(r2)
  10314c:	e0be6215 	stw	r2,-1656(fp)
  103150:	00003506 	br	103228 <main+0xd60>
			tmp = list_entry(pos, struct frame_list, list);
  103154:	e0be6117 	ldw	r2,-1660(fp)
  103158:	10bffc04 	addi	r2,r2,-16
  10315c:	e0be6315 	stw	r2,-1652(fp)

			if(BlackRx_FIFO.available == 1){
  103160:	e0be6f17 	ldw	r2,-1604(fp)
  103164:	10800058 	cmpnei	r2,r2,1
  103168:	1000011e 	bne	r2,zero,103170 <main+0xca8>
				//No SPACE!
				break;
  10316c:	00003206 	br	103238 <main+0xd70>
			} else {

				//We have available room on the List, and Available Buffer Room
				if (fstBlackRx == -1){
  103170:	e0be5f87 	ldb	r2,-1666(fp)
  103174:	10bfffd8 	cmpnei	r2,r2,-1
  103178:	1000021e 	bne	r2,zero,103184 <main+0xcbc>
					fstBlackRx = BlackRx_FIFO.WritePos;
  10317c:	e0be7117 	ldw	r2,-1596(fp)
  103180:	e0be5f85 	stb	r2,-1666(fp)
				}

				if (BlackRx_FIFO.WritePos == (BlackRx_FIFO.size - 1)){
  103184:	e0fe7117 	ldw	r3,-1596(fp)
  103188:	e0be6e17 	ldw	r2,-1608(fp)
  10318c:	10bfffc4 	addi	r2,r2,-1
  103190:	1880021e 	bne	r3,r2,10319c <main+0xcd4>
					nxtBlackRx = 0;
  103194:	e03e6085 	stb	zero,-1662(fp)
  103198:	00000306 	br	1031a8 <main+0xce0>
				} else {
					nxtBlackRx = (BlackRx_FIFO.WritePos + 1);
  10319c:	e0be7117 	ldw	r2,-1596(fp)
  1031a0:	10800044 	addi	r2,r2,1
  1031a4:	e0be6085 	stb	r2,-1662(fp)
				}
				//Construct and send new descriptors
				alt_avalon_sgdma_construct_stream_to_mem_desc(&black_rx_descriptor[BlackRx_FIFO.WritePos],&black_rx_descriptor[nxtBlackRx],tmp->frameStart,0,0);
  1031a8:	e0be7117 	ldw	r2,-1596(fp)
  1031ac:	1006917a 	slli	r3,r2,5
  1031b0:	00800034 	movhi	r2,0
  1031b4:	10818004 	addi	r2,r2,1536
  1031b8:	1889883a 	add	r4,r3,r2
  1031bc:	e0be6087 	ldb	r2,-1662(fp)
  1031c0:	1006917a 	slli	r3,r2,5
  1031c4:	00800034 	movhi	r2,0
  1031c8:	10818004 	addi	r2,r2,1536
  1031cc:	1887883a 	add	r3,r3,r2
  1031d0:	e0be6317 	ldw	r2,-1652(fp)
  1031d4:	10800017 	ldw	r2,0(r2)
  1031d8:	d8000015 	stw	zero,0(sp)
  1031dc:	180b883a 	mov	r5,r3
  1031e0:	100d883a 	mov	r6,r2
  1031e4:	000f883a 	mov	r7,zero
  1031e8:	0114f500 	call	114f50 <alt_avalon_sgdma_construct_stream_to_mem_desc>
			}

			D printf("Available Space: %d,  \tBlack WP: %d, \Black Nxt: %d,  \tAddr: 0x%08.8x\n", BlackRx_FIFO.available, BlackRx_FIFO.WritePos, nxtBlackRx, tmp->frameStart);
			D printf("New Desc C: %x, S: %x, Next Desc C: %x, S: %x\n\n", black_rx_descriptor[BlackRx_FIFO.WritePos].control, black_rx_descriptor[BlackRx_FIFO.WritePos].status, black_rx_descriptor[nxtBlackRx].control, black_rx_descriptor[nxtBlackRx].status);
			list_move_tail(&(tmp->list), &(rxListBlack.list));
  1031ec:	e0be6317 	ldw	r2,-1652(fp)
  1031f0:	10c00404 	addi	r3,r2,16
  1031f4:	e0beba04 	addi	r2,fp,-1304
  1031f8:	10800404 	addi	r2,r2,16
  1031fc:	1809883a 	mov	r4,r3
  103200:	100b883a 	mov	r5,r2
  103204:	01024740 	call	102474 <list_move_tail>

			//Increment the write position
			add_to_fifo(&BlackRx_FIFO);
  103208:	e0be6e04 	addi	r2,fp,-1608
  10320c:	1009883a 	mov	r4,r2
  103210:	01019ec0 	call	1019ec <add_to_fifo>
			alt_avalon_sgdma_do_async_transfer(RedRx,&red_rx_descriptor[fstRedRx]);
		}

		D printf("-----Black\n");
		fstBlackRx = -1;
		for (pos = (&availableListBlack.list)->next, q = pos->next; pos != (&availableListBlack.list); pos = q, q = pos->next){
  103214:	e0be6217 	ldw	r2,-1656(fp)
  103218:	e0be6115 	stw	r2,-1660(fp)
  10321c:	e0be6117 	ldw	r2,-1660(fp)
  103220:	10800017 	ldw	r2,0(r2)
  103224:	e0be6215 	stw	r2,-1656(fp)
  103228:	e0beb404 	addi	r2,fp,-1328
  10322c:	10800404 	addi	r2,r2,16
  103230:	e0fe6117 	ldw	r3,-1660(fp)
  103234:	18bfc71e 	bne	r3,r2,103154 <black_to_red_frame+0xfe103154>

			//Increment the write position
			add_to_fifo(&BlackRx_FIFO);
		}
		//Check if we actually made a new list of descriptors
		if(fstBlackRx != -1){
  103238:	e0be5f87 	ldb	r2,-1666(fp)
  10323c:	10bfffe0 	cmpeqi	r2,r2,-1
  103240:	10000f1e 	bne	r2,zero,103280 <main+0xdb8>
			D printf("BlackRX BASE C: %x\n", (IORD_ALTERA_AVALON_SGDMA_CONTROL(BLACK_RX_BASE)));
			D printf("BlackRX BASE S: %x\n", (IORD_ALTERA_AVALON_SGDMA_STATUS(BLACK_RX_BASE)));
			while ((IORD_ALTERA_AVALON_SGDMA_STATUS(BLACK_RX_BASE)) & 0x10 != 0){
  103244:	0001883a 	nop
  103248:	008000f4 	movhi	r2,3
  10324c:	10863004 	addi	r2,r2,6336
  103250:	10800037 	ldwio	r2,0(r2)
  103254:	1080004c 	andi	r2,r2,1
  103258:	103ffb1e 	bne	r2,zero,103248 <black_to_red_frame+0xfe103248>
				D printf("f");
			};
			alt_avalon_sgdma_do_async_transfer(BlackRx,&black_rx_descriptor[fstBlackRx]);
  10325c:	d0e71c17 	ldw	r3,-25488(gp)
  103260:	e0be5f87 	ldb	r2,-1666(fp)
  103264:	1008917a 	slli	r4,r2,5
  103268:	00800034 	movhi	r2,0
  10326c:	10818004 	addi	r2,r2,1536
  103270:	2085883a 	add	r2,r4,r2
  103274:	1809883a 	mov	r4,r3
  103278:	100b883a 	mov	r5,r2
  10327c:	0114adc0 	call	114adc <alt_avalon_sgdma_do_async_transfer>
//////////////////////////////////////////////////////////////////////////////////////////////////////////////////////////////////
//	2.	Check the rxList*.list for received frames, then move nodes to the inspectList*.list
//////////////////////////////////////////////////////////////////////////////////////////////////////////////////////////////////
		D printf("\n----------Rx List\n");
		D printf("-----Red\n");
		for (pos = (&rxListRed.list)->next, q = pos->next; pos != (&rxListRed.list); pos = q, q = pos->next){
  103280:	e0be9417 	ldw	r2,-1456(fp)
  103284:	e0be6115 	stw	r2,-1660(fp)
  103288:	e0be6117 	ldw	r2,-1660(fp)
  10328c:	10800017 	ldw	r2,0(r2)
  103290:	e0be6215 	stw	r2,-1656(fp)
  103294:	00002d06 	br	10334c <main+0xe84>

			if((red_rx_descriptor[RedRx_FIFO.ReadPos].control & ALTERA_AVALON_SGDMA_DESCRIPTOR_CONTROL_OWNED_BY_HW_MSK) != 0){
  103298:	e0be6817 	ldw	r2,-1632(fp)
  10329c:	00c00034 	movhi	r3,0
  1032a0:	18c00004 	addi	r3,r3,0
  1032a4:	1004917a 	slli	r2,r2,5
  1032a8:	1885883a 	add	r2,r3,r2
  1032ac:	10800704 	addi	r2,r2,28
  1032b0:	108000c3 	ldbu	r2,3(r2)
  1032b4:	10803fcc 	andi	r2,r2,255
  1032b8:	1080201c 	xori	r2,r2,128
  1032bc:	10bfe004 	addi	r2,r2,-128
  1032c0:	1000010e 	bge	r2,zero,1032c8 <main+0xe00>
				break;
  1032c4:	00002506 	br	10335c <main+0xe94>
			}
			D printf ("red_rx_descriptor[%d].control: %x\tred_rx_descriptor[%d].status: %x\t", RedRx_FIFO.ReadPos, red_rx_descriptor[RedRx_FIFO.ReadPos].control, red_rx_descriptor[RedRx_FIFO.ReadPos].status);
			tmp = list_entry((&rxListRed.list)->next, struct frame_list, list);
  1032c8:	e0be9417 	ldw	r2,-1456(fp)
  1032cc:	10bffc04 	addi	r2,r2,-16
  1032d0:	e0be6315 	stw	r2,-1652(fp)
			tmp->frameLength = (unsigned short) red_rx_descriptor[RedRx_FIFO.ReadPos].actual_bytes_transferred;
  1032d4:	e0be6817 	ldw	r2,-1632(fp)
  1032d8:	00c00034 	movhi	r3,0
  1032dc:	18c00004 	addi	r3,r3,0
  1032e0:	1004917a 	slli	r2,r2,5
  1032e4:	1885883a 	add	r2,r3,r2
  1032e8:	10800704 	addi	r2,r2,28
  1032ec:	1080000b 	ldhu	r2,0(r2)
  1032f0:	10ffffcc 	andi	r3,r2,65535
  1032f4:	e0be6317 	ldw	r2,-1652(fp)
  1032f8:	10c00115 	stw	r3,4(r2)
			D printf("Received frame, start: 0x%08.8x length: %d\n", tmp->frameStart, tmp->frameLength);

			list_move_tail(&(tmp->list), &(inspectListRed.list));
  1032fc:	e0be6317 	ldw	r2,-1652(fp)
  103300:	10c00404 	addi	r3,r2,16
  103304:	e0be9604 	addi	r2,fp,-1448
  103308:	10800404 	addi	r2,r2,16
  10330c:	1809883a 	mov	r4,r3
  103310:	100b883a 	mov	r5,r2
  103314:	01024740 	call	102474 <list_move_tail>

			//Increment the read position
			remove_from_fifo(&RedRx_FIFO);
  103318:	e0be6604 	addi	r2,fp,-1640
  10331c:	1009883a 	mov	r4,r2
  103320:	0101a540 	call	101a54 <remove_from_fifo>
			HEX->redFrames += 1;
  103324:	d0a00317 	ldw	r2,-32756(gp)
  103328:	d0e00317 	ldw	r3,-32756(gp)
  10332c:	18c0008b 	ldhu	r3,2(r3)
  103330:	18c00044 	addi	r3,r3,1
  103334:	10c0008d 	sth	r3,2(r2)
//////////////////////////////////////////////////////////////////////////////////////////////////////////////////////////////////
//	2.	Check the rxList*.list for received frames, then move nodes to the inspectList*.list
//////////////////////////////////////////////////////////////////////////////////////////////////////////////////////////////////
		D printf("\n----------Rx List\n");
		D printf("-----Red\n");
		for (pos = (&rxListRed.list)->next, q = pos->next; pos != (&rxListRed.list); pos = q, q = pos->next){
  103338:	e0be6217 	ldw	r2,-1656(fp)
  10333c:	e0be6115 	stw	r2,-1660(fp)
  103340:	e0be6117 	ldw	r2,-1660(fp)
  103344:	10800017 	ldw	r2,0(r2)
  103348:	e0be6215 	stw	r2,-1656(fp)
  10334c:	e0be9004 	addi	r2,fp,-1472
  103350:	10800404 	addi	r2,r2,16
  103354:	e0fe6117 	ldw	r3,-1660(fp)
  103358:	18bfcf1e 	bne	r3,r2,103298 <black_to_red_frame+0xfe103298>
			remove_from_fifo(&RedRx_FIFO);
			HEX->redFrames += 1;
		}

		D printf("-----Black\n");
		for (pos = (&rxListBlack.list)->next, q = pos->next; pos != (&rxListBlack.list); pos = q, q = pos->next){
  10335c:	e0bebe17 	ldw	r2,-1288(fp)
  103360:	e0be6115 	stw	r2,-1660(fp)
  103364:	e0be6117 	ldw	r2,-1660(fp)
  103368:	10800017 	ldw	r2,0(r2)
  10336c:	e0be6215 	stw	r2,-1656(fp)
  103370:	00002d06 	br	103428 <main+0xf60>

			if((black_rx_descriptor[BlackRx_FIFO.ReadPos].control & ALTERA_AVALON_SGDMA_DESCRIPTOR_CONTROL_OWNED_BY_HW_MSK) != 0){
  103374:	e0be7017 	ldw	r2,-1600(fp)
  103378:	00c00034 	movhi	r3,0
  10337c:	18c18004 	addi	r3,r3,1536
  103380:	1004917a 	slli	r2,r2,5
  103384:	1885883a 	add	r2,r3,r2
  103388:	10800704 	addi	r2,r2,28
  10338c:	108000c3 	ldbu	r2,3(r2)
  103390:	10803fcc 	andi	r2,r2,255
  103394:	1080201c 	xori	r2,r2,128
  103398:	10bfe004 	addi	r2,r2,-128
  10339c:	1000010e 	bge	r2,zero,1033a4 <main+0xedc>
				break;
  1033a0:	00002506 	br	103438 <main+0xf70>
			}
			D printf ("black_rx_descriptor[%d].control: %x\tblack_rx_descriptor[%d].status: %x\t", BlackRx_FIFO.ReadPos, black_rx_descriptor[BlackRx_FIFO.ReadPos].control, black_rx_descriptor[BlackRx_FIFO.ReadPos].status);
			tmp = list_entry((&rxListBlack.list)->next, struct frame_list, list);
  1033a4:	e0bebe17 	ldw	r2,-1288(fp)
  1033a8:	10bffc04 	addi	r2,r2,-16
  1033ac:	e0be6315 	stw	r2,-1652(fp)
			tmp->frameLength = (unsigned short) black_rx_descriptor[BlackRx_FIFO.ReadPos].actual_bytes_transferred;
  1033b0:	e0be7017 	ldw	r2,-1600(fp)
  1033b4:	00c00034 	movhi	r3,0
  1033b8:	18c18004 	addi	r3,r3,1536
  1033bc:	1004917a 	slli	r2,r2,5
  1033c0:	1885883a 	add	r2,r3,r2
  1033c4:	10800704 	addi	r2,r2,28
  1033c8:	1080000b 	ldhu	r2,0(r2)
  1033cc:	10ffffcc 	andi	r3,r2,65535
  1033d0:	e0be6317 	ldw	r2,-1652(fp)
  1033d4:	10c00115 	stw	r3,4(r2)
			D printf("Received frame, start: 0x%08.8x length: %d\n", tmp->frameStart, tmp->frameLength);

			list_move_tail(&(tmp->list), &(inspectListBlack.list));
  1033d8:	e0be6317 	ldw	r2,-1652(fp)
  1033dc:	10c00404 	addi	r3,r2,16
  1033e0:	e0bec004 	addi	r2,fp,-1280
  1033e4:	10800404 	addi	r2,r2,16
  1033e8:	1809883a 	mov	r4,r3
  1033ec:	100b883a 	mov	r5,r2
  1033f0:	01024740 	call	102474 <list_move_tail>

			//Increment the read position
			remove_from_fifo(&BlackRx_FIFO);
  1033f4:	e0be6e04 	addi	r2,fp,-1608
  1033f8:	1009883a 	mov	r4,r2
  1033fc:	0101a540 	call	101a54 <remove_from_fifo>
			HEX->blackFrames += 1;
  103400:	d0a00317 	ldw	r2,-32756(gp)
  103404:	d0e00317 	ldw	r3,-32756(gp)
  103408:	18c0000b 	ldhu	r3,0(r3)
  10340c:	18c00044 	addi	r3,r3,1
  103410:	10c0000d 	sth	r3,0(r2)
			remove_from_fifo(&RedRx_FIFO);
			HEX->redFrames += 1;
		}

		D printf("-----Black\n");
		for (pos = (&rxListBlack.list)->next, q = pos->next; pos != (&rxListBlack.list); pos = q, q = pos->next){
  103414:	e0be6217 	ldw	r2,-1656(fp)
  103418:	e0be6115 	stw	r2,-1660(fp)
  10341c:	e0be6117 	ldw	r2,-1660(fp)
  103420:	10800017 	ldw	r2,0(r2)
  103424:	e0be6215 	stw	r2,-1656(fp)
  103428:	e0beba04 	addi	r2,fp,-1304
  10342c:	10800404 	addi	r2,r2,16
  103430:	e0fe6117 	ldw	r3,-1660(fp)
  103434:	18bfcf1e 	bne	r3,r2,103374 <black_to_red_frame+0xfe103374>
//////////////////////////////////////////////////////////////////////////////////////////////////////////////////////////////////
		D printf("\n----------Inspect List\n");
		D printf("-----Red\n");
		uint packetNumber;

		packetNumber = 0;
  103438:	e03e6415 	stw	zero,-1648(fp)
		for (pos = (&inspectListRed.list)->next, q = pos->next; pos != (&inspectListRed.list); pos = q, q = pos->next){
  10343c:	e0be9a17 	ldw	r2,-1432(fp)
  103440:	e0be6115 	stw	r2,-1660(fp)
  103444:	e0be6117 	ldw	r2,-1660(fp)
  103448:	10800017 	ldw	r2,0(r2)
  10344c:	e0be6215 	stw	r2,-1656(fp)
  103450:	00002a06 	br	1034fc <main+0x1034>
			 tmp = list_entry(pos, struct frame_list, list);
  103454:	e0be6117 	ldw	r2,-1660(fp)
  103458:	10bffc04 	addi	r2,r2,-16
  10345c:	e0be6315 	stw	r2,-1652(fp)
			 unsigned char packetType;
			 D printf("Frame Addr: %x\n", tmp->frameStart+2);

			 D printf("\nRed Interface Packet!\n");
			 D PrintPacket(tmp->frameStart, tmp->frameLength);
			 packetType = PacketProcessor_Red_Rx((tmp->frameStart)+2);
  103460:	e0be6317 	ldw	r2,-1652(fp)
  103464:	10800017 	ldw	r2,0(r2)
  103468:	10800084 	addi	r2,r2,2
  10346c:	1009883a 	mov	r4,r2
  103470:	0100c240 	call	100c24 <PacketProcessor_Red_Rx>
  103474:	e0be6505 	stb	r2,-1644(fp)

			 //ignored packet
			 if (packetType == 0){
  103478:	e0be6503 	ldbu	r2,-1644(fp)
  10347c:	1000081e 	bne	r2,zero,1034a0 <main+0xfd8>
				 D printf("Ignored packet\n");
				 list_move_tail(&(tmp->list), &(readyTxListRed.list));
  103480:	e0be6317 	ldw	r2,-1652(fp)
  103484:	10c00404 	addi	r3,r2,16
  103488:	e0bea804 	addi	r2,fp,-1376
  10348c:	10800404 	addi	r2,r2,16
  103490:	1809883a 	mov	r4,r3
  103494:	100b883a 	mov	r5,r2
  103498:	01024740 	call	102474 <list_move_tail>
  10349c:	00001206 	br	1034e8 <main+0x1020>

			 //encrypted packet
			 } else if (packetType == 2){
  1034a0:	e0be6503 	ldbu	r2,-1644(fp)
  1034a4:	10800098 	cmpnei	r2,r2,2
  1034a8:	1000081e 	bne	r2,zero,1034cc <main+0x1004>
				 D printf("Encrypted packet\n");
				 D PrintPacket(tmp->frameStart, tmp->frameLength);
				 list_move_tail(&(tmp->list), &(readyTxListRed.list));
  1034ac:	e0be6317 	ldw	r2,-1652(fp)
  1034b0:	10c00404 	addi	r3,r2,16
  1034b4:	e0bea804 	addi	r2,fp,-1376
  1034b8:	10800404 	addi	r2,r2,16
  1034bc:	1809883a 	mov	r4,r3
  1034c0:	100b883a 	mov	r5,r2
  1034c4:	01024740 	call	102474 <list_move_tail>
  1034c8:	00000706 	br	1034e8 <main+0x1020>

			 //admin packet
			 } else {
				 D printf("Admin packet\n");
				 D PrintPacket(tmp->frameStart, tmp->frameLength);
				 list_move_tail(&(tmp->list), &(availableListRed.list));
  1034cc:	e0be6317 	ldw	r2,-1652(fp)
  1034d0:	10c00404 	addi	r3,r2,16
  1034d4:	e0be8a04 	addi	r2,fp,-1496
  1034d8:	10800404 	addi	r2,r2,16
  1034dc:	1809883a 	mov	r4,r3
  1034e0:	100b883a 	mov	r5,r2
  1034e4:	01024740 	call	102474 <list_move_tail>
		D printf("\n----------Inspect List\n");
		D printf("-----Red\n");
		uint packetNumber;

		packetNumber = 0;
		for (pos = (&inspectListRed.list)->next, q = pos->next; pos != (&inspectListRed.list); pos = q, q = pos->next){
  1034e8:	e0be6217 	ldw	r2,-1656(fp)
  1034ec:	e0be6115 	stw	r2,-1660(fp)
  1034f0:	e0be6117 	ldw	r2,-1660(fp)
  1034f4:	10800017 	ldw	r2,0(r2)
  1034f8:	e0be6215 	stw	r2,-1656(fp)
  1034fc:	e0be9604 	addi	r2,fp,-1448
  103500:	10800404 	addi	r2,r2,16
  103504:	e0fe6117 	ldw	r3,-1660(fp)
  103508:	18bfd21e 	bne	r3,r2,103454 <black_to_red_frame+0xfe103454>
				 list_move_tail(&(tmp->list), &(availableListRed.list));
			 }
		}

		D printf("-----Black\n");
		for (pos = (&inspectListBlack.list)->next, q = pos->next; pos != (&inspectListBlack.list); pos = q, q = pos->next){
  10350c:	e0bec417 	ldw	r2,-1264(fp)
  103510:	e0be6115 	stw	r2,-1660(fp)
  103514:	e0be6117 	ldw	r2,-1660(fp)
  103518:	10800017 	ldw	r2,0(r2)
  10351c:	e0be6215 	stw	r2,-1656(fp)
  103520:	00002206 	br	1035ac <main+0x10e4>
			 tmp = list_entry(pos, struct frame_list, list);
  103524:	e0be6117 	ldw	r2,-1660(fp)
  103528:	10bffc04 	addi	r2,r2,-16
  10352c:	e0be6315 	stw	r2,-1652(fp)
			 unsigned char packetType;
			 D printf("Frame Addr: %x\n", tmp->frameStart+2);

			 D printf("\nBlack Interface Packet!\n");
			 D PrintPacket(tmp->frameStart, tmp->frameLength);
			 packetType = PacketProcessor_Black_Rx((tmp->frameStart)+2);
  103530:	e0be6317 	ldw	r2,-1652(fp)
  103534:	10800017 	ldw	r2,0(r2)
  103538:	10800084 	addi	r2,r2,2
  10353c:	1009883a 	mov	r4,r2
  103540:	01008500 	call	100850 <PacketProcessor_Black_Rx>
  103544:	e0be6545 	stb	r2,-1643(fp)

			 //ignored packet
			 if (packetType == 0){
  103548:	e0be6543 	ldbu	r2,-1643(fp)
  10354c:	1000081e 	bne	r2,zero,103570 <main+0x10a8>
				 D printf("Ignored packet\n");
				 list_move_tail(&(tmp->list), &(readyTxListBlack.list));
  103550:	e0be6317 	ldw	r2,-1652(fp)
  103554:	10c00404 	addi	r3,r2,16
  103558:	e0bed204 	addi	r2,fp,-1208
  10355c:	10800404 	addi	r2,r2,16
  103560:	1809883a 	mov	r4,r3
  103564:	100b883a 	mov	r5,r2
  103568:	01024740 	call	102474 <list_move_tail>
  10356c:	00000a06 	br	103598 <main+0x10d0>

			 //encrypted packet
			 } else if (packetType == 2){
  103570:	e0be6543 	ldbu	r2,-1643(fp)
  103574:	10800098 	cmpnei	r2,r2,2
  103578:	1000071e 	bne	r2,zero,103598 <main+0x10d0>
				 D printf("Encrypted, now decrypted, packet\n");
				 D PrintPacket(tmp->frameStart, tmp->frameLength);
				 list_move_tail(&(tmp->list), &(readyTxListBlack.list));
  10357c:	e0be6317 	ldw	r2,-1652(fp)
  103580:	10c00404 	addi	r3,r2,16
  103584:	e0bed204 	addi	r2,fp,-1208
  103588:	10800404 	addi	r2,r2,16
  10358c:	1809883a 	mov	r4,r3
  103590:	100b883a 	mov	r5,r2
  103594:	01024740 	call	102474 <list_move_tail>
				 list_move_tail(&(tmp->list), &(availableListRed.list));
			 }
		}

		D printf("-----Black\n");
		for (pos = (&inspectListBlack.list)->next, q = pos->next; pos != (&inspectListBlack.list); pos = q, q = pos->next){
  103598:	e0be6217 	ldw	r2,-1656(fp)
  10359c:	e0be6115 	stw	r2,-1660(fp)
  1035a0:	e0be6117 	ldw	r2,-1660(fp)
  1035a4:	10800017 	ldw	r2,0(r2)
  1035a8:	e0be6215 	stw	r2,-1656(fp)
  1035ac:	e0bec004 	addi	r2,fp,-1280
  1035b0:	10800404 	addi	r2,r2,16
  1035b4:	e0fe6117 	ldw	r3,-1660(fp)
  1035b8:	18bfda1e 	bne	r3,r2,103524 <black_to_red_frame+0xfe103524>
//////////////////////////////////////////////////////////////////////////////////////////////////////////////////////////////////
//	6.	Inspect nodes from readyTxList*.list pump them into the respective tx descriptors, then move nodes to the txList*.list
//////////////////////////////////////////////////////////////////////////////////////////////////////////////////////////////////
		D printf("\n----------ReadyTx List\n");
		D printf("-----Red\n");
		fstBlackTx = -1;
  1035bc:	00bfffc4 	movi	r2,-1
  1035c0:	e0be5fc5 	stb	r2,-1665(fp)
		for (pos = (&readyTxListRed.list)->next, q = pos->next; pos != (&readyTxListRed.list); pos = q, q = pos->next){
  1035c4:	e0beac17 	ldw	r2,-1360(fp)
  1035c8:	e0be6115 	stw	r2,-1660(fp)
  1035cc:	e0be6117 	ldw	r2,-1660(fp)
  1035d0:	10800017 	ldw	r2,0(r2)
  1035d4:	e0be6215 	stw	r2,-1656(fp)
  1035d8:	00003c06 	br	1036cc <main+0x1204>
			tmp = list_entry(pos, struct frame_list, list);
  1035dc:	e0be6117 	ldw	r2,-1660(fp)
  1035e0:	10bffc04 	addi	r2,r2,-16
  1035e4:	e0be6315 	stw	r2,-1652(fp)
			if(BlackTx_FIFO.available == 1){
  1035e8:	e0be7317 	ldw	r2,-1588(fp)
  1035ec:	10800058 	cmpnei	r2,r2,1
  1035f0:	1000011e 	bne	r2,zero,1035f8 <main+0x1130>
				//No SPACE!
				break;
  1035f4:	00003906 	br	1036dc <main+0x1214>
			} else {
				//We have available room on the List, and Available Buffer Room
				if (fstBlackTx == -1){
  1035f8:	e0be5fc7 	ldb	r2,-1665(fp)
  1035fc:	10bfffd8 	cmpnei	r2,r2,-1
  103600:	1000021e 	bne	r2,zero,10360c <main+0x1144>
					fstBlackTx = BlackTx_FIFO.WritePos;
  103604:	e0be7517 	ldw	r2,-1580(fp)
  103608:	e0be5fc5 	stb	r2,-1665(fp)
				}
				if (BlackTx_FIFO.WritePos == (BlackTx_FIFO.size - 1)){
  10360c:	e0fe7517 	ldw	r3,-1580(fp)
  103610:	e0be7217 	ldw	r2,-1592(fp)
  103614:	10bfffc4 	addi	r2,r2,-1
  103618:	1880021e 	bne	r3,r2,103624 <main+0x115c>
					nxtBlackTx = 0;
  10361c:	e03e60c5 	stb	zero,-1661(fp)
  103620:	00000306 	br	103630 <main+0x1168>
				} else {
					nxtBlackTx = (BlackTx_FIFO.WritePos + 1);
  103624:	e0be7517 	ldw	r2,-1580(fp)
  103628:	10800044 	addi	r2,r2,1
  10362c:	e0be60c5 	stb	r2,-1661(fp)
				}
				//Construct and send new descriptors
				alt_avalon_sgdma_construct_mem_to_stream_desc(&black_tx_descriptor[BlackTx_FIFO.WritePos],&black_tx_descriptor[nxtBlackTx],tmp->frameStart,tmp->frameLength,0,1,1,0);
  103630:	e0be7517 	ldw	r2,-1580(fp)
  103634:	1006917a 	slli	r3,r2,5
  103638:	00800034 	movhi	r2,0
  10363c:	10824004 	addi	r2,r2,2304
  103640:	1889883a 	add	r4,r3,r2
  103644:	e0be60c7 	ldb	r2,-1661(fp)
  103648:	1006917a 	slli	r3,r2,5
  10364c:	00800034 	movhi	r2,0
  103650:	10824004 	addi	r2,r2,2304
  103654:	188b883a 	add	r5,r3,r2
  103658:	e0be6317 	ldw	r2,-1652(fp)
  10365c:	10c00017 	ldw	r3,0(r2)
  103660:	e0be6317 	ldw	r2,-1652(fp)
  103664:	10800117 	ldw	r2,4(r2)
  103668:	10bfffcc 	andi	r2,r2,65535
  10366c:	d8000015 	stw	zero,0(sp)
  103670:	01800044 	movi	r6,1
  103674:	d9800115 	stw	r6,4(sp)
  103678:	01800044 	movi	r6,1
  10367c:	d9800215 	stw	r6,8(sp)
  103680:	d8000315 	stw	zero,12(sp)
  103684:	180d883a 	mov	r6,r3
  103688:	100f883a 	mov	r7,r2
  10368c:	0114fe80 	call	114fe8 <alt_avalon_sgdma_construct_mem_to_stream_desc>
			}

			D printf("Available Space: %d,  \tBlack WP: %d, \Black Nxt: %d,  \tAddr: 0x%08.8x\n", BlackTx_FIFO.available, BlackTx_FIFO.WritePos, nxtBlackTx, tmp->frameStart);
			D printf("New Desc C: %x, S: %x, Next Desc C: %x, S: %x\n\n", black_tx_descriptor[BlackTx_FIFO.WritePos].control, black_tx_descriptor[BlackTx_FIFO.WritePos].status, black_tx_descriptor[nxtBlackTx].control, black_tx_descriptor[nxtBlackTx].status);
			list_move_tail(&(tmp->list), &(txListBlack.list));
  103690:	e0be6317 	ldw	r2,-1652(fp)
  103694:	10c00404 	addi	r3,r2,16
  103698:	e0bed804 	addi	r2,fp,-1184
  10369c:	10800404 	addi	r2,r2,16
  1036a0:	1809883a 	mov	r4,r3
  1036a4:	100b883a 	mov	r5,r2
  1036a8:	01024740 	call	102474 <list_move_tail>

			//Increment the write position
			add_to_fifo(&BlackTx_FIFO);
  1036ac:	e0be7204 	addi	r2,fp,-1592
  1036b0:	1009883a 	mov	r4,r2
  1036b4:	01019ec0 	call	1019ec <add_to_fifo>
//	6.	Inspect nodes from readyTxList*.list pump them into the respective tx descriptors, then move nodes to the txList*.list
//////////////////////////////////////////////////////////////////////////////////////////////////////////////////////////////////
		D printf("\n----------ReadyTx List\n");
		D printf("-----Red\n");
		fstBlackTx = -1;
		for (pos = (&readyTxListRed.list)->next, q = pos->next; pos != (&readyTxListRed.list); pos = q, q = pos->next){
  1036b8:	e0be6217 	ldw	r2,-1656(fp)
  1036bc:	e0be6115 	stw	r2,-1660(fp)
  1036c0:	e0be6117 	ldw	r2,-1660(fp)
  1036c4:	10800017 	ldw	r2,0(r2)
  1036c8:	e0be6215 	stw	r2,-1656(fp)
  1036cc:	e0bea804 	addi	r2,fp,-1376
  1036d0:	10800404 	addi	r2,r2,16
  1036d4:	e0fe6117 	ldw	r3,-1660(fp)
  1036d8:	18bfc01e 	bne	r3,r2,1035dc <black_to_red_frame+0xfe1035dc>

			//Increment the write position
			add_to_fifo(&BlackTx_FIFO);
		}
		//Check if we actually made a new list of descriptors
		if(fstBlackTx != -1){
  1036dc:	e0be5fc7 	ldb	r2,-1665(fp)
  1036e0:	10bfffe0 	cmpeqi	r2,r2,-1
  1036e4:	10000f1e 	bne	r2,zero,103724 <main+0x125c>
			D printf("RedTX BASE: %x\n", (IORD_ALTERA_AVALON_SGDMA_CONTROL(RED_TX_BASE)));
			D printf("RedTX BASE: %x\n", (IORD_ALTERA_AVALON_SGDMA_STATUS(RED_TX_BASE)));
			while ((*(unsigned int*)(BlackTx->base) & 0x10) == 0x10){};
  1036e8:	0001883a 	nop
  1036ec:	d0a71b17 	ldw	r2,-25492(gp)
  1036f0:	10800317 	ldw	r2,12(r2)
  1036f4:	10800017 	ldw	r2,0(r2)
  1036f8:	1080040c 	andi	r2,r2,16
  1036fc:	103ffb1e 	bne	r2,zero,1036ec <black_to_red_frame+0xfe1036ec>
			alt_avalon_sgdma_do_async_transfer(BlackTx,&black_tx_descriptor[fstBlackTx]);
  103700:	d0e71b17 	ldw	r3,-25492(gp)
  103704:	e0be5fc7 	ldb	r2,-1665(fp)
  103708:	1008917a 	slli	r4,r2,5
  10370c:	00800034 	movhi	r2,0
  103710:	10824004 	addi	r2,r2,2304
  103714:	2085883a 	add	r2,r4,r2
  103718:	1809883a 	mov	r4,r3
  10371c:	100b883a 	mov	r5,r2
  103720:	0114adc0 	call	114adc <alt_avalon_sgdma_do_async_transfer>
		}


		D printf("-------Black\n");
		fstRedTx = -1;
  103724:	00bfffc4 	movi	r2,-1
  103728:	e0be5f45 	stb	r2,-1667(fp)
		for (pos = (&readyTxListBlack.list)->next, q = pos->next; pos != (&readyTxListBlack.list); pos = q, q = pos->next){
  10372c:	e0bed617 	ldw	r2,-1192(fp)
  103730:	e0be6115 	stw	r2,-1660(fp)
  103734:	e0be6117 	ldw	r2,-1660(fp)
  103738:	10800017 	ldw	r2,0(r2)
  10373c:	e0be6215 	stw	r2,-1656(fp)
  103740:	00003c06 	br	103834 <main+0x136c>
			tmp = list_entry(pos, struct frame_list, list);
  103744:	e0be6117 	ldw	r2,-1660(fp)
  103748:	10bffc04 	addi	r2,r2,-16
  10374c:	e0be6315 	stw	r2,-1652(fp)
			if(RedTx_FIFO.available == 1){
  103750:	e0be6b17 	ldw	r2,-1620(fp)
  103754:	10800058 	cmpnei	r2,r2,1
  103758:	1000011e 	bne	r2,zero,103760 <main+0x1298>
				//No SPACE!
				break;
  10375c:	00003906 	br	103844 <main+0x137c>
			} else {
				//We have available room on the List, and Available Buffer Room
				if (fstRedTx == -1){
  103760:	e0be5f47 	ldb	r2,-1667(fp)
  103764:	10bfffd8 	cmpnei	r2,r2,-1
  103768:	1000021e 	bne	r2,zero,103774 <main+0x12ac>
					fstRedTx = RedTx_FIFO.WritePos;
  10376c:	e0be6d17 	ldw	r2,-1612(fp)
  103770:	e0be5f45 	stb	r2,-1667(fp)
				}
				if (RedTx_FIFO.WritePos == (RedTx_FIFO.size - 1)){
  103774:	e0fe6d17 	ldw	r3,-1612(fp)
  103778:	e0be6a17 	ldw	r2,-1624(fp)
  10377c:	10bfffc4 	addi	r2,r2,-1
  103780:	1880021e 	bne	r3,r2,10378c <main+0x12c4>
					nxtRedTx = 0;
  103784:	e03e6045 	stb	zero,-1663(fp)
  103788:	00000306 	br	103798 <main+0x12d0>
				} else {
					nxtRedTx = (RedTx_FIFO.WritePos + 1);
  10378c:	e0be6d17 	ldw	r2,-1612(fp)
  103790:	10800044 	addi	r2,r2,1
  103794:	e0be6045 	stb	r2,-1663(fp)
				}
				//Construct and send new descriptors
				alt_avalon_sgdma_construct_mem_to_stream_desc(&red_tx_descriptor[RedTx_FIFO.WritePos],&red_tx_descriptor[nxtRedTx],tmp->frameStart,tmp->frameLength,0,1,1,0);
  103798:	e0be6d17 	ldw	r2,-1612(fp)
  10379c:	1006917a 	slli	r3,r2,5
  1037a0:	00800034 	movhi	r2,0
  1037a4:	1080c004 	addi	r2,r2,768
  1037a8:	1889883a 	add	r4,r3,r2
  1037ac:	e0be6047 	ldb	r2,-1663(fp)
  1037b0:	1006917a 	slli	r3,r2,5
  1037b4:	00800034 	movhi	r2,0
  1037b8:	1080c004 	addi	r2,r2,768
  1037bc:	188b883a 	add	r5,r3,r2
  1037c0:	e0be6317 	ldw	r2,-1652(fp)
  1037c4:	10c00017 	ldw	r3,0(r2)
  1037c8:	e0be6317 	ldw	r2,-1652(fp)
  1037cc:	10800117 	ldw	r2,4(r2)
  1037d0:	10bfffcc 	andi	r2,r2,65535
  1037d4:	d8000015 	stw	zero,0(sp)
  1037d8:	01800044 	movi	r6,1
  1037dc:	d9800115 	stw	r6,4(sp)
  1037e0:	01800044 	movi	r6,1
  1037e4:	d9800215 	stw	r6,8(sp)
  1037e8:	d8000315 	stw	zero,12(sp)
  1037ec:	180d883a 	mov	r6,r3
  1037f0:	100f883a 	mov	r7,r2
  1037f4:	0114fe80 	call	114fe8 <alt_avalon_sgdma_construct_mem_to_stream_desc>
			}

			D printf("Available Space: %d,  \tRed WP: %d, \Red Nxt: %d,  \tAddr: 0x%08.8x\n", RedTx_FIFO.available, RedTx_FIFO.WritePos, nxtRedTx, tmp->frameStart);
			D printf("New Desc C: %x, S: %x, Next Desc C: %x, S: %x\n\n", red_tx_descriptor[RedTx_FIFO.WritePos].control, red_tx_descriptor[RedTx_FIFO.WritePos].status, red_tx_descriptor[nxtBlackTx].control, red_tx_descriptor[nxtRedTx].status);
			list_move_tail(&(tmp->list), &(txListRed.list));
  1037f8:	e0be6317 	ldw	r2,-1652(fp)
  1037fc:	10c00404 	addi	r3,r2,16
  103800:	e0beae04 	addi	r2,fp,-1352
  103804:	10800404 	addi	r2,r2,16
  103808:	1809883a 	mov	r4,r3
  10380c:	100b883a 	mov	r5,r2
  103810:	01024740 	call	102474 <list_move_tail>

			//Increment the write position
			add_to_fifo(&RedTx_FIFO);
  103814:	e0be6a04 	addi	r2,fp,-1624
  103818:	1009883a 	mov	r4,r2
  10381c:	01019ec0 	call	1019ec <add_to_fifo>
		}


		D printf("-------Black\n");
		fstRedTx = -1;
		for (pos = (&readyTxListBlack.list)->next, q = pos->next; pos != (&readyTxListBlack.list); pos = q, q = pos->next){
  103820:	e0be6217 	ldw	r2,-1656(fp)
  103824:	e0be6115 	stw	r2,-1660(fp)
  103828:	e0be6117 	ldw	r2,-1660(fp)
  10382c:	10800017 	ldw	r2,0(r2)
  103830:	e0be6215 	stw	r2,-1656(fp)
  103834:	e0bed204 	addi	r2,fp,-1208
  103838:	10800404 	addi	r2,r2,16
  10383c:	e0fe6117 	ldw	r3,-1660(fp)
  103840:	18bfc01e 	bne	r3,r2,103744 <black_to_red_frame+0xfe103744>

			//Increment the write position
			add_to_fifo(&RedTx_FIFO);
		}
		//Check if we actually made a new list of descriptors
		if(fstRedTx != -1){
  103844:	e0be5f47 	ldb	r2,-1667(fp)
  103848:	10bfffe0 	cmpeqi	r2,r2,-1
  10384c:	10000f1e 	bne	r2,zero,10388c <main+0x13c4>
			D printf("BlackTX BASE: %x\n", (IORD_ALTERA_AVALON_SGDMA_CONTROL(BLACK_TX_BASE)));
			D printf("BlackTX BASE: %x\n", (IORD_ALTERA_AVALON_SGDMA_STATUS(BLACK_TX_BASE)));
			while ((*(unsigned int*)(RedTx->base) & 0x10) == 0x10){};
  103850:	0001883a 	nop
  103854:	d0a71a17 	ldw	r2,-25496(gp)
  103858:	10800317 	ldw	r2,12(r2)
  10385c:	10800017 	ldw	r2,0(r2)
  103860:	1080040c 	andi	r2,r2,16
  103864:	103ffb1e 	bne	r2,zero,103854 <black_to_red_frame+0xfe103854>
			alt_avalon_sgdma_do_async_transfer(RedTx,&red_tx_descriptor[fstRedTx]);
  103868:	d0e71a17 	ldw	r3,-25496(gp)
  10386c:	e0be5f47 	ldb	r2,-1667(fp)
  103870:	1008917a 	slli	r4,r2,5
  103874:	00800034 	movhi	r2,0
  103878:	1080c004 	addi	r2,r2,768
  10387c:	2085883a 	add	r2,r4,r2
  103880:	1809883a 	mov	r4,r3
  103884:	100b883a 	mov	r5,r2
  103888:	0114adc0 	call	114adc <alt_avalon_sgdma_do_async_transfer>
//////////////////////////////////////////////////////////////////////////////////////////////////////////////////////////////////
//	7.	Check the txList*.list for transmitted frames, then move  respective nodes to the availableList*.list
//////////////////////////////////////////////////////////////////////////////////////////////////////////////////////////////////
		D printf("\n----------Tx List List\n");
		D printf("-----Red\n");
		for (pos = (&txListBlack.list)->next, q = pos->next; pos != (&txListBlack.list); pos = q, q = pos->next){
  10388c:	e0bedc17 	ldw	r2,-1168(fp)
  103890:	e0be6115 	stw	r2,-1660(fp)
  103894:	e0be6117 	ldw	r2,-1660(fp)
  103898:	10800017 	ldw	r2,0(r2)
  10389c:	e0be6215 	stw	r2,-1656(fp)
  1038a0:	00002806 	br	103944 <main+0x147c>

			if((black_tx_descriptor[BlackTx_FIFO.ReadPos].control & ALTERA_AVALON_SGDMA_DESCRIPTOR_CONTROL_OWNED_BY_HW_MSK) != 0){
  1038a4:	e0be7417 	ldw	r2,-1584(fp)
  1038a8:	00c00034 	movhi	r3,0
  1038ac:	18c24004 	addi	r3,r3,2304
  1038b0:	1004917a 	slli	r2,r2,5
  1038b4:	1885883a 	add	r2,r3,r2
  1038b8:	10800704 	addi	r2,r2,28
  1038bc:	108000c3 	ldbu	r2,3(r2)
  1038c0:	10803fcc 	andi	r2,r2,255
  1038c4:	1080201c 	xori	r2,r2,128
  1038c8:	10bfe004 	addi	r2,r2,-128
  1038cc:	1000010e 	bge	r2,zero,1038d4 <main+0x140c>
				break;
  1038d0:	00002006 	br	103954 <main+0x148c>
			}
			D printf ("black_tx_descriptor[%d].control: %x\t", BlackTx_FIFO.ReadPos, black_tx_descriptor[BlackTx_FIFO.ReadPos].control);
			tmp = list_entry((&txListBlack.list)->next, struct frame_list, list);
  1038d4:	e0bedc17 	ldw	r2,-1168(fp)
  1038d8:	10bffc04 	addi	r2,r2,-16
  1038dc:	e0be6315 	stw	r2,-1652(fp)
			tmp->frameLength = (unsigned short) black_tx_descriptor[BlackTx_FIFO.ReadPos].actual_bytes_transferred;
  1038e0:	e0be7417 	ldw	r2,-1584(fp)
  1038e4:	00c00034 	movhi	r3,0
  1038e8:	18c24004 	addi	r3,r3,2304
  1038ec:	1004917a 	slli	r2,r2,5
  1038f0:	1885883a 	add	r2,r3,r2
  1038f4:	10800704 	addi	r2,r2,28
  1038f8:	1080000b 	ldhu	r2,0(r2)
  1038fc:	10ffffcc 	andi	r3,r2,65535
  103900:	e0be6317 	ldw	r2,-1652(fp)
  103904:	10c00115 	stw	r3,4(r2)
			D printf("Transmitted frame, start: 0x%08.8x length: %d\n", tmp->frameStart, tmp->frameLength);
			list_move_tail(&(tmp->list), &(availableListRed.list));
  103908:	e0be6317 	ldw	r2,-1652(fp)
  10390c:	10c00404 	addi	r3,r2,16
  103910:	e0be8a04 	addi	r2,fp,-1496
  103914:	10800404 	addi	r2,r2,16
  103918:	1809883a 	mov	r4,r3
  10391c:	100b883a 	mov	r5,r2
  103920:	01024740 	call	102474 <list_move_tail>
			//Increment the read position
			remove_from_fifo(&BlackTx_FIFO);
  103924:	e0be7204 	addi	r2,fp,-1592
  103928:	1009883a 	mov	r4,r2
  10392c:	0101a540 	call	101a54 <remove_from_fifo>
//////////////////////////////////////////////////////////////////////////////////////////////////////////////////////////////////
//	7.	Check the txList*.list for transmitted frames, then move  respective nodes to the availableList*.list
//////////////////////////////////////////////////////////////////////////////////////////////////////////////////////////////////
		D printf("\n----------Tx List List\n");
		D printf("-----Red\n");
		for (pos = (&txListBlack.list)->next, q = pos->next; pos != (&txListBlack.list); pos = q, q = pos->next){
  103930:	e0be6217 	ldw	r2,-1656(fp)
  103934:	e0be6115 	stw	r2,-1660(fp)
  103938:	e0be6117 	ldw	r2,-1660(fp)
  10393c:	10800017 	ldw	r2,0(r2)
  103940:	e0be6215 	stw	r2,-1656(fp)
  103944:	e0bed804 	addi	r2,fp,-1184
  103948:	10800404 	addi	r2,r2,16
  10394c:	e0fe6117 	ldw	r3,-1660(fp)
  103950:	18bfd41e 	bne	r3,r2,1038a4 <black_to_red_frame+0xfe1038a4>
			//Increment the read position
			remove_from_fifo(&BlackTx_FIFO);
		}

		D printf("-----Black\n");
		for (pos = (&txListRed.list)->next, q = pos->next; pos != (&txListRed.list); pos = q, q = pos->next){
  103954:	e0beb217 	ldw	r2,-1336(fp)
  103958:	e0be6115 	stw	r2,-1660(fp)
  10395c:	e0be6117 	ldw	r2,-1660(fp)
  103960:	10800017 	ldw	r2,0(r2)
  103964:	e0be6215 	stw	r2,-1656(fp)
  103968:	00002806 	br	103a0c <main+0x1544>

			if((red_tx_descriptor[RedTx_FIFO.ReadPos].control & ALTERA_AVALON_SGDMA_DESCRIPTOR_CONTROL_OWNED_BY_HW_MSK) != 0){
  10396c:	e0be6c17 	ldw	r2,-1616(fp)
  103970:	00c00034 	movhi	r3,0
  103974:	18c0c004 	addi	r3,r3,768
  103978:	1004917a 	slli	r2,r2,5
  10397c:	1885883a 	add	r2,r3,r2
  103980:	10800704 	addi	r2,r2,28
  103984:	108000c3 	ldbu	r2,3(r2)
  103988:	10803fcc 	andi	r2,r2,255
  10398c:	1080201c 	xori	r2,r2,128
  103990:	10bfe004 	addi	r2,r2,-128
  103994:	1000010e 	bge	r2,zero,10399c <main+0x14d4>
				break;
  103998:	00002006 	br	103a1c <main+0x1554>
			}
			D printf ("red_tx_descriptor[%d].control: %x\t", RedTx_FIFO.ReadPos, red_tx_descriptor[RedTx_FIFO.ReadPos].control);
			tmp = list_entry((&txListRed.list)->next, struct frame_list, list);
  10399c:	e0beb217 	ldw	r2,-1336(fp)
  1039a0:	10bffc04 	addi	r2,r2,-16
  1039a4:	e0be6315 	stw	r2,-1652(fp)
			tmp->frameLength = (unsigned short) red_tx_descriptor[RedTx_FIFO.ReadPos].actual_bytes_transferred;
  1039a8:	e0be6c17 	ldw	r2,-1616(fp)
  1039ac:	00c00034 	movhi	r3,0
  1039b0:	18c0c004 	addi	r3,r3,768
  1039b4:	1004917a 	slli	r2,r2,5
  1039b8:	1885883a 	add	r2,r3,r2
  1039bc:	10800704 	addi	r2,r2,28
  1039c0:	1080000b 	ldhu	r2,0(r2)
  1039c4:	10ffffcc 	andi	r3,r2,65535
  1039c8:	e0be6317 	ldw	r2,-1652(fp)
  1039cc:	10c00115 	stw	r3,4(r2)
			D printf("Transmitted frame, start: 0x%08.8x length: %d\n", tmp->frameStart, tmp->frameLength);
			list_move_tail(&(tmp->list), &(availableListBlack.list));
  1039d0:	e0be6317 	ldw	r2,-1652(fp)
  1039d4:	10c00404 	addi	r3,r2,16
  1039d8:	e0beb404 	addi	r2,fp,-1328
  1039dc:	10800404 	addi	r2,r2,16
  1039e0:	1809883a 	mov	r4,r3
  1039e4:	100b883a 	mov	r5,r2
  1039e8:	01024740 	call	102474 <list_move_tail>
			//Increment the read position
			remove_from_fifo(&RedTx_FIFO);
  1039ec:	e0be6a04 	addi	r2,fp,-1624
  1039f0:	1009883a 	mov	r4,r2
  1039f4:	0101a540 	call	101a54 <remove_from_fifo>
			//Increment the read position
			remove_from_fifo(&BlackTx_FIFO);
		}

		D printf("-----Black\n");
		for (pos = (&txListRed.list)->next, q = pos->next; pos != (&txListRed.list); pos = q, q = pos->next){
  1039f8:	e0be6217 	ldw	r2,-1656(fp)
  1039fc:	e0be6115 	stw	r2,-1660(fp)
  103a00:	e0be6117 	ldw	r2,-1660(fp)
  103a04:	10800017 	ldw	r2,0(r2)
  103a08:	e0be6215 	stw	r2,-1656(fp)
  103a0c:	e0beae04 	addi	r2,fp,-1352
  103a10:	10800404 	addi	r2,r2,16
  103a14:	e0fe6117 	ldw	r3,-1660(fp)
  103a18:	18bfd41e 	bne	r3,r2,10396c <black_to_red_frame+0xfe10396c>
		}

//////////////////////////////////////////////////////////////////////////////////////////////////////////////////////////////////
//	DONE
//////////////////////////////////////////////////////////////////////////////////////////////////////////////////////////////////
	}
  103a1c:	003d6d06 	br	102fd4 <black_to_red_frame+0xfe102fd4>
	return 0;
}
  103a20:	e6fffe04 	addi	sp,fp,-8
  103a24:	dfc00317 	ldw	ra,12(sp)
