
crypto.elf:     file format elf32-littlenios2
crypto.elf
architecture: nios2, flags 0x00000112:
EXEC_P, HAS_SYMS, D_PAGED
start address 0x0008031c

Program Header:
    LOAD off    0x00001000 vaddr 0x00080000 paddr 0x00080000 align 2**12
         filesz 0x00000020 memsz 0x00000020 flags r-x
    LOAD off    0x00001020 vaddr 0x00080020 paddr 0x00080020 align 2**12
         filesz 0x00010928 memsz 0x00010928 flags r-x
    LOAD off    0x00011948 vaddr 0x00090948 paddr 0x00092438 align 2**12
         filesz 0x00001af0 memsz 0x00001af0 flags rw-
    LOAD off    0x00013f28 vaddr 0x00093f28 paddr 0x00093f28 align 2**12
         filesz 0x00000000 memsz 0x00000164 flags rw-
    LOAD off    0x00014000 vaddr 0x00004000 paddr 0x0009408c align 2**12
         filesz 0x00001000 memsz 0x00001000 flags rw-
    LOAD off    0x00015000 vaddr 0x00008000 paddr 0x0009508c align 2**12
         filesz 0x00002000 memsz 0x00002000 flags rw-

Sections:
Idx Name          Size      VMA       LMA       File off  Algn
  0 .entry        00000020  00080000  00080000  00001000  2**5
                  CONTENTS, ALLOC, LOAD, READONLY, CODE
  1 .exceptions   000002fc  00080020  00080020  00001020  2**2
                  CONTENTS, ALLOC, LOAD, READONLY, CODE
  2 .text         0000fa60  0008031c  0008031c  0000131c  2**2
                  CONTENTS, ALLOC, LOAD, READONLY, CODE
  3 .rodata       00000bcc  0008fd7c  0008fd7c  00010d7c  2**2
                  CONTENTS, ALLOC, LOAD, READONLY, DATA
  4 .rwdata       00001af0  00090948  00092438  00011948  2**2
                  CONTENTS, ALLOC, LOAD, DATA, SMALL_DATA
  5 .bss          00000164  00093f28  00093f28  00013f28  2**2
                  ALLOC, SMALL_DATA
  6 .stack_heap   00000000  00000000  00000000  00017000  2**0
                  CONTENTS
  7 .outgoing_memory 00001000  00004000  0009408c  00014000  2**2
                  CONTENTS, ALLOC, LOAD, DATA
  8 .incoming_memory 00002000  00008000  0009508c  00015000  2**2
                  CONTENTS, ALLOC, LOAD, DATA
  9 .instruction_memory 00000000  0009708c  0009708c  00017000  2**0
                  CONTENTS
 10 .comment      00000039  00000000  00000000  00017000  2**0
                  CONTENTS, READONLY
 11 .debug_aranges 00000d60  00000000  00000000  00017040  2**3
                  CONTENTS, READONLY, DEBUGGING
 12 .debug_info   00025659  00000000  00000000  00017da0  2**0
                  CONTENTS, READONLY, DEBUGGING
 13 .debug_abbrev 00009a88  00000000  00000000  0003d3f9  2**0
                  CONTENTS, READONLY, DEBUGGING
 14 .debug_line   0000b868  00000000  00000000  00046e81  2**0
                  CONTENTS, READONLY, DEBUGGING
 15 .debug_frame  00001df4  00000000  00000000  000526ec  2**2
                  CONTENTS, READONLY, DEBUGGING
 16 .debug_str    00003616  00000000  00000000  000544e0  2**0
                  CONTENTS, READONLY, DEBUGGING
 17 .debug_loc    000191c4  00000000  00000000  00057af6  2**0
                  CONTENTS, READONLY, DEBUGGING
 18 .debug_alt_sim_info 00000010  00000000  00000000  00070cbc  2**2
                  CONTENTS, READONLY, DEBUGGING
 19 .debug_ranges 00001548  00000000  00000000  00070cd0  2**3
                  CONTENTS, READONLY, DEBUGGING
 20 .thread_model 00000003  00000000  00000000  000755ca  2**0
                  CONTENTS, READONLY
 21 .cpu          0000000c  00000000  00000000  000755cd  2**0
                  CONTENTS, READONLY
 22 .qsys         00000001  00000000  00000000  000755d9  2**0
                  CONTENTS, READONLY
 23 .simulation_enabled 00000001  00000000  00000000  000755da  2**0
                  CONTENTS, READONLY
 24 .sysid_hash   00000004  00000000  00000000  000755db  2**0
                  CONTENTS, READONLY
 25 .sysid_base   00000004  00000000  00000000  000755df  2**0
                  CONTENTS, READONLY
 26 .sysid_time   00000004  00000000  00000000  000755e3  2**0
                  CONTENTS, READONLY
 27 .stderr_dev   0000000b  00000000  00000000  000755e7  2**0
                  CONTENTS, READONLY
 28 .stdin_dev    0000000b  00000000  00000000  000755f2  2**0
                  CONTENTS, READONLY
 29 .stdout_dev   0000000b  00000000  00000000  000755fd  2**0
                  CONTENTS, READONLY
 30 .sopc_system_name 0000000b  00000000  00000000  00075608  2**0
                  CONTENTS, READONLY
 31 .quartus_project_dir 0000003f  00000000  00000000  00075613  2**0
                  CONTENTS, READONLY
 32 .jdi          000040e5  00000000  00000000  00075652  2**0
                  CONTENTS, READONLY
 33 .sopcinfo     0005ca86  00000000  00000000  00079737  2**0
                  CONTENTS, READONLY
SYMBOL TABLE:
00080000 l    d  .entry	00000000 .entry
00080020 l    d  .exceptions	00000000 .exceptions
0008031c l    d  .text	00000000 .text
0008fd7c l    d  .rodata	00000000 .rodata
00090948 l    d  .rwdata	00000000 .rwdata
00093f28 l    d  .bss	00000000 .bss
00000000 l    d  .stack_heap	00000000 .stack_heap
00004000 l    d  .outgoing_memory	00000000 .outgoing_memory
00008000 l    d  .incoming_memory	00000000 .incoming_memory
0009708c l    d  .instruction_memory	00000000 .instruction_memory
00000000 l    d  .comment	00000000 .comment
00000000 l    d  .debug_aranges	00000000 .debug_aranges
00000000 l    d  .debug_info	00000000 .debug_info
00000000 l    d  .debug_abbrev	00000000 .debug_abbrev
00000000 l    d  .debug_line	00000000 .debug_line
00000000 l    d  .debug_frame	00000000 .debug_frame
00000000 l    d  .debug_str	00000000 .debug_str
00000000 l    d  .debug_loc	00000000 .debug_loc
00000000 l    d  .debug_alt_sim_info	00000000 .debug_alt_sim_info
00000000 l    d  .debug_ranges	00000000 .debug_ranges
00000000 l    df *ABS*	00000000 ../crypto_bsp//obj/HAL/src/crt0.o
00080354 l       .text	00000000 alt_after_alt_main
00000000 l    df *ABS*	00000000 alt_exception_entry.o
00080260 l       .exceptions	00000000 alt_exception_unknown
00000000 l    df *ABS*	00000000 alt_irq_handler.c
00000000 l    df *ABS*	00000000 main.c
00000000 l    df *ABS*	00000000 divdf3.c
00000000 l    df *ABS*	00000000 floatsidf.c
00000000 l    df *ABS*	00000000 floatunsidf.c
00000000 l    df *ABS*	00000000 libgcc2.c
00000000 l    df *ABS*	00000000 lib2-divmod.c
0008246c l     F .text	00000070 udivmodsi4
00000000 l    df *ABS*	00000000 lib2-mul.c
00000000 l    df *ABS*	00000000 libgcc2.c
00000000 l    df *ABS*	00000000 memcpy.c
00000000 l    df *ABS*	00000000 printf.c
00000000 l    df *ABS*	00000000 putchar.c
00000000 l    df *ABS*	00000000 puts.c
00000000 l    df *ABS*	00000000 strlen.c
00000000 l    df *ABS*	00000000 vfprintf.c
000907a2 l     O .rodata	00000010 zeroes.4155
000907b2 l     O .rodata	00000010 blanks.4154
00000000 l    df *ABS*	00000000 wsetup.c
00000000 l    df *ABS*	00000000 dtoa.c
00084b48 l     F .text	00000228 quorem
00000000 l    df *ABS*	00000000 fflush.c
00000000 l    df *ABS*	00000000 findfp.c
00086620 l     F .text	00000008 __fp_lock
00086628 l     F .text	00000008 __fp_unlock
00000000 l    df *ABS*	00000000 mallocr.c
00000000 l    df *ABS*	00000000 fvwrite.c
00000000 l    df *ABS*	00000000 fwalk.c
00000000 l    df *ABS*	00000000 impure.c
00090948 l     O .rwdata	00000424 impure_data
00000000 l    df *ABS*	00000000 locale.c
00090d8c l     O .rwdata	00000020 lc_ctype_charset
00090d6c l     O .rwdata	00000020 lc_message_charset
00090dac l     O .rwdata	00000038 lconv
00000000 l    df *ABS*	00000000 makebuf.c
00000000 l    df *ABS*	00000000 mallocr.c
00000000 l    df *ABS*	00000000 memchr.c
00000000 l    df *ABS*	00000000 memmove.c
00000000 l    df *ABS*	00000000 memset.c
00000000 l    df *ABS*	00000000 mprec.c
000907e4 l     O .rodata	0000000c p05.2652
00000000 l    df *ABS*	00000000 putc.c
00000000 l    df *ABS*	00000000 mallocr.c
00000000 l    df *ABS*	00000000 s_fpclassify.c
00000000 l    df *ABS*	00000000 sbrkr.c
00000000 l    df *ABS*	00000000 stdio.c
00000000 l    df *ABS*	00000000 strcmp.c
00000000 l    df *ABS*	00000000 vfprintf.c
00089b04 l     F .text	000000fc __sprint_r.part.0
00090918 l     O .rodata	00000010 blanks.4099
00090908 l     O .rodata	00000010 zeroes.4100
00000000 l    df *ABS*	00000000 wbuf.c
00000000 l    df *ABS*	00000000 writer.c
00000000 l    df *ABS*	00000000 closer.c
00000000 l    df *ABS*	00000000 mallocr.c
00000000 l    df *ABS*	00000000 fclose.c
00000000 l    df *ABS*	00000000 fputwc.c
00000000 l    df *ABS*	00000000 fstatr.c
00000000 l    df *ABS*	00000000 int_errno.c
00000000 l    df *ABS*	00000000 isattyr.c
00000000 l    df *ABS*	00000000 lseekr.c
00000000 l    df *ABS*	00000000 readr.c
00000000 l    df *ABS*	00000000 wcrtomb.c
00000000 l    df *ABS*	00000000 wctomb_r.c
00000000 l    df *ABS*	00000000 libgcc2.c
00000000 l    df *ABS*	00000000 libgcc2.c
00000000 l    df *ABS*	00000000 adddf3.c
00000000 l    df *ABS*	00000000 eqdf2.c
00000000 l    df *ABS*	00000000 gedf2.c
00000000 l    df *ABS*	00000000 ledf2.c
00000000 l    df *ABS*	00000000 muldf3.c
00000000 l    df *ABS*	00000000 subdf3.c
00000000 l    df *ABS*	00000000 fixdfsi.c
00000000 l    df *ABS*	00000000 alt_close.c
00000000 l    df *ABS*	00000000 alt_dev.c
0008e3dc l     F .text	00000008 alt_dev_null_write
00000000 l    df *ABS*	00000000 alt_errno.c
00000000 l    df *ABS*	00000000 alt_fstat.c
00000000 l    df *ABS*	00000000 alt_isatty.c
00000000 l    df *ABS*	00000000 alt_load.c
00000000 l    df *ABS*	00000000 alt_lseek.c
00000000 l    df *ABS*	00000000 alt_main.c
00000000 l    df *ABS*	00000000 alt_malloc_lock.c
00000000 l    df *ABS*	00000000 alt_read.c
00000000 l    df *ABS*	00000000 alt_release_fd.c
00000000 l    df *ABS*	00000000 alt_sbrk.c
00092428 l     O .rwdata	00000004 heap_end
00000000 l    df *ABS*	00000000 alt_write.c
00000000 l    df *ABS*	00000000 alt_sys_init.c
00091394 l     O .rwdata	00001060 jtag_uart_0
00000000 l    df *ABS*	00000000 altera_avalon_jtag_uart_fd.c
00000000 l    df *ABS*	00000000 altera_avalon_jtag_uart_init.c
0008eaa4 l     F .text	00000058 altera_avalon_jtag_uart_timeout
0008eafc l     F .text	00000104 altera_avalon_jtag_uart_irq
00000000 l    df *ABS*	00000000 altera_avalon_jtag_uart_ioctl.c
00000000 l    df *ABS*	00000000 altera_avalon_jtag_uart_read.c
00000000 l    df *ABS*	00000000 altera_avalon_jtag_uart_write.c
00000000 l    df *ABS*	00000000 altera_avalon_timer_sc.c
0008efec l     F .text	0000003c alt_avalon_timer_sc_irq
00000000 l    df *ABS*	00000000 altera_avalon_timer_ts.c
00000000 l    df *ABS*	00000000 altera_avalon_timer_vars.c
00000000 l    df *ABS*	00000000 alt_alarm_start.c
00000000 l    df *ABS*	00000000 alt_dcache_flush_all.c
00000000 l    df *ABS*	00000000 alt_dev_llist_insert.c
00000000 l    df *ABS*	00000000 alt_do_ctors.c
00000000 l    df *ABS*	00000000 alt_do_dtors.c
00000000 l    df *ABS*	00000000 alt_icache_flush_all.c
00000000 l    df *ABS*	00000000 alt_iic.c
00000000 l    df *ABS*	00000000 alt_iic_isr_register.c
00000000 l    df *ABS*	00000000 alt_io_redirect.c
0008f428 l     F .text	00000088 alt_open_fd.constprop.0
00000000 l    df *ABS*	00000000 alt_irq_vars.c
00000000 l    df *ABS*	00000000 alt_open.c
00000000 l    df *ABS*	00000000 alt_tick.c
00000000 l    df *ABS*	00000000 altera_nios2_qsys_irq.c
00000000 l    df *ABS*	00000000 alt_find_dev.c
00000000 l    df *ABS*	00000000 alt_find_file.c
00000000 l    df *ABS*	00000000 alt_get_fd.c
00000000 l    df *ABS*	00000000 atexit.c
00000000 l    df *ABS*	00000000 exit.c
00000000 l    df *ABS*	00000000 memcmp.c
00000000 l    df *ABS*	00000000 __atexit.c
00000000 l    df *ABS*	00000000 __call_atexit.c
00000000 l    df *ABS*	00000000 alt_exit.c
00082724 g     F .text	0000001c putchar
00000000 g       *ABS*	00000000 __alt_mem_stack_heap
00089014 g     F .text	00000074 _mprec_log10
00089100 g     F .text	00000088 __any_on
0008b768 g     F .text	00000064 _isatty_r
000907f0 g     O .rodata	00000028 __mprec_tinytens
0008e6cc g     F .text	00000060 alt_main
00082740 g     F .text	000000b8 _puts_r
00093f8c g     O .bss	00000100 alt_irq
0008b7cc g     F .text	0000006c _lseek_r
00092438 g       *ABS*	00000000 __flash_rwdata_start
0008cfa8 g     F .text	00000084 .hidden __eqdf2
00000000 g       *ABS*	00000000 __alt_heap_start
000826e0 g     F .text	0000003c printf
0008b8a4 g     F .text	0000009c _wcrtomb_r
000899fc g     F .text	0000005c __sseek
000866cc g     F .text	0000019c __sinit
0008b084 g     F .text	00000180 __swbuf_r
000873dc g     F .text	00000070 _setlocale_r
0008663c g     F .text	00000078 __sfmoreglue
0008e730 g     F .text	00000004 __malloc_unlock
00093f50 g     O .bss	00000004 altera_avalon_timer_ts_freq
00087f10 g     F .text	0000013c memmove
000866b4 g     F .text	00000018 _cleanup
00088160 g     F .text	000000a8 _Balloc
0008d02c g     F .text	000000d8 .hidden __gtdf2
00000000  w      *UND*	00000000 __errno
00080000 g     F .entry	0000000c __reset
00080020 g       *ABS*	00000000 __flash_exceptions_start
0008b700 g     F .text	00000068 _fstat_r
00093f40 g     O .bss	00000004 errno
00089978 g     F .text	00000008 __seofread
00093f48 g     O .bss	00000004 alt_argv
0009a3f4 g       *ABS*	00000000 _gp
000911ec g     O .rwdata	00000180 alt_fd_list
0008271c g     F .text	00000008 _putchar_r
0008f7d8 g     F .text	00000090 alt_find_dev
000825a8 g     F .text	0000010c memcpy
00086630 g     F .text	0000000c _cleanup_r
00082250 g     F .text	000000d0 .hidden __floatsidf
0008f4b0 g     F .text	00000078 alt_io_redirect
0008d104 g     F .text	000000ec .hidden __ltdf2
0008fd7c g       *ABS*	00000000 __DTOR_END__
000827f8 g     F .text	00000014 puts
00089858 g     F .text	00000068 __fpclassifyd
00088f74 g     F .text	000000a0 __ratio
0008b060 g     F .text	00000024 __vfiprintf_internal
0008ed28 g     F .text	0000013c altera_avalon_jtag_uart_read
00000000  w      *UND*	00000000 malloc
000826b4 g     F .text	0000002c _printf_r
00082570 g     F .text	00000008 .hidden __udivsi3
0008e478 g     F .text	000000a8 isatty
00090840 g     O .rodata	000000c8 __mprec_tens
0008744c g     F .text	0000000c __locale_charset
00093f3c g     O .bss	00000004 __malloc_top_pad
00080af0 g     F .text	00000dc4 CryptoProcedure
00092400 g     O .rwdata	00000004 __mb_cur_max
0008747c g     F .text	0000000c _localeconv_r
00088590 g     F .text	0000003c __i2b
00086dd0 g     F .text	000004ac __sfvwrite_r
000898c0 g     F .text	00000064 _sbrk_r
0008b838 g     F .text	0000006c _read_r
00092410 g     O .rwdata	00000004 alt_max_fd
0008b3c8 g     F .text	00000128 _fclose_r
000865f0 g     F .text	00000030 fflush
00093f38 g     O .bss	00000004 __malloc_max_sbrked_mem
0008c72c g     F .text	0000087c .hidden __adddf3
00009800 g     O .incoming_memory	00000800 decrypted_B
00088d40 g     F .text	000000f0 __b2d
0008c0f8 g     F .text	00000634 .hidden __umoddi3
0008e634 g     F .text	00000098 lseek
000923f8 g     O .rwdata	00000004 _global_impure_ptr
000892f4 g     F .text	00000564 _realloc_r
0009408c g       *ABS*	00000000 __bss_end
0008f3b0 g     F .text	00000078 alt_iic_isr_register
0008f6e0 g     F .text	000000f0 alt_tick
0008baa4 g     F .text	00000654 .hidden __udivdi3
0008b504 g     F .text	00000184 _fputwc_r
00090818 g     O .rodata	00000028 __mprec_bigtens
00088374 g     F .text	00000104 __s2b
00082320 g     F .text	000000a0 .hidden __floatunsidf
000923f4 g     O .rwdata	00000004 Crypto
00088ad0 g     F .text	00000060 __mcmp
00086994 g     F .text	00000018 __fp_lock_all
0008f398 g     F .text	00000018 alt_ic_irq_enabled
0008f6ac g     F .text	00000034 alt_alarm_stop
00093f58 g     O .bss	00000004 alt_irq_active
000802b8 g     F .exceptions	00000064 alt_irq_handler
0009136c g     O .rwdata	00000028 alt_dev_null
00000000 g       .debug_aranges	00000000 alt_exception_muldiv
00080000 g       *ABS*	00000000 __alt_mem_instruction_memory
0008f1cc g     F .text	00000004 alt_dcache_flush_all
00088478 g     F .text	00000068 __hi0bits
0008e278 g     F .text	00000080 .hidden __fixdfsi
00092438 g       *ABS*	00000000 __ram_rwdata_end
00092414 g     O .rwdata	00000008 alt_dev_list
0008e8d8 g     F .text	000000f8 write
00089188 g     F .text	000000a0 _putc_r
0008f128 g     F .text	00000010 alt_timestamp_freq
00090948 g       *ABS*	00000000 __ram_rodata_end
0008e3e4 g     F .text	00000094 fstat
0008d104 g     F .text	000000ec .hidden __ledf2
00008000 g       *ABS*	00000000 __alt_mem_incoming_memory
00088838 g     F .text	00000148 __pow5mult
00089c18 g     F .text	00001448 ___vfiprintf_internal_r
00093f30 g     O .bss	00000004 __nlocale_changed
00082578 g     F .text	00000008 .hidden __umodsi3
00000000 g       *ABS*	00000000 end
0008ec00 g     F .text	00000080 altera_avalon_jtag_uart_init
0008fd7c g       *ABS*	00000000 __CTOR_LIST__
00004000 g       *ABS*	00000000 __alt_stack_pointer
0008f028 g     F .text	00000050 alt_avalon_timer_sc_init
000823c0 g     F .text	000000ac .hidden __clzsi2
0008ee64 g     F .text	00000188 altera_avalon_jtag_uart_write
00086984 g     F .text	00000004 __sfp_lock_acquire
00087e28 g     F .text	000000e8 memchr
00082898 g     F .text	00002154 ___vfprintf_internal_r
00086b00 g     F .text	000002d0 _free_r
00087458 g     F .text	00000010 __locale_mb_cur_max
0008fbc4 g     F .text	000001a4 __call_exitprocs
00093f2c g     O .bss	00000004 __mlocale_changed
00092404 g     O .rwdata	00000004 __malloc_sbrk_base
0008031c g     F .text	0000003c _start
00093f60 g     O .bss	00000004 _alt_tick_rate
00088980 g     F .text	00000150 __lshift
00008000 g     O .incoming_memory	00000800 plaintext_A
00093f5c g     O .bss	00000004 _alt_nticks
0008e734 g     F .text	000000fc read
0008e9f0 g     F .text	00000078 alt_sys_init
0008faa8 g     F .text	0000011c __register_exitproc
000885cc g     F .text	0000026c __multiply
0008ec80 g     F .text	00000034 altera_avalon_jtag_uart_close
00082580 g     F .text	00000028 .hidden __mulsi3
00090948 g       *ABS*	00000000 __ram_rwdata_start
0008fd7c g       *ABS*	00000000 __ram_rodata_start
00093f64 g     O .bss	00000028 __malloc_current_mallinfo
00088e30 g     F .text	00000144 __d2b
00004800 g     O .outgoing_memory	00000800 encrypted_B
0008ea68 g     F .text	00000010 altera_avalon_jtag_uart_read_fd
0008f934 g     F .text	000000ac alt_get_fd
0008b28c g     F .text	00000064 _close_r
0008fa2c g     F .text	0000007c memcmp
0008ea88 g     F .text	00000010 altera_avalon_jtag_uart_close_fd
00000000 g       *ABS*	00000000 __alt_stack_base
0008ea98 g     F .text	0000000c altera_avalon_jtag_uart_ioctl_fd
00084a10 g     F .text	00000138 __swsetup_r
000818b4 g     F .text	0000099c .hidden __divdf3
00086868 g     F .text	0000011c __sfp
00089088 g     F .text	00000078 __copybits
00090de4 g     O .rwdata	00000408 __malloc_av_
00086990 g     F .text	00000004 __sinit_lock_release
0008d1f0 g     F .text	00000800 .hidden __muldf3
00089924 g     F .text	00000054 __sread
0008f868 g     F .text	000000cc alt_find_file
0008f1d0 g     F .text	00000078 alt_dev_llist_insert
0008e72c g     F .text	00000004 __malloc_lock
0008e88c g     F .text	0000004c sbrk
000863ac g     F .text	00000244 _fflush_r
0008b2f0 g     F .text	000000d8 _calloc_r
00093f28 g       *ABS*	00000000 __bss_start
0008804c g     F .text	00000114 memset
00080358 g     F .text	00000798 main
00093f44 g     O .bss	00000004 alt_envp
00093f34 g     O .bss	00000004 __malloc_max_total_mem
0008ea78 g     F .text	00000010 altera_avalon_jtag_uart_write_fd
0008b204 g     F .text	0000001c __swbuf
00089a58 g     F .text	00000008 __sclose
00004000 g       *ABS*	00000000 __alt_heap_limit
0008b4f0 g     F .text	00000014 fclose
0008f078 g     F .text	00000054 alt_timestamp_start
00084d70 g     F .text	0000163c _dtoa_r
00087664 g     F .text	000007c4 _malloc_r
0008ba18 g     F .text	00000030 __ascii_wctomb
00092424 g     O .rwdata	00000004 alt_errno
0008727c g     F .text	000000a8 _fwalk
00089228 g     F .text	000000cc putc
000824dc g     F .text	00000048 .hidden __divsi3
000869c4 g     F .text	0000013c _malloc_trim_r
0008fd7c g       *ABS*	00000000 __CTOR_END__
00089a60 g     F .text	000000a4 strcmp
0008fd7c g       *ABS*	00000000 __flash_rodata_start
0008fd7c g       *ABS*	00000000 __DTOR_LIST__
0008cfa8 g     F .text	00000084 .hidden __nedf2
0008e9d0 g     F .text	00000020 alt_irq_init
0008e830 g     F .text	0000005c alt_release_fd
0009065c g     O .rodata	00000100 .hidden __clz_tab
00093f28 g     O .bss	00000004 _PathLocale
0008f9e0 g     F .text	00000014 atexit
0008b220 g     F .text	0000006c _write_r
00087488 g     F .text	0000001c setlocale
000923fc g     O .rwdata	00000004 _impure_ptr
00093f4c g     O .bss	00000004 alt_argc
00093f54 g     O .bss	00000004 altera_avalon_timer_ts_base
0008f2ac g     F .text	00000064 _do_dtors
00087474 g     F .text	00000008 __locale_cjk_lang
00008800 g     O .incoming_memory	00000800 decrypted_A
00004000 g     O .outgoing_memory	00000800 encrypted_A
00080020 g       .exceptions	00000000 alt_irq_entry
00088ce0 g     F .text	00000060 __ulp
000869ac g     F .text	00000018 __fp_unlock_all
0009241c g     O .rwdata	00000008 alt_fs_list
00080020 g       *ABS*	00000000 __ram_exceptions_start
000874a4 g     F .text	0000000c localeconv
0008f0cc g     F .text	0000005c alt_timestamp
0008f314 g     F .text	00000004 alt_ic_isr_register
00092438 g       *ABS*	00000000 _edata
00000000 g       *ABS*	00000000 _end
0008031c g       *ABS*	00000000 __ram_exceptions_end
0008ecb4 g     F .text	00000074 altera_avalon_jtag_uart_ioctl
0008f358 g     F .text	00000040 alt_ic_irq_disable
00089980 g     F .text	0000007c __swrite
00092408 g     O .rwdata	00000004 __malloc_trim_threshold
0008f7d0 g     F .text	00000008 altera_nios2_qsys_irq_init
00087468 g     F .text	0000000c __locale_msgcharset
0008f9f4 g     F .text	00000038 exit
00087324 g     F .text	000000b8 _fwalk_reent
00088b30 g     F .text	000001b0 __mdiff
00082524 g     F .text	0000004c .hidden __modsi3
00004000 g       *ABS*	00000000 __alt_data_end
00080020 g     F .exceptions	00000000 alt_exception
00086988 g     F .text	00000004 __sfp_lock_release
0008fd68 g     F .text	00000014 _exit
0008f138 g     F .text	00000094 alt_alarm_start
000874b0 g     F .text	000001b4 __smakebuf_r
0008280c g     F .text	0000008c strlen
0008f528 g     F .text	00000184 open
0008d02c g     F .text	000000d8 .hidden __gedf2
0009240c g     O .rwdata	00000004 __wctomb
00089c00 g     F .text	00000018 __sprint_r
0008f310 g     F .text	00000004 alt_icache_flush_all
0009242c g     O .rwdata	00000004 alt_priority_mask
0008f318 g     F .text	00000040 alt_ic_irq_enable
000849ec g     F .text	00000024 __vfprintf_internal
0008ba48 g     F .text	0000005c _wctomb_r
0008d9f0 g     F .text	00000888 .hidden __subdf3
000884e0 g     F .text	000000b0 __lo0bits
00092430 g     O .rwdata	00000008 alt_alarm_list
0008f248 g     F .text	00000064 _do_ctors
0008b940 g     F .text	000000d8 wcrtomb
0008e2f8 g     F .text	000000e4 close
00004000 g       *ABS*	00000000 __alt_mem_outgoing_memory
00009000 g     O .incoming_memory	00000800 plaintext_B
0008e520 g     F .text	00000114 alt_load
0008b688 g     F .text	00000078 fputwc
00000000  w      *UND*	00000000 free
0008698c g     F .text	00000004 __sinit_lock_acquire
00088230 g     F .text	00000144 __multadd
00088208 g     F .text	00000028 _Bfree



Disassembly of section .entry:

00080000 <__reset>:
 * Jump to the _start entry point in the .text section if reset code
 * is allowed or if optimizing for RTL simulation.
 */
#if defined(ALT_ALLOW_CODE_AT_RESET) || defined(ALT_SIM_OPTIMIZE)
    /* Jump to the _start entry point in the .text section. */
    movhi r1, %hi(_start)
   80000:	00400234 	movhi	at,8
    ori r1, r1, %lo(_start)
   80004:	0840c714 	ori	at,at,796
    jmp r1
   80008:	0800683a 	jmp	at
	...

Disassembly of section .exceptions:

00080020 <alt_exception>:

#else /* ALT_EXCEPTION_STACK disabled */
        /* 
         * Reserve space on normal stack for registers about to be pushed.
         */
        addi  sp, sp, -76
   80020:	deffed04 	addi	sp,sp,-76
         * documentation for details).
         *
         * Leave a gap in the stack frame at 4(sp) for the muldiv handler to
         * store zero into.
         */
        stw   ra,  0(sp)
   80024:	dfc00015 	stw	ra,0(sp)
        stw   r1,   8(sp)
   80028:	d8400215 	stw	at,8(sp)
        stw   r2,  12(sp)
   8002c:	d8800315 	stw	r2,12(sp)
        stw   r3,  16(sp)
   80030:	d8c00415 	stw	r3,16(sp)
        stw   r4,  20(sp)
   80034:	d9000515 	stw	r4,20(sp)
        stw   r5,  24(sp)
   80038:	d9400615 	stw	r5,24(sp)
        stw   r6,  28(sp)
   8003c:	d9800715 	stw	r6,28(sp)
        stw   r7,  32(sp)
   80040:	d9c00815 	stw	r7,32(sp)
        rdctl r5, estatus   /* Read early to avoid usage stall */
   80044:	000b307a 	rdctl	r5,estatus
        stw   r8,  36(sp)
   80048:	da000915 	stw	r8,36(sp)
        stw   r9,  40(sp)
   8004c:	da400a15 	stw	r9,40(sp)
        stw   r10, 44(sp)
   80050:	da800b15 	stw	r10,44(sp)
        stw   r11, 48(sp)
   80054:	dac00c15 	stw	r11,48(sp)
        stw   r12, 52(sp)
   80058:	db000d15 	stw	r12,52(sp)
        stw   r13, 56(sp)
   8005c:	db400e15 	stw	r13,56(sp)
        stw   r14, 60(sp)
   80060:	db800f15 	stw	r14,60(sp)
        stw   r15, 64(sp)
   80064:	dbc01015 	stw	r15,64(sp)
        /*
         * ea-4 contains the address of the instruction being executed
         * when the exception occured. For interrupt exceptions, we will
         * will be re-issue the isntruction. Store it in 72(sp)
         */
        stw   r5,  68(sp)  /* estatus */
   80068:	d9401115 	stw	r5,68(sp)
        addi  r15, ea, -4  /* instruction that caused exception */
   8006c:	ebffff04 	addi	r15,ea,-4
        stw   r15,  72(sp)
   80070:	dbc01215 	stw	r15,72(sp)
#else
        /*
         * Test to see if the exception was a software exception or caused 
         * by an external interrupt, and vector accordingly.
         */
        rdctl r4, ipending
   80074:	0009313a 	rdctl	r4,ipending
        andi  r2, r5, 1
   80078:	2880004c 	andi	r2,r5,1
        beq   r2, zero, .Lnot_irq
   8007c:	10000326 	beq	r2,zero,8008c <alt_exception+0x6c>
        beq   r4, zero, .Lnot_irq
   80080:	20000226 	beq	r4,zero,8008c <alt_exception+0x6c>
        /*
         * Now that all necessary registers have been preserved, call 
         * alt_irq_handler() to process the interrupts.
         */

        call alt_irq_handler
   80084:	00802b80 	call	802b8 <alt_irq_handler>

        .section .exceptions.irqreturn, "xa"

        br    .Lexception_exit
   80088:	00007606 	br	80264 <alt_exception_unknown+0x4>
         * upon completion, so we write ea (address of instruction *after*
         * the one where the exception occured) into 72(sp). The actual
         * instruction that caused the exception is written in r2, which these
         * handlers will utilize.
         */
        stw   ea,  72(sp)  /* Don't re-issue */
   8008c:	df401215 	stw	ea,72(sp)
        ldw   r2, -4(ea)   /* Instruction that caused exception */
   80090:	e8bfff17 	ldw	r2,-4(ea)
        /*
         * Split the instruction into its fields.  We need 4*A, 4*B, and 4*C as
         * offsets to the stack pointer for access to the stored register values.
         */
                             /* r2 = AAAAA,BBBBB,IIIIIIIIIIIIIIII,PPPPPP    */
        roli  r3, r2, 7      /* r3 = BBB,IIIIIIIIIIIIIIII,PPPPPP,AAAAA,BB   */
   80094:	100611fa 	roli	r3,r2,7
        roli  r4, r3, 3      /* r4 = IIIIIIIIIIIIIIII,PPPPPP,AAAAA,BBBBB    */
   80098:	180810fa 	roli	r4,r3,3
        roli  r6, r4, 2      /* r6 = IIIIIIIIIIIIII,PPPPPP,AAAAA,BBBBB,II   */
   8009c:	200c10ba 	roli	r6,r4,2
        srai  r4, r4, 16     /* r4 = (sign-extended) IMM16                  */
   800a0:	2009d43a 	srai	r4,r4,16
        xori  r6, r6, 0x42   /* r6 = CCC,XXXXXX,NNNNN,PPPPPP,AAAAA,bBBBB,cC */
   800a4:	3180109c 	xori	r6,r6,66
        roli  r7, r6, 5      /* r7 = XXXX,NNNNN,PPPPPP,AAAAA,bBBBB,cCCCC,XX */
   800a8:	300e117a 	roli	r7,r6,5
        andi  r5, r2, 0x3f   /* r5 = 00000000000000000000000000,PPPPPP      */
   800ac:	11400fcc 	andi	r5,r2,63
        xori  r3, r3, 0x40
   800b0:	18c0101c 	xori	r3,r3,64
        andi  r3, r3, 0x7c   /* r3 = 0000000000000000000000000,aAAAA,00     */
   800b4:	18c01f0c 	andi	r3,r3,124
        andi  r6, r6, 0x7c   /* r6 = 0000000000000000000000000,bBBBB,00     */
   800b8:	31801f0c 	andi	r6,r6,124
        andi  r7, r7, 0x7c   /* r7 = 0000000000000000000000000,cCCCC,00     */
   800bc:	39c01f0c 	andi	r7,r7,124
         * Save everything on the stack to make it easy for the emulation routines
         * to retrieve the source register operands.  The exception entry code has
         * already saved some of this so we don't need to do it all again.
         */

        addi  sp, sp, -60
   800c0:	defff104 	addi	sp,sp,-60
        stw   zero, 64(sp)   /* Save zero on stack to avoid special case for r0. */
   800c4:	d8001015 	stw	zero,64(sp)
                             /* Register at and r2-r15 have already been saved.  */

        stw   r16,  0(sp)
   800c8:	dc000015 	stw	r16,0(sp)
        stw   r17,  4(sp)
   800cc:	dc400115 	stw	r17,4(sp)
        stw   r18,  8(sp)
   800d0:	dc800215 	stw	r18,8(sp)
        stw   r19, 12(sp)
   800d4:	dcc00315 	stw	r19,12(sp)
        stw   r20, 16(sp)
   800d8:	dd000415 	stw	r20,16(sp)
        stw   r21, 20(sp)
   800dc:	dd400515 	stw	r21,20(sp)
        stw   r22, 24(sp)
   800e0:	dd800615 	stw	r22,24(sp)
        stw   r23, 28(sp)
   800e4:	ddc00715 	stw	r23,28(sp)
                            /* et @ 32 - Has already been changed.*/
                            /* bt @ 36 - Usually isn't an operand.   */
        stw   gp,  40(sp)
   800e8:	de800a15 	stw	gp,40(sp)
        stw   sp,  44(sp)
   800ec:	dec00b15 	stw	sp,44(sp)
        stw   fp,  48(sp)
   800f0:	df000c15 	stw	fp,48(sp)

        /*
         *  Prepare for either multiplication or division loop.
         *  They both loop 32 times.
         */
        movi   r14, 32
   800f4:	03800804 	movi	r14,32
         * Get the operands.
         *
         * It is necessary to check for muli because it uses an I-type instruction
         * format, while the other instructions are have an R-type format.
         */
        add    r3, r3, sp     /* r3 = address of A-operand. */
   800f8:	1ec7883a 	add	r3,r3,sp
        ldw    r3, 0(r3)      /* r3 = A-operand. */
   800fc:	18c00017 	ldw	r3,0(r3)
        movi   r15, 0x24      /* muli opcode (I-type instruction format) */
   80100:	03c00904 	movi	r15,36
        beq    r5, r15, .Lmul_immed /* muli doesn't use the B register as a source */
   80104:	2bc02726 	beq	r5,r15,801a4 <alt_exception+0x184>

        add    r6, r6, sp     /* r6 = address of B-operand.               */
   80108:	36cd883a 	add	r6,r6,sp
        ldw    r6, 0(r6)      /* r6 = B-operand.                          */
   8010c:	31800017 	ldw	r6,0(r6)
                              /* r4 = SSSSSSSSSSSSSSSS,-----IMM16------   */
                              /* IMM16 not needed, align OPX portion      */
                              /* r4 = SSSSSSSSSSSSSSSS,CCCCC,-OPX--,00000 */
        srli   r4, r4, 5      /* r4 = 00000,SSSSSSSSSSSSSSSS,CCCCC,-OPX-- */
   80110:	2008d17a 	srli	r4,r4,5
        andi   r4, r4, 0x3f   /* r4 = 00000000000000000000000000,-OPX--   */
   80114:	21000fcc 	andi	r4,r4,63
         *
         *  This code assumes that OP is not muli (because muli was tested above).
         *  All other multiplies and divides are legal.  Anything else is illegal.
         */

        movi  r8, 0x3a                        /* OP for R-type mul* and div* */
   80118:	02000e84 	movi	r8,58
        bne   r5, r8, .Lnot_muldiv
   8011c:	2a004f1e 	bne	r5,r8,8025c <alt_exception+0x23c>

        /* r15 already is 0x24 */            /* OPX of divu */
        beq   r4, r15, .Ldivide
   80120:	23c00a26 	beq	r4,r15,8014c <alt_exception+0x12c>

        movi  r15,0x27                        /* OPX of mul */
   80124:	03c009c4 	movi	r15,39
        beq   r4, r15, .Lmultiply
   80128:	23c02126 	beq	r4,r15,801b0 <alt_exception+0x190>

        movi  r15,0x07                        /* OPX of mulxuu */
   8012c:	03c001c4 	movi	r15,7
        beq   r4, r15, .Lmultiply
   80130:	23c01f26 	beq	r4,r15,801b0 <alt_exception+0x190>

        movi  r15,0x17                        /* OPX of mulxsu */
   80134:	03c005c4 	movi	r15,23
        beq   r4, r15, .Lmultiply
   80138:	23c01d26 	beq	r4,r15,801b0 <alt_exception+0x190>

        movi  r15,0x1f                        /* OPX of mulxss */
   8013c:	03c007c4 	movi	r15,31
        beq   r4, r15, .Lmultiply
   80140:	23c01b26 	beq	r4,r15,801b0 <alt_exception+0x190>

        movi  r15,0x25                        /* OPX of div */
   80144:	03c00944 	movi	r15,37
        bne   r4, r15, .Lnot_muldiv
   80148:	23c0441e 	bne	r4,r15,8025c <alt_exception+0x23c>
.Ldivide:
        /*
         *  Prepare for division by assuming the result
         *  is unsigned, and storing its "sign" as 0.
         */
        movi   r17, 0
   8014c:	04400004 	movi	r17,0


        /* Which division opcode? */
        xori   r15, r4, 0x25         /* OPX of div */
   80150:	23c0095c 	xori	r15,r4,37
        bne    r15, zero, .Lunsigned_division
   80154:	7800051e 	bne	r15,zero,8016c <alt_exception+0x14c>

        /*
         *  OPX is div.  Determine and store the sign of the quotient.
         *  Then take the absolute value of both operands.
         */
        xor   r17, r3, r6      /* MSB contains sign of quotient */
   80158:	19a2f03a 	xor	r17,r3,r6
        bge   r3, zero, 0f
   8015c:	1800010e 	bge	r3,zero,80164 <alt_exception+0x144>
        sub   r3, zero, r3     /* -r3 */
   80160:	00c7c83a 	sub	r3,zero,r3
0:
        bge   r6, zero, 0f
   80164:	3000010e 	bge	r6,zero,8016c <alt_exception+0x14c>
        sub   r6, zero, r6     /* -r6 */
   80168:	018dc83a 	sub	r6,zero,r6
0:


.Lunsigned_division:
        /* Initialize the unsigned-division loop. */
        movi  r13, 0          /* remainder = 0 */
   8016c:	03400004 	movi	r13,0
        /*
        *       Division:
        *
        *       (remainder:dividend:quotient) <<= 1;
        */
        slli  r13, r13, 1
   80170:	681a907a 	slli	r13,r13,1
        cmplt r15, r3, zero        /* r15 = MSB of r3 */
   80174:	181e803a 	cmplt	r15,r3,zero
        or    r13, r13, r15
   80178:	6bdab03a 	or	r13,r13,r15
        slli  r3, r3, 1
   8017c:	1806907a 	slli	r3,r3,1
        *       {
        *           set LSB of quotient
        *           remainder -= divisor;
        *       }
        */
        bltu  r13, r6, .Ldiv_skip
   80180:	69800236 	bltu	r13,r6,8018c <alt_exception+0x16c>
        ori   r3, r3, 1
   80184:	18c00054 	ori	r3,r3,1
        sub   r13, r13, r6
   80188:	699bc83a 	sub	r13,r13,r6
.Ldiv_skip:

        /*
        *   }
        */
        subi  r14, r14, 1
   8018c:	73bfffc4 	addi	r14,r14,-1
        bne   r14, zero, .Ldivide_loop
   80190:	703ff71e 	bne	r14,zero,80170 <_gp+0xfffe5d7c>

        mov   r9, r3
   80194:	1813883a 	mov	r9,r3
    
        /*
        *  Conditionally negate signed quotient.  If quotient is unsigned,
        *  the sign already is initialized to 0.
        */
        bge   r17, zero, .Lstore_result
   80198:	8800230e 	bge	r17,zero,80228 <alt_exception+0x208>
        sub   r9, zero, r9     /* -r9 */
   8019c:	0253c83a 	sub	r9,zero,r9

        br    .Lstore_result
   801a0:	00002106 	br	80228 <alt_exception+0x208>
        *
        */

.Lmul_immed:
        /* Opcode is muli.  Change it into mul for remainder of algorithm. */
        mov   r7, r6         /* Field B is dest register, not field C. */
   801a4:	300f883a 	mov	r7,r6
        mov   r6, r4         /* Field IMM16 is src2, not field B. */
   801a8:	200d883a 	mov	r6,r4
        movi  r4, 0x27       /* OPX of mul is 0x27 */
   801ac:	010009c4 	movi	r4,39

.Lmultiply:
        /* Initialize the multiplication loop. */
        movi  r9, 0          /* mul_product    = 0 */
   801b0:	02400004 	movi	r9,0
        movi  r10, 0         /* mulxuu_product = 0 */
   801b4:	02800004 	movi	r10,0
        mov   r11, r6        /* save original multiplier for mulxsu and mulxss */
   801b8:	3017883a 	mov	r11,r6
        mov   r12, r6        /* mulxuu_multiplier (will be shifted) */
   801bc:	3019883a 	mov	r12,r6
        movi  r16, 1         /* used to create "rori B,A,1" from "ror B,A,r16" */
   801c0:	04000044 	movi	r16,1

        /*
        *       mul_product <<= 1;
        *       lsb = multiplier & 1;
        */
        slli   r9, r9, 1
   801c4:	4812907a 	slli	r9,r9,1
        andi   r15, r12, 1
   801c8:	63c0004c 	andi	r15,r12,1
        *       if (lsb == 1)
        *       {
        *           mulxuu_product += multiplicand;
        *       }
        */
        beq   r15, zero, .Lmulx_skip
   801cc:	78000326 	beq	r15,zero,801dc <alt_exception+0x1bc>
        add   r10, r10, r3
   801d0:	50d5883a 	add	r10,r10,r3
        cmpltu r15, r10, r3  /* Save the carry from the MSB of mulxuu_product. */
   801d4:	50df803a 	cmpltu	r15,r10,r3
        ror   r15, r15, r16  /* r15 = 0x80000000 on carry, or else 0x00000000 */
   801d8:	7c1e583a 	ror	r15,r15,r16
        *       if (MSB of mul_multiplier == 1)
        *       {
        *           mul_product += multiplicand;
        *       }
        */
        bge   r6, zero, .Lmul_skip
   801dc:	3000010e 	bge	r6,zero,801e4 <alt_exception+0x1c4>
        add   r9, r9, r3
   801e0:	48d3883a 	add	r9,r9,r3
        /*
        *       mulxuu_product >>= 1;           logical shift
        *       mul_multiplier <<= 1;           done with MSB
        *       mulx_multiplier >>= 1;          done with LSB
        */
        srli   r10, r10, 1
   801e4:	5014d07a 	srli	r10,r10,1
        or     r10, r10, r15           /* OR in the saved carry bit. */
   801e8:	53d4b03a 	or	r10,r10,r15
        slli   r6, r6, 1
   801ec:	300c907a 	slli	r6,r6,1
        srli   r12, r12, 1
   801f0:	6018d07a 	srli	r12,r12,1


        /*
        *   }
        */
        subi   r14, r14, 1
   801f4:	73bfffc4 	addi	r14,r14,-1
        bne    r14, zero, .Lmultiply_loop
   801f8:	703ff21e 	bne	r14,zero,801c4 <_gp+0xfffe5dd0>
        *  Select/compute the result based on OPX.
        */


        /* OPX == mul?  Then store. */
        xori  r15, r4, 0x27
   801fc:	23c009dc 	xori	r15,r4,39
        beq   r15, zero, .Lstore_result
   80200:	78000926 	beq	r15,zero,80228 <alt_exception+0x208>

        /* It's one of the mulx.. opcodes.  Move over the result. */
        mov   r9, r10
   80204:	5013883a 	mov	r9,r10

        /* OPX == mulxuu?  Then store. */
        xori  r15, r4, 0x07
   80208:	23c001dc 	xori	r15,r4,7
        beq   r15, zero, .Lstore_result
   8020c:	78000626 	beq	r15,zero,80228 <alt_exception+0x208>

        /* Compute mulxsu
         *
         * mulxsu = mulxuu - ((rA < 0) ? rB : 0);
         */
        bge   r3, zero, .Lmulxsu_skip
   80210:	1800010e 	bge	r3,zero,80218 <alt_exception+0x1f8>
        sub   r9, r9, r11
   80214:	4ad3c83a 	sub	r9,r9,r11
.Lmulxsu_skip:

        /* OPX == mulxsu?  Then store. */
        xori  r15, r4, 0x17
   80218:	23c005dc 	xori	r15,r4,23
        beq   r15, zero, .Lstore_result
   8021c:	78000226 	beq	r15,zero,80228 <alt_exception+0x208>

        /* Compute mulxss
         *
         * mulxss = mulxsu - ((rB < 0) ? rA : 0);
         */
        bge   r11, zero, .Lmulxss_skip
   80220:	5800010e 	bge	r11,zero,80228 <alt_exception+0x208>
        sub   r9, r9, r3
   80224:	48d3c83a 	sub	r9,r9,r3
.Lmulxss_skip:
        /* At this point, assume that OPX is mulxss, so store */


.Lstore_result:
        add   r7, r7, sp
   80228:	3ecf883a 	add	r7,r7,sp
        stw   r9, 0(r7)
   8022c:	3a400015 	stw	r9,0(r7)

        ldw   r16,  0(sp)
   80230:	dc000017 	ldw	r16,0(sp)
        ldw   r17,  4(sp)
   80234:	dc400117 	ldw	r17,4(sp)
        ldw   r18,  8(sp)
   80238:	dc800217 	ldw	r18,8(sp)
        ldw   r19, 12(sp)
   8023c:	dcc00317 	ldw	r19,12(sp)
        ldw   r20, 16(sp)
   80240:	dd000417 	ldw	r20,16(sp)
        ldw   r21, 20(sp)
   80244:	dd400517 	ldw	r21,20(sp)
        ldw   r22, 24(sp)
   80248:	dd800617 	ldw	r22,24(sp)
        ldw   r23, 28(sp)
   8024c:	ddc00717 	ldw	r23,28(sp)

                            /* bt @ 32 - Breakpoint register usually isn't an operand. */
                            /* et @ 36 - Don't corrupt et. */
                            /* gp @ 40 - Don't corrupt gp. */
                            /* sp @ 44 - Don't corrupt sp. */
        ldw   fp,  48(sp)
   80250:	df000c17 	ldw	fp,48(sp)
                            /* ea @ 52 - Don't corrupt ea. */
                            /* ba @ 56 - Breakpoint register usually isn't an operand. */

        addi  sp, sp, 60
   80254:	dec00f04 	addi	sp,sp,60

        br    .Lexception_exit
   80258:	00000206 	br	80264 <alt_exception_unknown+0x4>


.Lnot_muldiv:

        addi  sp, sp, 60
   8025c:	dec00f04 	addi	sp,sp,60

00080260 <alt_exception_unknown>:
#ifdef NIOS2_HAS_DEBUG_STUB
       /*
        *  Either tell the user now (if there is a debugger attached) or go into
        *  the debug monitor which will loop until a debugger is attached.
        */
        break
   80260:	003da03a 	break	0
        /* 
         * Restore the saved registers, so that all general purpose registers 
         * have been restored to their state at the time the interrupt occured.
         */

        ldw   r5,  68(sp)
   80264:	d9401117 	ldw	r5,68(sp)
        ldw   ea,  72(sp)  /* This becomes the PC once eret is executed */
   80268:	df401217 	ldw	ea,72(sp)
        ldw   ra,   0(sp)
   8026c:	dfc00017 	ldw	ra,0(sp)

        wrctl estatus, r5
   80270:	2801707a 	wrctl	estatus,r5

        ldw   r1,   8(sp)
   80274:	d8400217 	ldw	at,8(sp)
        ldw   r2,  12(sp)
   80278:	d8800317 	ldw	r2,12(sp)
        ldw   r3,  16(sp)
   8027c:	d8c00417 	ldw	r3,16(sp)
        ldw   r4,  20(sp)
   80280:	d9000517 	ldw	r4,20(sp)
        ldw   r5,  24(sp)
   80284:	d9400617 	ldw	r5,24(sp)
        ldw   r6,  28(sp)
   80288:	d9800717 	ldw	r6,28(sp)
        ldw   r7,  32(sp)
   8028c:	d9c00817 	ldw	r7,32(sp)

#if defined(ALT_EXCEPTION_STACK) && defined(ALT_STACK_CHECK)
        ldw   et, %gprel(alt_exception_old_stack_limit)(gp)
#endif

        ldw   r8,  36(sp)
   80290:	da000917 	ldw	r8,36(sp)
        ldw   r9,  40(sp)
   80294:	da400a17 	ldw	r9,40(sp)
        ldw   r10, 44(sp)
   80298:	da800b17 	ldw	r10,44(sp)
        ldw   r11, 48(sp)
   8029c:	dac00c17 	ldw	r11,48(sp)
        ldw   r12, 52(sp)
   802a0:	db000d17 	ldw	r12,52(sp)
        ldw   r13, 56(sp)
   802a4:	db400e17 	ldw	r13,56(sp)
        ldw   r14, 60(sp)
   802a8:	db800f17 	ldw	r14,60(sp)
        ldw   r15, 64(sp)
   802ac:	dbc01017 	ldw	r15,64(sp)
        stw   et, %gprel(alt_stack_limit_value)(gp)
        stw   zero, %gprel(alt_exception_old_stack_limit)(gp)
#endif /* ALT_STACK_CHECK */
        ldw   sp,  76(sp)
#else /* ALT_EXCEPTION_STACK disabled */
        addi  sp, sp, 76
   802b0:	dec01304 	addi	sp,sp,76

        /*
         * Return to the interrupted instruction.
         */

        eret
   802b4:	ef80083a 	eret

000802b8 <alt_irq_handler>:
 * instruction is present if the macro ALT_CI_INTERRUPT_VECTOR defined.
 */

void alt_irq_handler (void) __attribute__ ((section (".exceptions")));
void alt_irq_handler (void)
{
   802b8:	defffe04 	addi	sp,sp,-8
   802bc:	dfc00115 	stw	ra,4(sp)
   802c0:	dc000015 	stw	r16,0(sp)
#ifndef NIOS2_EIC_PRESENT
static ALT_INLINE alt_u32 ALT_ALWAYS_INLINE alt_irq_pending (void)
{
  alt_u32 active;

  NIOS2_READ_IPENDING (active);
   802c4:	000b313a 	rdctl	r5,ipending
   802c8:	04000274 	movhi	r16,9
   802cc:	840fe304 	addi	r16,r16,16268
     * called to clear the interrupt condition.
     */

    do
    {
      if (active & mask)
   802d0:	2880004c 	andi	r2,r5,1

  active = alt_irq_pending ();

  do
  {
    i = 0;
   802d4:	0007883a 	mov	r3,zero
     * called to clear the interrupt condition.
     */

    do
    {
      if (active & mask)
   802d8:	1000051e 	bne	r2,zero,802f0 <alt_irq_handler+0x38>
  active = alt_irq_pending ();

  do
  {
    i = 0;
    mask = 1;
   802dc:	00800044 	movi	r2,1
#else
        alt_irq[i].handler(alt_irq[i].context, i); 
#endif
        break;
      }
      mask <<= 1;
   802e0:	1085883a 	add	r2,r2,r2
     * called to clear the interrupt condition.
     */

    do
    {
      if (active & mask)
   802e4:	2888703a 	and	r4,r5,r2
        alt_irq[i].handler(alt_irq[i].context, i); 
#endif
        break;
      }
      mask <<= 1;
      i++;
   802e8:	18c00044 	addi	r3,r3,1
     * called to clear the interrupt condition.
     */

    do
    {
      if (active & mask)
   802ec:	203ffc26 	beq	r4,zero,802e0 <_gp+0xfffe5eec>
      { 
#ifdef ALT_ENHANCED_INTERRUPT_API_PRESENT
        alt_irq[i].handler(alt_irq[i].context); 
   802f0:	180690fa 	slli	r3,r3,3
   802f4:	80c7883a 	add	r3,r16,r3
   802f8:	18800017 	ldw	r2,0(r3)
   802fc:	19000117 	ldw	r4,4(r3)
   80300:	103ee83a 	callr	r2
   80304:	000b313a 	rdctl	r5,ipending

    } while (1);

    active = alt_irq_pending ();
    
  } while (active);
   80308:	283ff11e 	bne	r5,zero,802d0 <_gp+0xfffe5edc>
  /*
   * Notify the operating system that interrupt processing is complete.
   */ 

  ALT_OS_INT_EXIT();
}
   8030c:	dfc00117 	ldw	ra,4(sp)
   80310:	dc000017 	ldw	r16,0(sp)
   80314:	dec00204 	addi	sp,sp,8
   80318:	f800283a 	ret

Disassembly of section .text:

0008031c <_start>:

    /*
     * Now that the caches are initialized, set up the stack pointer and global pointer.
     * The values provided by the linker are assumed to be correctly aligned.
     */
    movhi sp, %hi(__alt_stack_pointer)
   8031c:	06c00034 	movhi	sp,0
    ori sp, sp, %lo(__alt_stack_pointer)
   80320:	ded00014 	ori	sp,sp,16384
    movhi gp, %hi(_gp)
   80324:	06800274 	movhi	gp,9
    ori gp, gp, %lo(_gp)
   80328:	d6a8fd14 	ori	gp,gp,41972
 */
#ifndef ALT_SIM_OPTIMIZE
    /* Log that the BSS is about to be cleared. */
    ALT_LOG_PUTS(alt_log_msg_bss)

    movhi r2, %hi(__bss_start)
   8032c:	00800274 	movhi	r2,9
    ori r2, r2, %lo(__bss_start)
   80330:	108fca14 	ori	r2,r2,16168

    movhi r3, %hi(__bss_end)
   80334:	00c00274 	movhi	r3,9
    ori r3, r3, %lo(__bss_end)
   80338:	18d02314 	ori	r3,r3,16524

    beq r2, r3, 1f
   8033c:	10c00326 	beq	r2,r3,8034c <_start+0x30>

0:
    stw zero, (r2)
   80340:	10000015 	stw	zero,0(r2)
    addi r2, r2, 4
   80344:	10800104 	addi	r2,r2,4
    bltu r2, r3, 0b
   80348:	10fffd36 	bltu	r2,r3,80340 <_gp+0xfffe5f4c>
     * section aren't defined until alt_load() has been called).
     */
    mov   et, zero
#endif

    call alt_load
   8034c:	008e5200 	call	8e520 <alt_load>

    /* Log that alt_main is about to be called. */
    ALT_LOG_PUTS(alt_log_msg_alt_main)

    /* Call the C entry point. It should never return. */
    call alt_main
   80350:	008e6cc0 	call	8e6cc <alt_main>

00080354 <alt_after_alt_main>:

    /* Wait in infinite loop in case alt_main does return. */
alt_after_alt_main:
    br alt_after_alt_main
   80354:	003fff06 	br	80354 <_gp+0xfffe5f60>

00080358 <main>:

//Declare the global pointer to the memory mapped crypto
struct crypto_t * Crypto = (struct crypto_t *) CRYPTO_MODULE_BASE;


int main() {
   80358:	defe7104 	addi	sp,sp,-1596
   8035c:	dfc18e15 	stw	ra,1592(sp)
   80360:	df018d15 	stw	fp,1588(sp)
   80364:	dcc18c15 	stw	r19,1584(sp)
   80368:	dc818b15 	stw	r18,1580(sp)
   8036c:	dc418a15 	stw	r17,1576(sp)
   80370:	dc018915 	stw	r16,1572(sp)
   80374:	df018d04 	addi	fp,sp,1588

	//Declare an ordinary count
	int count;

	//Byte transfer length, injection vector, and keys.
	int transferLength = 1500;
   80378:	00817704 	movi	r2,1500
   8037c:	e0be7815 	stw	r2,-1568(fp)
	unsigned int injectionvector = 0xdeadbeef;
   80380:	00b7abb4 	movhi	r2,57006
   80384:	10afbbc4 	addi	r2,r2,-16657
   80388:	e0be7915 	stw	r2,-1564(fp)
	unsigned char key8 = 0xa6;
   8038c:	00bfe984 	movi	r2,-90
   80390:	e0be7a05 	stb	r2,-1560(fp)
	unsigned short key16 = 0xbeef;
   80394:	00afbbc4 	movi	r2,-16657
   80398:	e0be7a8d 	sth	r2,-1558(fp)
	unsigned int key32 = 0x1245678;
   8039c:	00804934 	movhi	r2,292
   803a0:	10959e04 	addi	r2,r2,22136
   803a4:	e0be7b15 	stw	r2,-1556(fp)
			hardwareDecryptStartTime, hardwareDecryptStopTime;
	unsigned int softwareEncryptStartTime, softwareEncryptStopTime,
			softwareDecryptStartTime, softwareDecryptStopTime;

	//2048 bytes to possibly transfer
	char largest_payload[] =
   803a8:	00800274 	movhi	r2,9
   803ac:	10801f04 	addi	r2,r2,124
   803b0:	e13e8404 	addi	r4,fp,-1520
   803b4:	1007883a 	mov	r3,r2
   803b8:	00817744 	movi	r2,1501
   803bc:	180b883a 	mov	r5,r3
   803c0:	100d883a 	mov	r6,r2
   803c4:	00825a80 	call	825a8 <memcpy>
ut fringilla orci, consectetur convallis urna. Nullam vestibulum sodales odio porttitor mollis. Proin viverra arcu mauris, vel congue ante semper non. \
Donec nec maris bibendum, suscipit mi vel, congue nisl. Suspendisse sit amet porta ipsum, vel dignissim magna. In aliquam arcu at mi dictum consectetur. \
Donec massa nunc.";

	//Initialize the p/aintext memories
	memcpy(plaintext_A, largest_payload, transferLength);
   803c8:	e0be7817 	ldw	r2,-1568(fp)
   803cc:	e0fe8404 	addi	r3,fp,-1520
   803d0:	01000074 	movhi	r4,1
   803d4:	21200004 	addi	r4,r4,-32768
   803d8:	180b883a 	mov	r5,r3
   803dc:	100d883a 	mov	r6,r2
   803e0:	00825a80 	call	825a8 <memcpy>
	memcpy(plaintext_B, largest_payload, transferLength);
   803e4:	e0be7817 	ldw	r2,-1568(fp)
   803e8:	e0fe8404 	addi	r3,fp,-1520
   803ec:	01000074 	movhi	r4,1
   803f0:	21240004 	addi	r4,r4,-28672
   803f4:	180b883a 	mov	r5,r3
   803f8:	100d883a 	mov	r6,r2
   803fc:	00825a80 	call	825a8 <memcpy>

	//Initialize the timer
	alt_timestamp_start();
   80400:	008f0780 	call	8f078 <alt_timestamp_start>

	//Program the hardware crypto module
	Crypto->readStart = &plaintext_A[0];
   80404:	d0a00017 	ldw	r2,-32768(gp)
   80408:	00c00074 	movhi	r3,1
   8040c:	18e00004 	addi	r3,r3,-32768
   80410:	10c00215 	stw	r3,8(r2)
	Crypto->writeStart = &encrypted_A[0];
   80414:	d0a00017 	ldw	r2,-32768(gp)
   80418:	00c00034 	movhi	r3,0
   8041c:	18d00004 	addi	r3,r3,16384
   80420:	10c00315 	stw	r3,12(r2)
	Crypto->transferLength = transferLength;
   80424:	d0a00017 	ldw	r2,-32768(gp)
   80428:	e0fe7817 	ldw	r3,-1568(fp)
   8042c:	10c00415 	stw	r3,16(r2)
	Crypto->injectionVector = injectionvector;
   80430:	d0a00017 	ldw	r2,-32768(gp)
   80434:	e0fe7917 	ldw	r3,-1564(fp)
   80438:	10c00515 	stw	r3,20(r2)
	Crypto->key8key16 = key8 << 16 | key16;
   8043c:	d0a00017 	ldw	r2,-32768(gp)
   80440:	e0fe7a03 	ldbu	r3,-1560(fp)
   80444:	1808943a 	slli	r4,r3,16
   80448:	e0fe7a8b 	ldhu	r3,-1558(fp)
   8044c:	20c6b03a 	or	r3,r4,r3
   80450:	10c00615 	stw	r3,24(r2)
	Crypto->key32 = key32;
   80454:	d0a00017 	ldw	r2,-32768(gp)
   80458:	e0fe7b17 	ldw	r3,-1556(fp)
   8045c:	10c00715 	stw	r3,28(r2)
//		printf("%c", *(((char*) &plaintext_A[0]) + count));
//	}
//	printf("\n");

	//Start the timer, and start the encryption function
	hardwareEncryptStartTime = alt_timestamp();
   80460:	008f0cc0 	call	8f0cc <alt_timestamp>
   80464:	e0be7c15 	stw	r2,-1552(fp)
	Crypto->control = ENCRYPT;
   80468:	d0a00017 	ldw	r2,-32768(gp)
   8046c:	00c00044 	movi	r3,1
   80470:	10c00015 	stw	r3,0(r2)

	//Spin until crypto indicates done, then stamp the stop time
	while ((Crypto->status & 0x1) == 1) {
   80474:	0001883a 	nop
   80478:	d0a00017 	ldw	r2,-32768(gp)
   8047c:	10800117 	ldw	r2,4(r2)
   80480:	1080004c 	andi	r2,r2,1
   80484:	103ffc1e 	bne	r2,zero,80478 <_gp+0xfffe6084>
	}
	hardwareEncryptStopTime = alt_timestamp();
   80488:	008f0cc0 	call	8f0cc <alt_timestamp>
   8048c:	e0be7d15 	stw	r2,-1548(fp)
//	printf("\n\nEncryption done! Hardware encryption time was %.12fs!\n\n",
//			((double) (hardwareEncryptStopTime - hardwareEncryptStartTime)
//					/ (double) alt_timestamp_freq()));

	//Prepare the decryption of the encrypted string to another lcoation
	Crypto->readStart 	= &encrypted_A[0];
   80490:	d0a00017 	ldw	r2,-32768(gp)
   80494:	00c00034 	movhi	r3,0
   80498:	18d00004 	addi	r3,r3,16384
   8049c:	10c00215 	stw	r3,8(r2)
	Crypto->writeStart 	= &decrypted_A[0];
   804a0:	d0a00017 	ldw	r2,-32768(gp)
   804a4:	00c00074 	movhi	r3,1
   804a8:	18e20004 	addi	r3,r3,-30720
   804ac:	10c00315 	stw	r3,12(r2)

	//Start the timer, and the decryption
	hardwareDecryptStartTime = alt_timestamp();
   804b0:	008f0cc0 	call	8f0cc <alt_timestamp>
   804b4:	e0be7e15 	stw	r2,-1544(fp)
	Crypto->control = DECRYPT;
   804b8:	d0a00017 	ldw	r2,-32768(gp)
   804bc:	00c000c4 	movi	r3,3
   804c0:	10c00015 	stw	r3,0(r2)

	//Spin until crypto indicates done, then stamp the stop time
	while ((Crypto->status & 0x1) == 1) {
   804c4:	0001883a 	nop
   804c8:	d0a00017 	ldw	r2,-32768(gp)
   804cc:	10800117 	ldw	r2,4(r2)
   804d0:	1080004c 	andi	r2,r2,1
   804d4:	103ffc1e 	bne	r2,zero,804c8 <_gp+0xfffe60d4>
	}

	//Print the decrypted string and time delta
	hardwareDecryptStopTime = alt_timestamp();
   804d8:	008f0cc0 	call	8f0cc <alt_timestamp>
   804dc:	e0be7f15 	stw	r2,-1540(fp)
	printf("Decrypted: ");
   804e0:	01000274 	movhi	r4,9
   804e4:	213f5f04 	addi	r4,r4,-644
   804e8:	00826e00 	call	826e0 <printf>
	for (count = 0; count < transferLength; count++) {
   804ec:	e03e7715 	stw	zero,-1572(fp)
   804f0:	00000d06 	br	80528 <main+0x1d0>
		printf("%c", *(((char*) &decrypted_A[0]) + count));
   804f4:	e0fe7717 	ldw	r3,-1572(fp)
   804f8:	00800074 	movhi	r2,1
   804fc:	10a20004 	addi	r2,r2,-30720
   80500:	1885883a 	add	r2,r3,r2
   80504:	10800003 	ldbu	r2,0(r2)
   80508:	10803fcc 	andi	r2,r2,255
   8050c:	1080201c 	xori	r2,r2,128
   80510:	10bfe004 	addi	r2,r2,-128
   80514:	1009883a 	mov	r4,r2
   80518:	00827240 	call	82724 <putchar>
	}

	//Print the decrypted string and time delta
	hardwareDecryptStopTime = alt_timestamp();
	printf("Decrypted: ");
	for (count = 0; count < transferLength; count++) {
   8051c:	e0be7717 	ldw	r2,-1572(fp)
   80520:	10800044 	addi	r2,r2,1
   80524:	e0be7715 	stw	r2,-1572(fp)
   80528:	e0fe7717 	ldw	r3,-1572(fp)
   8052c:	e0be7817 	ldw	r2,-1568(fp)
   80530:	18bff016 	blt	r3,r2,804f4 <_gp+0xfffe6100>
		printf("%c", *(((char*) &decrypted_A[0]) + count));
	}
	printf("\n\nDecryption done! Hardware decryption time was %.12fs!\n",
			((double) (hardwareDecryptStopTime - hardwareDecryptStartTime)
   80534:	e0fe7f17 	ldw	r3,-1540(fp)
   80538:	e0be7e17 	ldw	r2,-1544(fp)
   8053c:	1885c83a 	sub	r2,r3,r2
   80540:	1009883a 	mov	r4,r2
   80544:	00823200 	call	82320 <__floatunsidf>
   80548:	1021883a 	mov	r16,r2
   8054c:	1823883a 	mov	r17,r3
					/ (double) alt_timestamp_freq()));
   80550:	008f1280 	call	8f128 <alt_timestamp_freq>
   80554:	1009883a 	mov	r4,r2
   80558:	00822500 	call	82250 <__floatsidf>
   8055c:	100f883a 	mov	r7,r2
   80560:	1811883a 	mov	r8,r3
	hardwareDecryptStopTime = alt_timestamp();
	printf("Decrypted: ");
	for (count = 0; count < transferLength; count++) {
		printf("%c", *(((char*) &decrypted_A[0]) + count));
	}
	printf("\n\nDecryption done! Hardware decryption time was %.12fs!\n",
   80564:	8009883a 	mov	r4,r16
   80568:	880b883a 	mov	r5,r17
   8056c:	380d883a 	mov	r6,r7
   80570:	400f883a 	mov	r7,r8
   80574:	00818b40 	call	818b4 <__divdf3>
   80578:	1009883a 	mov	r4,r2
   8057c:	180b883a 	mov	r5,r3
   80580:	2005883a 	mov	r2,r4
   80584:	2807883a 	mov	r3,r5
   80588:	01000274 	movhi	r4,9
   8058c:	213f6204 	addi	r4,r4,-632
   80590:	100b883a 	mov	r5,r2
   80594:	180d883a 	mov	r6,r3
   80598:	00826e00 	call	826e0 <printf>
			((double) (hardwareDecryptStopTime - hardwareDecryptStartTime)
					/ (double) alt_timestamp_freq()));
	printf("Done hardware crypto!\n\n");
   8059c:	01000274 	movhi	r4,9
   805a0:	213f7104 	addi	r4,r4,-572
   805a4:	00827f80 	call	827f8 <puts>

	//Print out the original memory location
	printf("Beginning software crypto!\n");
   805a8:	01000274 	movhi	r4,9
   805ac:	213f7704 	addi	r4,r4,-548
   805b0:	00827f80 	call	827f8 <puts>
	printf("Plaintext: ");
   805b4:	01000274 	movhi	r4,9
   805b8:	213f7e04 	addi	r4,r4,-520
   805bc:	00826e00 	call	826e0 <printf>
	for (count = 0; count < transferLength; count++) {
   805c0:	e03e7715 	stw	zero,-1572(fp)
   805c4:	00000d06 	br	805fc <main+0x2a4>
		printf("%c", *(((char*) &plaintext_B[0]) + count));
   805c8:	e0fe7717 	ldw	r3,-1572(fp)
   805cc:	00800074 	movhi	r2,1
   805d0:	10a40004 	addi	r2,r2,-28672
   805d4:	1885883a 	add	r2,r3,r2
   805d8:	10800003 	ldbu	r2,0(r2)
   805dc:	10803fcc 	andi	r2,r2,255
   805e0:	1080201c 	xori	r2,r2,128
   805e4:	10bfe004 	addi	r2,r2,-128
   805e8:	1009883a 	mov	r4,r2
   805ec:	00827240 	call	82724 <putchar>
	printf("Done hardware crypto!\n\n");

	//Print out the original memory location
	printf("Beginning software crypto!\n");
	printf("Plaintext: ");
	for (count = 0; count < transferLength; count++) {
   805f0:	e0be7717 	ldw	r2,-1572(fp)
   805f4:	10800044 	addi	r2,r2,1
   805f8:	e0be7715 	stw	r2,-1572(fp)
   805fc:	e0fe7717 	ldw	r3,-1572(fp)
   80600:	e0be7817 	ldw	r2,-1568(fp)
   80604:	18bff016 	blt	r3,r2,805c8 <_gp+0xfffe61d4>
		printf("%c", *(((char*) &plaintext_B[0]) + count));
	}
	printf("\n");
   80608:	01000284 	movi	r4,10
   8060c:	00827240 	call	82724 <putchar>

	//Start the timer, and the software encryption
	softwareEncryptStartTime = alt_timestamp();
   80610:	008f0cc0 	call	8f0cc <alt_timestamp>
   80614:	e0be8015 	stw	r2,-1536(fp)
	CryptoProcedure(0, &plaintext_B[0], &encrypted_B[0], transferLength, 0xdeadbeef,
   80618:	00b7abb4 	movhi	r2,57006
   8061c:	10afbbc4 	addi	r2,r2,-16657
   80620:	d8800015 	stw	r2,0(sp)
   80624:	00802984 	movi	r2,166
   80628:	d8800115 	stw	r2,4(sp)
   8062c:	00afbbd4 	movui	r2,48879
   80630:	d8800215 	stw	r2,8(sp)
   80634:	00804934 	movhi	r2,292
   80638:	10959e04 	addi	r2,r2,22136
   8063c:	d8800315 	stw	r2,12(sp)
   80640:	0009883a 	mov	r4,zero
   80644:	01400074 	movhi	r5,1
   80648:	29640004 	addi	r5,r5,-28672
   8064c:	01800034 	movhi	r6,0
   80650:	31920004 	addi	r6,r6,18432
   80654:	e1fe7817 	ldw	r7,-1568(fp)
   80658:	0080af00 	call	80af0 <CryptoProcedure>
			0xa6, 0xbeef, 0x1245678);

	//Print the encrypted string and time delta
	softwareEncryptStopTime = alt_timestamp();
   8065c:	008f0cc0 	call	8f0cc <alt_timestamp>
   80660:	e0be8115 	stw	r2,-1532(fp)
	printf("\nEncrypted: ");
   80664:	01000274 	movhi	r4,9
   80668:	213f8104 	addi	r4,r4,-508
   8066c:	00826e00 	call	826e0 <printf>
	for (count = 0; count < transferLength; count++) {
   80670:	e03e7715 	stw	zero,-1572(fp)
   80674:	00000d06 	br	806ac <main+0x354>
		printf("%c", *(((char*) &encrypted_B[0]) + count));
   80678:	e0fe7717 	ldw	r3,-1572(fp)
   8067c:	00800034 	movhi	r2,0
   80680:	10920004 	addi	r2,r2,18432
   80684:	1885883a 	add	r2,r3,r2
   80688:	10800003 	ldbu	r2,0(r2)
   8068c:	10803fcc 	andi	r2,r2,255
   80690:	1080201c 	xori	r2,r2,128
   80694:	10bfe004 	addi	r2,r2,-128
   80698:	1009883a 	mov	r4,r2
   8069c:	00827240 	call	82724 <putchar>
			0xa6, 0xbeef, 0x1245678);

	//Print the encrypted string and time delta
	softwareEncryptStopTime = alt_timestamp();
	printf("\nEncrypted: ");
	for (count = 0; count < transferLength; count++) {
   806a0:	e0be7717 	ldw	r2,-1572(fp)
   806a4:	10800044 	addi	r2,r2,1
   806a8:	e0be7715 	stw	r2,-1572(fp)
   806ac:	e0fe7717 	ldw	r3,-1572(fp)
   806b0:	e0be7817 	ldw	r2,-1568(fp)
   806b4:	18bff016 	blt	r3,r2,80678 <_gp+0xfffe6284>
		printf("%c", *(((char*) &encrypted_B[0]) + count));
	}
	printf(
			"\n\nSoftware encryption done! Processor encryption time was %.12fs!\n\n",
			((double) (softwareEncryptStopTime - softwareEncryptStartTime)
   806b8:	e0fe8117 	ldw	r3,-1532(fp)
   806bc:	e0be8017 	ldw	r2,-1536(fp)
   806c0:	1885c83a 	sub	r2,r3,r2
   806c4:	1009883a 	mov	r4,r2
   806c8:	00823200 	call	82320 <__floatunsidf>
   806cc:	1021883a 	mov	r16,r2
   806d0:	1823883a 	mov	r17,r3
					/ (double) alt_timestamp_freq()));
   806d4:	008f1280 	call	8f128 <alt_timestamp_freq>
   806d8:	1009883a 	mov	r4,r2
   806dc:	00822500 	call	82250 <__floatsidf>
   806e0:	100f883a 	mov	r7,r2
   806e4:	1811883a 	mov	r8,r3
	softwareEncryptStopTime = alt_timestamp();
	printf("\nEncrypted: ");
	for (count = 0; count < transferLength; count++) {
		printf("%c", *(((char*) &encrypted_B[0]) + count));
	}
	printf(
   806e8:	8009883a 	mov	r4,r16
   806ec:	880b883a 	mov	r5,r17
   806f0:	380d883a 	mov	r6,r7
   806f4:	400f883a 	mov	r7,r8
   806f8:	00818b40 	call	818b4 <__divdf3>
   806fc:	1009883a 	mov	r4,r2
   80700:	180b883a 	mov	r5,r3
   80704:	2005883a 	mov	r2,r4
   80708:	2807883a 	mov	r3,r5
   8070c:	01000274 	movhi	r4,9
   80710:	213f8504 	addi	r4,r4,-492
   80714:	100b883a 	mov	r5,r2
   80718:	180d883a 	mov	r6,r3
   8071c:	00826e00 	call	826e0 <printf>
			"\n\nSoftware encryption done! Processor encryption time was %.12fs!\n\n",
			((double) (softwareEncryptStopTime - softwareEncryptStartTime)
					/ (double) alt_timestamp_freq()));

	//Start the timer, and the decryption
	softwareDecryptStartTime = alt_timestamp();
   80720:	008f0cc0 	call	8f0cc <alt_timestamp>
   80724:	e0be8215 	stw	r2,-1528(fp)
	CryptoProcedure(1, &encrypted_B[0], &decrypted_B[0], transferLength, 0xdeadbeef,
   80728:	00b7abb4 	movhi	r2,57006
   8072c:	10afbbc4 	addi	r2,r2,-16657
   80730:	d8800015 	stw	r2,0(sp)
   80734:	00802984 	movi	r2,166
   80738:	d8800115 	stw	r2,4(sp)
   8073c:	00afbbd4 	movui	r2,48879
   80740:	d8800215 	stw	r2,8(sp)
   80744:	00804934 	movhi	r2,292
   80748:	10959e04 	addi	r2,r2,22136
   8074c:	d8800315 	stw	r2,12(sp)
   80750:	01000044 	movi	r4,1
   80754:	01400034 	movhi	r5,0
   80758:	29520004 	addi	r5,r5,18432
   8075c:	01800074 	movhi	r6,1
   80760:	31a60004 	addi	r6,r6,-26624
   80764:	e1fe7817 	ldw	r7,-1568(fp)
   80768:	0080af00 	call	80af0 <CryptoProcedure>
			0xa6, 0xbeef, 0x1245678);

	//Print the decrypted string and time delta
	softwareDecryptStopTime = alt_timestamp();
   8076c:	008f0cc0 	call	8f0cc <alt_timestamp>
   80770:	e0be8315 	stw	r2,-1524(fp)
	printf("Decrypted: ");
   80774:	01000274 	movhi	r4,9
   80778:	213f5f04 	addi	r4,r4,-644
   8077c:	00826e00 	call	826e0 <printf>
	for (count = 0; count < transferLength; count++) {
   80780:	e03e7715 	stw	zero,-1572(fp)
   80784:	00000d06 	br	807bc <main+0x464>
		printf("%c", *(((char*) &decrypted_B[0]) + count));
   80788:	e0fe7717 	ldw	r3,-1572(fp)
   8078c:	00800074 	movhi	r2,1
   80790:	10a60004 	addi	r2,r2,-26624
   80794:	1885883a 	add	r2,r3,r2
   80798:	10800003 	ldbu	r2,0(r2)
   8079c:	10803fcc 	andi	r2,r2,255
   807a0:	1080201c 	xori	r2,r2,128
   807a4:	10bfe004 	addi	r2,r2,-128
   807a8:	1009883a 	mov	r4,r2
   807ac:	00827240 	call	82724 <putchar>
			0xa6, 0xbeef, 0x1245678);

	//Print the decrypted string and time delta
	softwareDecryptStopTime = alt_timestamp();
	printf("Decrypted: ");
	for (count = 0; count < transferLength; count++) {
   807b0:	e0be7717 	ldw	r2,-1572(fp)
   807b4:	10800044 	addi	r2,r2,1
   807b8:	e0be7715 	stw	r2,-1572(fp)
   807bc:	e0fe7717 	ldw	r3,-1572(fp)
   807c0:	e0be7817 	ldw	r2,-1568(fp)
   807c4:	18bff016 	blt	r3,r2,80788 <_gp+0xfffe6394>
		printf("%c", *(((char*) &decrypted_B[0]) + count));
	}
	printf(
			"\n\nSoftware decryption done! Software decryption time was %.12fs!\n",
			((double) (softwareDecryptStopTime - softwareDecryptStartTime)
   807c8:	e0fe8317 	ldw	r3,-1524(fp)
   807cc:	e0be8217 	ldw	r2,-1528(fp)
   807d0:	1885c83a 	sub	r2,r3,r2
   807d4:	1009883a 	mov	r4,r2
   807d8:	00823200 	call	82320 <__floatunsidf>
   807dc:	1021883a 	mov	r16,r2
   807e0:	1823883a 	mov	r17,r3
					/ (double) alt_timestamp_freq()));
   807e4:	008f1280 	call	8f128 <alt_timestamp_freq>
   807e8:	1009883a 	mov	r4,r2
   807ec:	00822500 	call	82250 <__floatsidf>
   807f0:	100f883a 	mov	r7,r2
   807f4:	1811883a 	mov	r8,r3
	softwareDecryptStopTime = alt_timestamp();
	printf("Decrypted: ");
	for (count = 0; count < transferLength; count++) {
		printf("%c", *(((char*) &decrypted_B[0]) + count));
	}
	printf(
   807f8:	8009883a 	mov	r4,r16
   807fc:	880b883a 	mov	r5,r17
   80800:	380d883a 	mov	r6,r7
   80804:	400f883a 	mov	r7,r8
   80808:	00818b40 	call	818b4 <__divdf3>
   8080c:	1009883a 	mov	r4,r2
   80810:	180b883a 	mov	r5,r3
   80814:	2005883a 	mov	r2,r4
   80818:	2807883a 	mov	r3,r5
   8081c:	01000274 	movhi	r4,9
   80820:	213f9604 	addi	r4,r4,-424
   80824:	100b883a 	mov	r5,r2
   80828:	180d883a 	mov	r6,r3
   8082c:	00826e00 	call	826e0 <printf>
			"\n\nSoftware decryption done! Software decryption time was %.12fs!\n",
			((double) (softwareDecryptStopTime - softwareDecryptStartTime)
					/ (double) alt_timestamp_freq()));
	printf("Done software crypto!\n\n");
   80830:	01000274 	movhi	r4,9
   80834:	213fa704 	addi	r4,r4,-356
   80838:	00827f80 	call	827f8 <puts>

	//Print the summary
	printf(
   8083c:	01000274 	movhi	r4,9
   80840:	213fad04 	addi	r4,r4,-332
   80844:	00827f80 	call	827f8 <puts>
			"******************************************************************************************************************\n");
	printf(
   80848:	01000274 	movhi	r4,9
   8084c:	213fca04 	addi	r4,r4,-216
   80850:	00827f80 	call	827f8 <puts>
			"*                                                     Summary                                                    *\n");
	printf(
   80854:	01000274 	movhi	r4,9
   80858:	213fad04 	addi	r4,r4,-332
   8085c:	00827f80 	call	827f8 <puts>
			"******************************************************************************************************************\n");
	printf(
			"* Software encryption time: %.12fs\t\tSoftware decryption time: %.12fs\t\t*\n",
			((double) (softwareEncryptStopTime - softwareEncryptStartTime)
   80860:	e0fe8117 	ldw	r3,-1532(fp)
   80864:	e0be8017 	ldw	r2,-1536(fp)
   80868:	1885c83a 	sub	r2,r3,r2
   8086c:	1009883a 	mov	r4,r2
   80870:	00823200 	call	82320 <__floatunsidf>
   80874:	1021883a 	mov	r16,r2
   80878:	1823883a 	mov	r17,r3
					/ (double) alt_timestamp_freq()),
   8087c:	008f1280 	call	8f128 <alt_timestamp_freq>
   80880:	1009883a 	mov	r4,r2
   80884:	00822500 	call	82250 <__floatsidf>
   80888:	100f883a 	mov	r7,r2
   8088c:	1811883a 	mov	r8,r3
			"******************************************************************************************************************\n");
	printf(
			"*                                                     Summary                                                    *\n");
	printf(
			"******************************************************************************************************************\n");
	printf(
   80890:	8009883a 	mov	r4,r16
   80894:	880b883a 	mov	r5,r17
   80898:	380d883a 	mov	r6,r7
   8089c:	400f883a 	mov	r7,r8
   808a0:	00818b40 	call	818b4 <__divdf3>
   808a4:	1009883a 	mov	r4,r2
   808a8:	180b883a 	mov	r5,r3
   808ac:	2021883a 	mov	r16,r4
   808b0:	2823883a 	mov	r17,r5
			"* Software encryption time: %.12fs\t\tSoftware decryption time: %.12fs\t\t*\n",
			((double) (softwareEncryptStopTime - softwareEncryptStartTime)
					/ (double) alt_timestamp_freq()),
			((double) (softwareDecryptStopTime - softwareDecryptStartTime)
   808b4:	e0fe8317 	ldw	r3,-1524(fp)
   808b8:	e0be8217 	ldw	r2,-1528(fp)
   808bc:	1885c83a 	sub	r2,r3,r2
   808c0:	1009883a 	mov	r4,r2
   808c4:	00823200 	call	82320 <__floatunsidf>
   808c8:	1025883a 	mov	r18,r2
   808cc:	1827883a 	mov	r19,r3
					/ (double) alt_timestamp_freq()));
   808d0:	008f1280 	call	8f128 <alt_timestamp_freq>
   808d4:	1009883a 	mov	r4,r2
   808d8:	00822500 	call	82250 <__floatsidf>
   808dc:	100f883a 	mov	r7,r2
   808e0:	1811883a 	mov	r8,r3
			"******************************************************************************************************************\n");
	printf(
			"*                                                     Summary                                                    *\n");
	printf(
			"******************************************************************************************************************\n");
	printf(
   808e4:	9009883a 	mov	r4,r18
   808e8:	980b883a 	mov	r5,r19
   808ec:	380d883a 	mov	r6,r7
   808f0:	400f883a 	mov	r7,r8
   808f4:	00818b40 	call	818b4 <__divdf3>
   808f8:	1009883a 	mov	r4,r2
   808fc:	180b883a 	mov	r5,r3
   80900:	2005883a 	mov	r2,r4
   80904:	2807883a 	mov	r3,r5
   80908:	d8c00015 	stw	r3,0(sp)
   8090c:	100f883a 	mov	r7,r2
   80910:	01000274 	movhi	r4,9
   80914:	213fe704 	addi	r4,r4,-100
   80918:	800b883a 	mov	r5,r16
   8091c:	880d883a 	mov	r6,r17
   80920:	00826e00 	call	826e0 <printf>
					/ (double) alt_timestamp_freq()),
			((double) (softwareDecryptStopTime - softwareDecryptStartTime)
					/ (double) alt_timestamp_freq()));
	printf(
			"* Hardware encryption time: %.12fs\t\tHardware decryption time: %.12fs\t\t*\n",
			((double) (hardwareEncryptStopTime - hardwareEncryptStartTime)
   80924:	e0fe7d17 	ldw	r3,-1548(fp)
   80928:	e0be7c17 	ldw	r2,-1552(fp)
   8092c:	1885c83a 	sub	r2,r3,r2
   80930:	1009883a 	mov	r4,r2
   80934:	00823200 	call	82320 <__floatunsidf>
   80938:	1021883a 	mov	r16,r2
   8093c:	1823883a 	mov	r17,r3
					/ (double) alt_timestamp_freq()),
   80940:	008f1280 	call	8f128 <alt_timestamp_freq>
   80944:	1009883a 	mov	r4,r2
   80948:	00822500 	call	82250 <__floatsidf>
   8094c:	100f883a 	mov	r7,r2
   80950:	1811883a 	mov	r8,r3
			"* Software encryption time: %.12fs\t\tSoftware decryption time: %.12fs\t\t*\n",
			((double) (softwareEncryptStopTime - softwareEncryptStartTime)
					/ (double) alt_timestamp_freq()),
			((double) (softwareDecryptStopTime - softwareDecryptStartTime)
					/ (double) alt_timestamp_freq()));
	printf(
   80954:	8009883a 	mov	r4,r16
   80958:	880b883a 	mov	r5,r17
   8095c:	380d883a 	mov	r6,r7
   80960:	400f883a 	mov	r7,r8
   80964:	00818b40 	call	818b4 <__divdf3>
   80968:	1009883a 	mov	r4,r2
   8096c:	180b883a 	mov	r5,r3
   80970:	2021883a 	mov	r16,r4
   80974:	2823883a 	mov	r17,r5
			"* Hardware encryption time: %.12fs\t\tHardware decryption time: %.12fs\t\t*\n",
			((double) (hardwareEncryptStopTime - hardwareEncryptStartTime)
					/ (double) alt_timestamp_freq()),
			((double) (hardwareDecryptStopTime - hardwareDecryptStartTime)
   80978:	e0fe7f17 	ldw	r3,-1540(fp)
   8097c:	e0be7e17 	ldw	r2,-1544(fp)
   80980:	1885c83a 	sub	r2,r3,r2
   80984:	1009883a 	mov	r4,r2
   80988:	00823200 	call	82320 <__floatunsidf>
   8098c:	1025883a 	mov	r18,r2
   80990:	1827883a 	mov	r19,r3
					/ (double) alt_timestamp_freq()));
   80994:	008f1280 	call	8f128 <alt_timestamp_freq>
   80998:	1009883a 	mov	r4,r2
   8099c:	00822500 	call	82250 <__floatsidf>
   809a0:	100f883a 	mov	r7,r2
   809a4:	1811883a 	mov	r8,r3
			"* Software encryption time: %.12fs\t\tSoftware decryption time: %.12fs\t\t*\n",
			((double) (softwareEncryptStopTime - softwareEncryptStartTime)
					/ (double) alt_timestamp_freq()),
			((double) (softwareDecryptStopTime - softwareDecryptStartTime)
					/ (double) alt_timestamp_freq()));
	printf(
   809a8:	9009883a 	mov	r4,r18
   809ac:	980b883a 	mov	r5,r19
   809b0:	380d883a 	mov	r6,r7
   809b4:	400f883a 	mov	r7,r8
   809b8:	00818b40 	call	818b4 <__divdf3>
   809bc:	1009883a 	mov	r4,r2
   809c0:	180b883a 	mov	r5,r3
   809c4:	2005883a 	mov	r2,r4
   809c8:	2807883a 	mov	r3,r5
   809cc:	d8c00015 	stw	r3,0(sp)
   809d0:	100f883a 	mov	r7,r2
   809d4:	01000274 	movhi	r4,9
   809d8:	213ffa04 	addi	r4,r4,-24
   809dc:	800b883a 	mov	r5,r16
   809e0:	880d883a 	mov	r6,r17
   809e4:	00826e00 	call	826e0 <printf>
					/ (double) alt_timestamp_freq()),
			((double) (hardwareDecryptStopTime - hardwareDecryptStartTime)
					/ (double) alt_timestamp_freq()));
	printf(
			"* Encryption speedup      : %3.6f\t\t\tDecryption speedup      : %3.6f\t\t*\n",
			(double) (softwareEncryptStopTime - softwareEncryptStartTime)
   809e8:	e0fe8117 	ldw	r3,-1532(fp)
   809ec:	e0be8017 	ldw	r2,-1536(fp)
   809f0:	1885c83a 	sub	r2,r3,r2
   809f4:	1009883a 	mov	r4,r2
   809f8:	00823200 	call	82320 <__floatunsidf>
   809fc:	1021883a 	mov	r16,r2
   80a00:	1823883a 	mov	r17,r3
					/ (double) (hardwareEncryptStopTime
							- hardwareEncryptStartTime),
   80a04:	e0fe7d17 	ldw	r3,-1548(fp)
   80a08:	e0be7c17 	ldw	r2,-1552(fp)
   80a0c:	1885c83a 	sub	r2,r3,r2
			((double) (hardwareDecryptStopTime - hardwareDecryptStartTime)
					/ (double) alt_timestamp_freq()));
	printf(
			"* Encryption speedup      : %3.6f\t\t\tDecryption speedup      : %3.6f\t\t*\n",
			(double) (softwareEncryptStopTime - softwareEncryptStartTime)
					/ (double) (hardwareEncryptStopTime
   80a10:	1009883a 	mov	r4,r2
   80a14:	00823200 	call	82320 <__floatunsidf>
   80a18:	100f883a 	mov	r7,r2
   80a1c:	1811883a 	mov	r8,r3
			"* Hardware encryption time: %.12fs\t\tHardware decryption time: %.12fs\t\t*\n",
			((double) (hardwareEncryptStopTime - hardwareEncryptStartTime)
					/ (double) alt_timestamp_freq()),
			((double) (hardwareDecryptStopTime - hardwareDecryptStartTime)
					/ (double) alt_timestamp_freq()));
	printf(
   80a20:	8009883a 	mov	r4,r16
   80a24:	880b883a 	mov	r5,r17
   80a28:	380d883a 	mov	r6,r7
   80a2c:	400f883a 	mov	r7,r8
   80a30:	00818b40 	call	818b4 <__divdf3>
   80a34:	1009883a 	mov	r4,r2
   80a38:	180b883a 	mov	r5,r3
   80a3c:	2021883a 	mov	r16,r4
   80a40:	2823883a 	mov	r17,r5
			"* Encryption speedup      : %3.6f\t\t\tDecryption speedup      : %3.6f\t\t*\n",
			(double) (softwareEncryptStopTime - softwareEncryptStartTime)
					/ (double) (hardwareEncryptStopTime
							- hardwareEncryptStartTime),
			(double) (softwareDecryptStopTime - softwareDecryptStartTime)
   80a44:	e0fe8317 	ldw	r3,-1524(fp)
   80a48:	e0be8217 	ldw	r2,-1528(fp)
   80a4c:	1885c83a 	sub	r2,r3,r2
   80a50:	1009883a 	mov	r4,r2
   80a54:	00823200 	call	82320 <__floatunsidf>
   80a58:	1025883a 	mov	r18,r2
   80a5c:	1827883a 	mov	r19,r3
					/ (double) (hardwareDecryptStopTime
							- hardwareDecryptStartTime));
   80a60:	e0fe7f17 	ldw	r3,-1540(fp)
   80a64:	e0be7e17 	ldw	r2,-1544(fp)
   80a68:	1885c83a 	sub	r2,r3,r2
			"* Encryption speedup      : %3.6f\t\t\tDecryption speedup      : %3.6f\t\t*\n",
			(double) (softwareEncryptStopTime - softwareEncryptStartTime)
					/ (double) (hardwareEncryptStopTime
							- hardwareEncryptStartTime),
			(double) (softwareDecryptStopTime - softwareDecryptStartTime)
					/ (double) (hardwareDecryptStopTime
   80a6c:	1009883a 	mov	r4,r2
   80a70:	00823200 	call	82320 <__floatunsidf>
   80a74:	100f883a 	mov	r7,r2
   80a78:	1811883a 	mov	r8,r3
			"* Hardware encryption time: %.12fs\t\tHardware decryption time: %.12fs\t\t*\n",
			((double) (hardwareEncryptStopTime - hardwareEncryptStartTime)
					/ (double) alt_timestamp_freq()),
			((double) (hardwareDecryptStopTime - hardwareDecryptStartTime)
					/ (double) alt_timestamp_freq()));
	printf(
   80a7c:	9009883a 	mov	r4,r18
   80a80:	980b883a 	mov	r5,r19
   80a84:	380d883a 	mov	r6,r7
   80a88:	400f883a 	mov	r7,r8
   80a8c:	00818b40 	call	818b4 <__divdf3>
   80a90:	1009883a 	mov	r4,r2
   80a94:	180b883a 	mov	r5,r3
   80a98:	2005883a 	mov	r2,r4
   80a9c:	2807883a 	mov	r3,r5
   80aa0:	d8c00015 	stw	r3,0(sp)
   80aa4:	100f883a 	mov	r7,r2
   80aa8:	01000274 	movhi	r4,9
   80aac:	21000d04 	addi	r4,r4,52
   80ab0:	800b883a 	mov	r5,r16
   80ab4:	880d883a 	mov	r6,r17
   80ab8:	00826e00 	call	826e0 <printf>
					/ (double) (hardwareEncryptStopTime
							- hardwareEncryptStartTime),
			(double) (softwareDecryptStopTime - softwareDecryptStartTime)
					/ (double) (hardwareDecryptStopTime
							- hardwareDecryptStartTime));
	printf(
   80abc:	01000274 	movhi	r4,9
   80ac0:	213fad04 	addi	r4,r4,-332
   80ac4:	00827f80 	call	827f8 <puts>
			"******************************************************************************************************************\n");
	return 0;
   80ac8:	0005883a 	mov	r2,zero
}
   80acc:	e6fffc04 	addi	sp,fp,-16
   80ad0:	dfc00517 	ldw	ra,20(sp)
   80ad4:	df000417 	ldw	fp,16(sp)
   80ad8:	dcc00317 	ldw	r19,12(sp)
   80adc:	dc800217 	ldw	r18,8(sp)
   80ae0:	dc400117 	ldw	r17,4(sp)
   80ae4:	dc000017 	ldw	r16,0(sp)
   80ae8:	dec00604 	addi	sp,sp,24
   80aec:	f800283a 	ret

00080af0 <CryptoProcedure>:
//	Output:	An encrypted or decrypted byte array at the specified memory location
//////////////////////////////////////////////////////////////////////////////////////////////
void CryptoProcedure(unsigned char control, unsigned char * readstart,
						unsigned char * writestart, unsigned int transferlength,
						unsigned int injectionvector, unsigned char key8, unsigned short key16,
						unsigned int key32) {
   80af0:	defff104 	addi	sp,sp,-60
   80af4:	df000e15 	stw	fp,56(sp)
   80af8:	df000e04 	addi	fp,sp,56
   80afc:	e17ffb15 	stw	r5,-20(fp)
   80b00:	e1bffc15 	stw	r6,-16(fp)
   80b04:	e1fffd15 	stw	r7,-12(fp)
   80b08:	e0c00217 	ldw	r3,8(fp)
   80b0c:	e0800317 	ldw	r2,12(fp)
   80b10:	e13ffa05 	stb	r4,-24(fp)
   80b14:	e0fffe05 	stb	r3,-8(fp)
   80b18:	e0bfff0d 	sth	r2,-4(fp)

	unsigned int key8_32 	= (key8 << 24) | (key8 << 16) | (key8 << 8) | (key8);
   80b1c:	e0bffe03 	ldbu	r2,-8(fp)
   80b20:	1006963a 	slli	r3,r2,24
   80b24:	e0bffe03 	ldbu	r2,-8(fp)
   80b28:	1004943a 	slli	r2,r2,16
   80b2c:	1886b03a 	or	r3,r3,r2
   80b30:	e0bffe03 	ldbu	r2,-8(fp)
   80b34:	1004923a 	slli	r2,r2,8
   80b38:	1886b03a 	or	r3,r3,r2
   80b3c:	e0bffe03 	ldbu	r2,-8(fp)
   80b40:	1884b03a 	or	r2,r3,r2
   80b44:	e0bff215 	stw	r2,-56(fp)
	unsigned int key16_32 	= (key16 << 16) | (key16);
   80b48:	e0bfff0b 	ldhu	r2,-4(fp)
   80b4c:	1006943a 	slli	r3,r2,16
   80b50:	e0bfff0b 	ldhu	r2,-4(fp)
   80b54:	1884b03a 	or	r2,r3,r2
   80b58:	e0bff315 	stw	r2,-52(fp)
	unsigned int key32_32 	= (key32);
   80b5c:	e0800417 	ldw	r2,16(fp)
   80b60:	e0bff415 	stw	r2,-48(fp)
	unsigned int injectionvector_32 = injectionvector;
   80b64:	e0800117 	ldw	r2,4(fp)
   80b68:	e0bff515 	stw	r2,-44(fp)
	unsigned int * writeaddress = (unsigned int*)((unsigned int)writestart & (unsigned int)0xfffffffc);
   80b6c:	e0fffc17 	ldw	r3,-16(fp)
   80b70:	00bfff04 	movi	r2,-4
   80b74:	1884703a 	and	r2,r3,r2
   80b78:	e0bff615 	stw	r2,-40(fp)
	unsigned int * readaddress = (unsigned int*)((unsigned int)readstart & (unsigned int)0xfffffffc);
   80b7c:	e0fffb17 	ldw	r3,-20(fp)
   80b80:	00bfff04 	movi	r2,-4
   80b84:	1884703a 	and	r2,r3,r2
   80b88:	e0bff715 	stw	r2,-36(fp)
	unsigned int rotationcounter = 0;
   80b8c:	e03ff815 	stw	zero,-32(fp)
	unsigned int byteswritten = 0;
   80b90:	e03ff915 	stw	zero,-28(fp)

	if (control == 0) {
   80b94:	e0bffa03 	ldbu	r2,-24(fp)
   80b98:	1001991e 	bne	r2,zero,81200 <CryptoProcedure+0x710>
		switch ((unsigned int)readstart & (unsigned int)0x3) {
   80b9c:	e0bffb17 	ldw	r2,-20(fp)
   80ba0:	108000cc 	andi	r2,r2,3
   80ba4:	10c00060 	cmpeqi	r3,r2,1
   80ba8:	18006a1e 	bne	r3,zero,80d54 <CryptoProcedure+0x264>
   80bac:	0080052e 	bgeu	zero,r2,80bc4 <CryptoProcedure+0xd4>
   80bb0:	10c000a0 	cmpeqi	r3,r2,2
   80bb4:	1800ba1e 	bne	r3,zero,80ea0 <CryptoProcedure+0x3b0>
   80bb8:	108000e0 	cmpeqi	r2,r2,3
   80bbc:	1000eb1e 	bne	r2,zero,80f6c <CryptoProcedure+0x47c>
   80bc0:	00010306 	br	80fd0 <CryptoProcedure+0x4e0>
		case (0x0):
			if (transferlength == 3) {
   80bc4:	e0bffd17 	ldw	r2,-12(fp)
   80bc8:	108000d8 	cmpnei	r2,r2,3
   80bcc:	1000191e 	bne	r2,zero,80c34 <CryptoProcedure+0x144>
				injectionvector_32 = (*readaddress & 0xff000000)
   80bd0:	e0bff717 	ldw	r2,-36(fp)
   80bd4:	10800017 	ldw	r2,0(r2)
   80bd8:	10ffc02c 	andhi	r3,r2,65280
						| ((*readaddress ^ injectionvector_32 ^ key8_32
   80bdc:	e0bff717 	ldw	r2,-36(fp)
   80be0:	11000017 	ldw	r4,0(r2)
   80be4:	e0bff517 	ldw	r2,-44(fp)
   80be8:	2088f03a 	xor	r4,r4,r2
   80bec:	e0bff217 	ldw	r2,-56(fp)
   80bf0:	2088f03a 	xor	r4,r4,r2
								^ key16_32 ^ key32_32) & 0x00ffffff);
   80bf4:	e0bff317 	ldw	r2,-52(fp)
   80bf8:	2088f03a 	xor	r4,r4,r2
   80bfc:	e0bff417 	ldw	r2,-48(fp)
   80c00:	2088f03a 	xor	r4,r4,r2
   80c04:	00804034 	movhi	r2,256
   80c08:	10bfffc4 	addi	r2,r2,-1
   80c0c:	2084703a 	and	r2,r4,r2

	if (control == 0) {
		switch ((unsigned int)readstart & (unsigned int)0x3) {
		case (0x0):
			if (transferlength == 3) {
				injectionvector_32 = (*readaddress & 0xff000000)
   80c10:	1884b03a 	or	r2,r3,r2
   80c14:	e0bff515 	stw	r2,-44(fp)
						| ((*readaddress ^ injectionvector_32 ^ key8_32
								^ key16_32 ^ key32_32) & 0x00ffffff);
				*writeaddress = injectionvector_32;
   80c18:	e0bff617 	ldw	r2,-40(fp)
   80c1c:	e0fff517 	ldw	r3,-44(fp)
   80c20:	10c00015 	stw	r3,0(r2)
				byteswritten += 3;
   80c24:	e0bff917 	ldw	r2,-28(fp)
   80c28:	108000c4 	addi	r2,r2,3
   80c2c:	e0bff915 	stw	r2,-28(fp)
   80c30:	00004706 	br	80d50 <CryptoProcedure+0x260>
			} else if (transferlength == 2) {
   80c34:	e0bffd17 	ldw	r2,-12(fp)
   80c38:	10800098 	cmpnei	r2,r2,2
   80c3c:	1000171e 	bne	r2,zero,80c9c <CryptoProcedure+0x1ac>
				injectionvector_32 = (*readaddress & 0xffff0000)
   80c40:	e0bff717 	ldw	r2,-36(fp)
   80c44:	10800017 	ldw	r2,0(r2)
   80c48:	10ffffec 	andhi	r3,r2,65535
						| ((*readaddress ^ injectionvector_32 ^ key8_32
   80c4c:	e0bff717 	ldw	r2,-36(fp)
   80c50:	11000017 	ldw	r4,0(r2)
   80c54:	e0bff517 	ldw	r2,-44(fp)
   80c58:	2088f03a 	xor	r4,r4,r2
   80c5c:	e0bff217 	ldw	r2,-56(fp)
   80c60:	2088f03a 	xor	r4,r4,r2
								^ key16_32 ^ key32_32) & 0x0000ffff);
   80c64:	e0bff317 	ldw	r2,-52(fp)
   80c68:	2088f03a 	xor	r4,r4,r2
   80c6c:	e0bff417 	ldw	r2,-48(fp)
   80c70:	2084f03a 	xor	r2,r4,r2
   80c74:	10bfffcc 	andi	r2,r2,65535
						| ((*readaddress ^ injectionvector_32 ^ key8_32
								^ key16_32 ^ key32_32) & 0x00ffffff);
				*writeaddress = injectionvector_32;
				byteswritten += 3;
			} else if (transferlength == 2) {
				injectionvector_32 = (*readaddress & 0xffff0000)
   80c78:	1884b03a 	or	r2,r3,r2
   80c7c:	e0bff515 	stw	r2,-44(fp)
						| ((*readaddress ^ injectionvector_32 ^ key8_32
								^ key16_32 ^ key32_32) & 0x0000ffff);
				*writeaddress = injectionvector_32;
   80c80:	e0bff617 	ldw	r2,-40(fp)
   80c84:	e0fff517 	ldw	r3,-44(fp)
   80c88:	10c00015 	stw	r3,0(r2)
				byteswritten += 2;
   80c8c:	e0bff917 	ldw	r2,-28(fp)
   80c90:	10800084 	addi	r2,r2,2
   80c94:	e0bff915 	stw	r2,-28(fp)
   80c98:	00002d06 	br	80d50 <CryptoProcedure+0x260>
			} else if (transferlength == 1) {
   80c9c:	e0bffd17 	ldw	r2,-12(fp)
   80ca0:	10800058 	cmpnei	r2,r2,1
   80ca4:	1000181e 	bne	r2,zero,80d08 <CryptoProcedure+0x218>
				injectionvector_32 = (*readaddress & 0xffffff00)
   80ca8:	e0bff717 	ldw	r2,-36(fp)
   80cac:	10c00017 	ldw	r3,0(r2)
   80cb0:	00bfc004 	movi	r2,-256
   80cb4:	1886703a 	and	r3,r3,r2
						| ((*readaddress ^ injectionvector_32 ^ key8_32
   80cb8:	e0bff717 	ldw	r2,-36(fp)
   80cbc:	11000017 	ldw	r4,0(r2)
   80cc0:	e0bff517 	ldw	r2,-44(fp)
   80cc4:	2088f03a 	xor	r4,r4,r2
   80cc8:	e0bff217 	ldw	r2,-56(fp)
   80ccc:	2088f03a 	xor	r4,r4,r2
								^ key16_32 ^ key32_32) & 0x000000ff);
   80cd0:	e0bff317 	ldw	r2,-52(fp)
   80cd4:	2088f03a 	xor	r4,r4,r2
   80cd8:	e0bff417 	ldw	r2,-48(fp)
   80cdc:	2084f03a 	xor	r2,r4,r2
   80ce0:	10803fcc 	andi	r2,r2,255
						| ((*readaddress ^ injectionvector_32 ^ key8_32
								^ key16_32 ^ key32_32) & 0x0000ffff);
				*writeaddress = injectionvector_32;
				byteswritten += 2;
			} else if (transferlength == 1) {
				injectionvector_32 = (*readaddress & 0xffffff00)
   80ce4:	1884b03a 	or	r2,r3,r2
   80ce8:	e0bff515 	stw	r2,-44(fp)
						| ((*readaddress ^ injectionvector_32 ^ key8_32
								^ key16_32 ^ key32_32) & 0x000000ff);
				*writeaddress = injectionvector_32;
   80cec:	e0bff617 	ldw	r2,-40(fp)
   80cf0:	e0fff517 	ldw	r3,-44(fp)
   80cf4:	10c00015 	stw	r3,0(r2)
				byteswritten += 1;
   80cf8:	e0bff917 	ldw	r2,-28(fp)
   80cfc:	10800044 	addi	r2,r2,1
   80d00:	e0bff915 	stw	r2,-28(fp)
   80d04:	00001206 	br	80d50 <CryptoProcedure+0x260>
			} else {
				injectionvector_32 = (*readaddress ^ injectionvector_32
   80d08:	e0bff717 	ldw	r2,-36(fp)
   80d0c:	10c00017 	ldw	r3,0(r2)
   80d10:	e0bff517 	ldw	r2,-44(fp)
   80d14:	1886f03a 	xor	r3,r3,r2
						^ key8_32 ^ key16_32 ^ key32_32);
   80d18:	e0bff217 	ldw	r2,-56(fp)
   80d1c:	1886f03a 	xor	r3,r3,r2
   80d20:	e0bff317 	ldw	r2,-52(fp)
   80d24:	1886f03a 	xor	r3,r3,r2
						| ((*readaddress ^ injectionvector_32 ^ key8_32
								^ key16_32 ^ key32_32) & 0x000000ff);
				*writeaddress = injectionvector_32;
				byteswritten += 1;
			} else {
				injectionvector_32 = (*readaddress ^ injectionvector_32
   80d28:	e0bff417 	ldw	r2,-48(fp)
   80d2c:	1884f03a 	xor	r2,r3,r2
   80d30:	e0bff515 	stw	r2,-44(fp)
						^ key8_32 ^ key16_32 ^ key32_32);
				*writeaddress = injectionvector_32;
   80d34:	e0bff617 	ldw	r2,-40(fp)
   80d38:	e0fff517 	ldw	r3,-44(fp)
   80d3c:	10c00015 	stw	r3,0(r2)
				byteswritten += 4;
   80d40:	e0bff917 	ldw	r2,-28(fp)
   80d44:	10800104 	addi	r2,r2,4
   80d48:	e0bff915 	stw	r2,-28(fp)
			}
			break;
   80d4c:	0000a006 	br	80fd0 <CryptoProcedure+0x4e0>
   80d50:	00009f06 	br	80fd0 <CryptoProcedure+0x4e0>
		case (0x1):
			if (transferlength == 2) {
   80d54:	e0bffd17 	ldw	r2,-12(fp)
   80d58:	10800098 	cmpnei	r2,r2,2
   80d5c:	10001b1e 	bne	r2,zero,80dcc <CryptoProcedure+0x2dc>
				injectionvector_32 = (*readaddress & 0xff0000ff)
   80d60:	e0bff717 	ldw	r2,-36(fp)
   80d64:	10c00017 	ldw	r3,0(r2)
   80d68:	00bfc034 	movhi	r2,65280
   80d6c:	10803fc4 	addi	r2,r2,255
   80d70:	1886703a 	and	r3,r3,r2
						| ((*readaddress ^ injectionvector_32 ^ key8_32
   80d74:	e0bff717 	ldw	r2,-36(fp)
   80d78:	11000017 	ldw	r4,0(r2)
   80d7c:	e0bff517 	ldw	r2,-44(fp)
   80d80:	2088f03a 	xor	r4,r4,r2
   80d84:	e0bff217 	ldw	r2,-56(fp)
   80d88:	2088f03a 	xor	r4,r4,r2
								^ key16_32 ^ key32_32) & 0x00ffff00);
   80d8c:	e0bff317 	ldw	r2,-52(fp)
   80d90:	2088f03a 	xor	r4,r4,r2
   80d94:	e0bff417 	ldw	r2,-48(fp)
   80d98:	2088f03a 	xor	r4,r4,r2
   80d9c:	00804034 	movhi	r2,256
   80da0:	10bfc004 	addi	r2,r2,-256
   80da4:	2084703a 	and	r2,r4,r2
				byteswritten += 4;
			}
			break;
		case (0x1):
			if (transferlength == 2) {
				injectionvector_32 = (*readaddress & 0xff0000ff)
   80da8:	1884b03a 	or	r2,r3,r2
   80dac:	e0bff515 	stw	r2,-44(fp)
						| ((*readaddress ^ injectionvector_32 ^ key8_32
								^ key16_32 ^ key32_32) & 0x00ffff00);
				*writeaddress = injectionvector_32;
   80db0:	e0bff617 	ldw	r2,-40(fp)
   80db4:	e0fff517 	ldw	r3,-44(fp)
   80db8:	10c00015 	stw	r3,0(r2)
				byteswritten += 2;
   80dbc:	e0bff917 	ldw	r2,-28(fp)
   80dc0:	10800084 	addi	r2,r2,2
   80dc4:	e0bff915 	stw	r2,-28(fp)
   80dc8:	00003406 	br	80e9c <CryptoProcedure+0x3ac>
			} else if (transferlength == 1) {
   80dcc:	e0bffd17 	ldw	r2,-12(fp)
   80dd0:	10800058 	cmpnei	r2,r2,1
   80dd4:	1000191e 	bne	r2,zero,80e3c <CryptoProcedure+0x34c>
				injectionvector_32 = (*readaddress & 0xffff00ff)
   80dd8:	e0bff717 	ldw	r2,-36(fp)
   80ddc:	10c00017 	ldw	r3,0(r2)
   80de0:	00bffff4 	movhi	r2,65535
   80de4:	10803fc4 	addi	r2,r2,255
   80de8:	1886703a 	and	r3,r3,r2
						| ((*readaddress ^ injectionvector_32 ^ key8_32
   80dec:	e0bff717 	ldw	r2,-36(fp)
   80df0:	11000017 	ldw	r4,0(r2)
   80df4:	e0bff517 	ldw	r2,-44(fp)
   80df8:	2088f03a 	xor	r4,r4,r2
   80dfc:	e0bff217 	ldw	r2,-56(fp)
   80e00:	2088f03a 	xor	r4,r4,r2
								^ key16_32 ^ key32_32) & 0x0000ff00);
   80e04:	e0bff317 	ldw	r2,-52(fp)
   80e08:	2088f03a 	xor	r4,r4,r2
   80e0c:	e0bff417 	ldw	r2,-48(fp)
   80e10:	2084f03a 	xor	r2,r4,r2
   80e14:	10bfc00c 	andi	r2,r2,65280
						| ((*readaddress ^ injectionvector_32 ^ key8_32
								^ key16_32 ^ key32_32) & 0x00ffff00);
				*writeaddress = injectionvector_32;
				byteswritten += 2;
			} else if (transferlength == 1) {
				injectionvector_32 = (*readaddress & 0xffff00ff)
   80e18:	1884b03a 	or	r2,r3,r2
   80e1c:	e0bff515 	stw	r2,-44(fp)
						| ((*readaddress ^ injectionvector_32 ^ key8_32
								^ key16_32 ^ key32_32) & 0x0000ff00);
				*writeaddress = injectionvector_32;
   80e20:	e0bff617 	ldw	r2,-40(fp)
   80e24:	e0fff517 	ldw	r3,-44(fp)
   80e28:	10c00015 	stw	r3,0(r2)
				byteswritten += 1;
   80e2c:	e0bff917 	ldw	r2,-28(fp)
   80e30:	10800044 	addi	r2,r2,1
   80e34:	e0bff915 	stw	r2,-28(fp)
   80e38:	00001806 	br	80e9c <CryptoProcedure+0x3ac>
			} else {
				injectionvector_32 = (*readaddress & 0x000000ff)
   80e3c:	e0bff717 	ldw	r2,-36(fp)
   80e40:	10800017 	ldw	r2,0(r2)
   80e44:	10c03fcc 	andi	r3,r2,255
						| ((*readaddress ^ injectionvector_32 ^ key8_32
   80e48:	e0bff717 	ldw	r2,-36(fp)
   80e4c:	11000017 	ldw	r4,0(r2)
   80e50:	e0bff517 	ldw	r2,-44(fp)
   80e54:	2088f03a 	xor	r4,r4,r2
   80e58:	e0bff217 	ldw	r2,-56(fp)
   80e5c:	2088f03a 	xor	r4,r4,r2
								^ key16_32 ^ key32_32) & 0xffffff00);
   80e60:	e0bff317 	ldw	r2,-52(fp)
   80e64:	2088f03a 	xor	r4,r4,r2
   80e68:	e0bff417 	ldw	r2,-48(fp)
   80e6c:	2088f03a 	xor	r4,r4,r2
   80e70:	00bfc004 	movi	r2,-256
   80e74:	2084703a 	and	r2,r4,r2
						| ((*readaddress ^ injectionvector_32 ^ key8_32
								^ key16_32 ^ key32_32) & 0x0000ff00);
				*writeaddress = injectionvector_32;
				byteswritten += 1;
			} else {
				injectionvector_32 = (*readaddress & 0x000000ff)
   80e78:	1884b03a 	or	r2,r3,r2
   80e7c:	e0bff515 	stw	r2,-44(fp)
						| ((*readaddress ^ injectionvector_32 ^ key8_32
								^ key16_32 ^ key32_32) & 0xffffff00);
				*writeaddress = injectionvector_32;
   80e80:	e0bff617 	ldw	r2,-40(fp)
   80e84:	e0fff517 	ldw	r3,-44(fp)
   80e88:	10c00015 	stw	r3,0(r2)
				byteswritten += 3;
   80e8c:	e0bff917 	ldw	r2,-28(fp)
   80e90:	108000c4 	addi	r2,r2,3
   80e94:	e0bff915 	stw	r2,-28(fp)
				;
			}
			break;
   80e98:	00004d06 	br	80fd0 <CryptoProcedure+0x4e0>
   80e9c:	00004c06 	br	80fd0 <CryptoProcedure+0x4e0>
		case (0x2):
			if (transferlength == 1) {
   80ea0:	e0bffd17 	ldw	r2,-12(fp)
   80ea4:	10800058 	cmpnei	r2,r2,1
   80ea8:	1000191e 	bne	r2,zero,80f10 <CryptoProcedure+0x420>
				injectionvector_32 = (*readaddress & 0xff00ffff)
   80eac:	e0bff717 	ldw	r2,-36(fp)
   80eb0:	10c00017 	ldw	r3,0(r2)
   80eb4:	00bfc074 	movhi	r2,65281
   80eb8:	10bfffc4 	addi	r2,r2,-1
   80ebc:	1886703a 	and	r3,r3,r2
						| ((*readaddress ^ injectionvector_32 ^ key8_32
   80ec0:	e0bff717 	ldw	r2,-36(fp)
   80ec4:	11000017 	ldw	r4,0(r2)
   80ec8:	e0bff517 	ldw	r2,-44(fp)
   80ecc:	2088f03a 	xor	r4,r4,r2
   80ed0:	e0bff217 	ldw	r2,-56(fp)
   80ed4:	2088f03a 	xor	r4,r4,r2
								^ key16_32 ^ key32_32) & 0x00ff0000);
   80ed8:	e0bff317 	ldw	r2,-52(fp)
   80edc:	2088f03a 	xor	r4,r4,r2
   80ee0:	e0bff417 	ldw	r2,-48(fp)
   80ee4:	2084f03a 	xor	r2,r4,r2
   80ee8:	10803fec 	andhi	r2,r2,255
				;
			}
			break;
		case (0x2):
			if (transferlength == 1) {
				injectionvector_32 = (*readaddress & 0xff00ffff)
   80eec:	1884b03a 	or	r2,r3,r2
   80ef0:	e0bff515 	stw	r2,-44(fp)
						| ((*readaddress ^ injectionvector_32 ^ key8_32
								^ key16_32 ^ key32_32) & 0x00ff0000);
				*writeaddress = injectionvector_32;
   80ef4:	e0bff617 	ldw	r2,-40(fp)
   80ef8:	e0fff517 	ldw	r3,-44(fp)
   80efc:	10c00015 	stw	r3,0(r2)
				byteswritten += 1;
   80f00:	e0bff917 	ldw	r2,-28(fp)
   80f04:	10800044 	addi	r2,r2,1
   80f08:	e0bff915 	stw	r2,-28(fp)
						| ((*readaddress ^ injectionvector_32 ^ key8_32
								^ key16_32 ^ key32_32) & 0xffff0000);
				*writeaddress = injectionvector_32;
				byteswritten += 2;
			}
			break;
   80f0c:	00003006 	br	80fd0 <CryptoProcedure+0x4e0>
						| ((*readaddress ^ injectionvector_32 ^ key8_32
								^ key16_32 ^ key32_32) & 0x00ff0000);
				*writeaddress = injectionvector_32;
				byteswritten += 1;
			} else {
				injectionvector_32 = (*readaddress & 0x0000ffff)
   80f10:	e0bff717 	ldw	r2,-36(fp)
   80f14:	10800017 	ldw	r2,0(r2)
   80f18:	10ffffcc 	andi	r3,r2,65535
						| ((*readaddress ^ injectionvector_32 ^ key8_32
   80f1c:	e0bff717 	ldw	r2,-36(fp)
   80f20:	11000017 	ldw	r4,0(r2)
   80f24:	e0bff517 	ldw	r2,-44(fp)
   80f28:	2088f03a 	xor	r4,r4,r2
   80f2c:	e0bff217 	ldw	r2,-56(fp)
   80f30:	2088f03a 	xor	r4,r4,r2
								^ key16_32 ^ key32_32) & 0xffff0000);
   80f34:	e0bff317 	ldw	r2,-52(fp)
   80f38:	2088f03a 	xor	r4,r4,r2
   80f3c:	e0bff417 	ldw	r2,-48(fp)
   80f40:	2084f03a 	xor	r2,r4,r2
   80f44:	10bfffec 	andhi	r2,r2,65535
						| ((*readaddress ^ injectionvector_32 ^ key8_32
								^ key16_32 ^ key32_32) & 0x00ff0000);
				*writeaddress = injectionvector_32;
				byteswritten += 1;
			} else {
				injectionvector_32 = (*readaddress & 0x0000ffff)
   80f48:	1884b03a 	or	r2,r3,r2
   80f4c:	e0bff515 	stw	r2,-44(fp)
						| ((*readaddress ^ injectionvector_32 ^ key8_32
								^ key16_32 ^ key32_32) & 0xffff0000);
				*writeaddress = injectionvector_32;
   80f50:	e0bff617 	ldw	r2,-40(fp)
   80f54:	e0fff517 	ldw	r3,-44(fp)
   80f58:	10c00015 	stw	r3,0(r2)
				byteswritten += 2;
   80f5c:	e0bff917 	ldw	r2,-28(fp)
   80f60:	10800084 	addi	r2,r2,2
   80f64:	e0bff915 	stw	r2,-28(fp)
			}
			break;
   80f68:	00001906 	br	80fd0 <CryptoProcedure+0x4e0>
		case (0x3):
			injectionvector_32 = (*readaddress & 0x00ffffff)
   80f6c:	e0bff717 	ldw	r2,-36(fp)
   80f70:	10c00017 	ldw	r3,0(r2)
   80f74:	00804034 	movhi	r2,256
   80f78:	10bfffc4 	addi	r2,r2,-1
   80f7c:	1886703a 	and	r3,r3,r2
					| ((*readaddress ^ injectionvector_32 ^ key8_32 ^ key16_32
   80f80:	e0bff717 	ldw	r2,-36(fp)
   80f84:	11000017 	ldw	r4,0(r2)
   80f88:	e0bff517 	ldw	r2,-44(fp)
   80f8c:	2088f03a 	xor	r4,r4,r2
   80f90:	e0bff217 	ldw	r2,-56(fp)
   80f94:	2088f03a 	xor	r4,r4,r2
   80f98:	e0bff317 	ldw	r2,-52(fp)
   80f9c:	2088f03a 	xor	r4,r4,r2
							^ key32_32) & 0xff000000);
   80fa0:	e0bff417 	ldw	r2,-48(fp)
   80fa4:	2084f03a 	xor	r2,r4,r2
   80fa8:	10bfc02c 	andhi	r2,r2,65280
				*writeaddress = injectionvector_32;
				byteswritten += 2;
			}
			break;
		case (0x3):
			injectionvector_32 = (*readaddress & 0x00ffffff)
   80fac:	1884b03a 	or	r2,r3,r2
   80fb0:	e0bff515 	stw	r2,-44(fp)
					| ((*readaddress ^ injectionvector_32 ^ key8_32 ^ key16_32
							^ key32_32) & 0xff000000);
			*writeaddress = injectionvector_32;
   80fb4:	e0bff617 	ldw	r2,-40(fp)
   80fb8:	e0fff517 	ldw	r3,-44(fp)
   80fbc:	10c00015 	stw	r3,0(r2)
			byteswritten += 1;
   80fc0:	e0bff917 	ldw	r2,-28(fp)
   80fc4:	10800044 	addi	r2,r2,1
   80fc8:	e0bff915 	stw	r2,-28(fp)
			break;
   80fcc:	0001883a 	nop
		}

		readaddress += 0x1;
   80fd0:	e0bff717 	ldw	r2,-36(fp)
   80fd4:	10800104 	addi	r2,r2,4
   80fd8:	e0bff715 	stw	r2,-36(fp)
		writeaddress += 0x1;
   80fdc:	e0bff617 	ldw	r2,-40(fp)
   80fe0:	10800104 	addi	r2,r2,4
   80fe4:	e0bff615 	stw	r2,-40(fp)

		while (byteswritten < transferlength) {
   80fe8:	00008106 	br	811f0 <CryptoProcedure+0x700>
			rotationcounter += 1;
   80fec:	e0bff817 	ldw	r2,-32(fp)
   80ff0:	10800044 	addi	r2,r2,1
   80ff4:	e0bff815 	stw	r2,-32(fp)
			key32_32 = (key32_32 >> 1) | (key32_32 << 31);
   80ff8:	e0fff417 	ldw	r3,-48(fp)
   80ffc:	00800044 	movi	r2,1
   81000:	1884583a 	ror	r2,r3,r2
   81004:	e0bff415 	stw	r2,-48(fp)
			if ((rotationcounter & 0x1f) == 0x1) {
   81008:	e0bff817 	ldw	r2,-32(fp)
   8100c:	108007cc 	andi	r2,r2,31
   81010:	10800058 	cmpnei	r2,r2,1
   81014:	1000041e 	bne	r2,zero,81028 <CryptoProcedure+0x538>
				key16_32 = (key16_32 >> 1) | (key16_32 << 31);
   81018:	e0fff317 	ldw	r3,-52(fp)
   8101c:	00800044 	movi	r2,1
   81020:	1884583a 	ror	r2,r3,r2
   81024:	e0bff315 	stw	r2,-52(fp)
			}
			if ((rotationcounter & 0x7f) == 0x1) {
   81028:	e0bff817 	ldw	r2,-32(fp)
   8102c:	10801fcc 	andi	r2,r2,127
   81030:	10800058 	cmpnei	r2,r2,1
   81034:	1000041e 	bne	r2,zero,81048 <CryptoProcedure+0x558>
				key8_32 = (key8_32 >> 1) | (key8_32 << 31);
   81038:	e0fff217 	ldw	r3,-56(fp)
   8103c:	00800044 	movi	r2,1
   81040:	1884583a 	ror	r2,r3,r2
   81044:	e0bff215 	stw	r2,-56(fp)
			}
			switch (transferlength - byteswritten) {
   81048:	e0fffd17 	ldw	r3,-12(fp)
   8104c:	e0bff917 	ldw	r2,-28(fp)
   81050:	1885c83a 	sub	r2,r3,r2
   81054:	10c000a0 	cmpeqi	r3,r2,2
   81058:	18001e1e 	bne	r3,zero,810d4 <CryptoProcedure+0x5e4>
   8105c:	10c000e0 	cmpeqi	r3,r2,3
   81060:	1800031e 	bne	r3,zero,81070 <CryptoProcedure+0x580>
   81064:	10800060 	cmpeqi	r2,r2,1
   81068:	1000311e 	bne	r2,zero,81130 <CryptoProcedure+0x640>
   8106c:	00004806 	br	81190 <CryptoProcedure+0x6a0>
			case (3):
				injectionvector_32 = (*readaddress & 0xff000000)
   81070:	e0bff717 	ldw	r2,-36(fp)
   81074:	10800017 	ldw	r2,0(r2)
   81078:	10ffc02c 	andhi	r3,r2,65280
						| ((*readaddress ^ injectionvector_32 ^ key8_32
   8107c:	e0bff717 	ldw	r2,-36(fp)
   81080:	11000017 	ldw	r4,0(r2)
   81084:	e0bff517 	ldw	r2,-44(fp)
   81088:	2088f03a 	xor	r4,r4,r2
   8108c:	e0bff217 	ldw	r2,-56(fp)
   81090:	2088f03a 	xor	r4,r4,r2
								^ key16_32 ^ key32_32) & 0x00ffffff);
   81094:	e0bff317 	ldw	r2,-52(fp)
   81098:	2088f03a 	xor	r4,r4,r2
   8109c:	e0bff417 	ldw	r2,-48(fp)
   810a0:	2088f03a 	xor	r4,r4,r2
   810a4:	00804034 	movhi	r2,256
   810a8:	10bfffc4 	addi	r2,r2,-1
   810ac:	2084703a 	and	r2,r4,r2
			if ((rotationcounter & 0x7f) == 0x1) {
				key8_32 = (key8_32 >> 1) | (key8_32 << 31);
			}
			switch (transferlength - byteswritten) {
			case (3):
				injectionvector_32 = (*readaddress & 0xff000000)
   810b0:	1884b03a 	or	r2,r3,r2
   810b4:	e0bff515 	stw	r2,-44(fp)
						| ((*readaddress ^ injectionvector_32 ^ key8_32
								^ key16_32 ^ key32_32) & 0x00ffffff);
				*writeaddress = injectionvector_32;
   810b8:	e0bff617 	ldw	r2,-40(fp)
   810bc:	e0fff517 	ldw	r3,-44(fp)
   810c0:	10c00015 	stw	r3,0(r2)
				byteswritten += 3;
   810c4:	e0bff917 	ldw	r2,-28(fp)
   810c8:	108000c4 	addi	r2,r2,3
   810cc:	e0bff915 	stw	r2,-28(fp)
				break;
   810d0:	00004106 	br	811d8 <CryptoProcedure+0x6e8>
			case (2):
				injectionvector_32 = (*readaddress & 0xffff0000)
   810d4:	e0bff717 	ldw	r2,-36(fp)
   810d8:	10800017 	ldw	r2,0(r2)
   810dc:	10ffffec 	andhi	r3,r2,65535
						| ((*readaddress ^ injectionvector_32 ^ key8_32
   810e0:	e0bff717 	ldw	r2,-36(fp)
   810e4:	11000017 	ldw	r4,0(r2)
   810e8:	e0bff517 	ldw	r2,-44(fp)
   810ec:	2088f03a 	xor	r4,r4,r2
   810f0:	e0bff217 	ldw	r2,-56(fp)
   810f4:	2088f03a 	xor	r4,r4,r2
								^ key16_32 ^ key32_32) & 0x0000ffff);
   810f8:	e0bff317 	ldw	r2,-52(fp)
   810fc:	2088f03a 	xor	r4,r4,r2
   81100:	e0bff417 	ldw	r2,-48(fp)
   81104:	2084f03a 	xor	r2,r4,r2
   81108:	10bfffcc 	andi	r2,r2,65535
								^ key16_32 ^ key32_32) & 0x00ffffff);
				*writeaddress = injectionvector_32;
				byteswritten += 3;
				break;
			case (2):
				injectionvector_32 = (*readaddress & 0xffff0000)
   8110c:	1884b03a 	or	r2,r3,r2
   81110:	e0bff515 	stw	r2,-44(fp)
						| ((*readaddress ^ injectionvector_32 ^ key8_32
								^ key16_32 ^ key32_32) & 0x0000ffff);
				*writeaddress = injectionvector_32;
   81114:	e0bff617 	ldw	r2,-40(fp)
   81118:	e0fff517 	ldw	r3,-44(fp)
   8111c:	10c00015 	stw	r3,0(r2)
				byteswritten += 2;
   81120:	e0bff917 	ldw	r2,-28(fp)
   81124:	10800084 	addi	r2,r2,2
   81128:	e0bff915 	stw	r2,-28(fp)
				break;
   8112c:	00002a06 	br	811d8 <CryptoProcedure+0x6e8>
			case (1):
				injectionvector_32 = (*readaddress & 0xffffff00)
   81130:	e0bff717 	ldw	r2,-36(fp)
   81134:	10c00017 	ldw	r3,0(r2)
   81138:	00bfc004 	movi	r2,-256
   8113c:	1886703a 	and	r3,r3,r2
						| ((*readaddress ^ injectionvector_32 ^ key8_32
   81140:	e0bff717 	ldw	r2,-36(fp)
   81144:	11000017 	ldw	r4,0(r2)
   81148:	e0bff517 	ldw	r2,-44(fp)
   8114c:	2088f03a 	xor	r4,r4,r2
   81150:	e0bff217 	ldw	r2,-56(fp)
   81154:	2088f03a 	xor	r4,r4,r2
								^ key16_32 ^ key32_32) & 0x000000ff);
   81158:	e0bff317 	ldw	r2,-52(fp)
   8115c:	2088f03a 	xor	r4,r4,r2
   81160:	e0bff417 	ldw	r2,-48(fp)
   81164:	2084f03a 	xor	r2,r4,r2
   81168:	10803fcc 	andi	r2,r2,255
								^ key16_32 ^ key32_32) & 0x0000ffff);
				*writeaddress = injectionvector_32;
				byteswritten += 2;
				break;
			case (1):
				injectionvector_32 = (*readaddress & 0xffffff00)
   8116c:	1884b03a 	or	r2,r3,r2
   81170:	e0bff515 	stw	r2,-44(fp)
						| ((*readaddress ^ injectionvector_32 ^ key8_32
								^ key16_32 ^ key32_32) & 0x000000ff);
				*writeaddress = injectionvector_32;
   81174:	e0bff617 	ldw	r2,-40(fp)
   81178:	e0fff517 	ldw	r3,-44(fp)
   8117c:	10c00015 	stw	r3,0(r2)
				byteswritten += 1;
   81180:	e0bff917 	ldw	r2,-28(fp)
   81184:	10800044 	addi	r2,r2,1
   81188:	e0bff915 	stw	r2,-28(fp)
				break;
   8118c:	00001206 	br	811d8 <CryptoProcedure+0x6e8>
			default:
				injectionvector_32 = (*readaddress ^ injectionvector_32
   81190:	e0bff717 	ldw	r2,-36(fp)
   81194:	10c00017 	ldw	r3,0(r2)
   81198:	e0bff517 	ldw	r2,-44(fp)
   8119c:	1886f03a 	xor	r3,r3,r2
						^ key8_32 ^ key16_32 ^ key32_32);
   811a0:	e0bff217 	ldw	r2,-56(fp)
   811a4:	1886f03a 	xor	r3,r3,r2
   811a8:	e0bff317 	ldw	r2,-52(fp)
   811ac:	1886f03a 	xor	r3,r3,r2
								^ key16_32 ^ key32_32) & 0x000000ff);
				*writeaddress = injectionvector_32;
				byteswritten += 1;
				break;
			default:
				injectionvector_32 = (*readaddress ^ injectionvector_32
   811b0:	e0bff417 	ldw	r2,-48(fp)
   811b4:	1884f03a 	xor	r2,r3,r2
   811b8:	e0bff515 	stw	r2,-44(fp)
						^ key8_32 ^ key16_32 ^ key32_32);
				*writeaddress = injectionvector_32;
   811bc:	e0bff617 	ldw	r2,-40(fp)
   811c0:	e0fff517 	ldw	r3,-44(fp)
   811c4:	10c00015 	stw	r3,0(r2)
				byteswritten += 4;
   811c8:	e0bff917 	ldw	r2,-28(fp)
   811cc:	10800104 	addi	r2,r2,4
   811d0:	e0bff915 	stw	r2,-28(fp)
				break;
   811d4:	0001883a 	nop
			}
			readaddress += 0x1;
   811d8:	e0bff717 	ldw	r2,-36(fp)
   811dc:	10800104 	addi	r2,r2,4
   811e0:	e0bff715 	stw	r2,-36(fp)
			writeaddress += 0x1;
   811e4:	e0bff617 	ldw	r2,-40(fp)
   811e8:	10800104 	addi	r2,r2,4
   811ec:	e0bff615 	stw	r2,-40(fp)
		}

		readaddress += 0x1;
		writeaddress += 0x1;

		while (byteswritten < transferlength) {
   811f0:	e0fff917 	ldw	r3,-28(fp)
   811f4:	e0bffd17 	ldw	r2,-12(fp)
   811f8:	18bf7c36 	bltu	r3,r2,80fec <_gp+0xfffe6bf8>
   811fc:	0001a906 	br	818a4 <CryptoProcedure+0xdb4>
				break;
			}
			readaddress += 0x1;
			writeaddress += 0x1;
		}
	} else if (control == 1) {
   81200:	e0bffa03 	ldbu	r2,-24(fp)
   81204:	10800058 	cmpnei	r2,r2,1
   81208:	1001a61e 	bne	r2,zero,818a4 <CryptoProcedure+0xdb4>
		switch ((unsigned int) readstart & 0x3) {
   8120c:	e0bffb17 	ldw	r2,-20(fp)
   81210:	108000cc 	andi	r2,r2,3
   81214:	10c00060 	cmpeqi	r3,r2,1
   81218:	18006e1e 	bne	r3,zero,813d4 <CryptoProcedure+0x8e4>
   8121c:	0080052e 	bgeu	zero,r2,81234 <CryptoProcedure+0x744>
   81220:	10c000a0 	cmpeqi	r3,r2,2
   81224:	1800c11e 	bne	r3,zero,8152c <CryptoProcedure+0xa3c>
   81228:	108000e0 	cmpeqi	r2,r2,3
   8122c:	1000f41e 	bne	r2,zero,81600 <CryptoProcedure+0xb10>
   81230:	00010d06 	br	81668 <CryptoProcedure+0xb78>
		case (0x0):
			if (transferlength == 3) {
   81234:	e0bffd17 	ldw	r2,-12(fp)
   81238:	108000d8 	cmpnei	r2,r2,3
   8123c:	10001a1e 	bne	r2,zero,812a8 <CryptoProcedure+0x7b8>
				*writeaddress = (*readaddress & 0xff000000)
   81240:	e0bff717 	ldw	r2,-36(fp)
   81244:	10800017 	ldw	r2,0(r2)
   81248:	10ffc02c 	andhi	r3,r2,65280
						| ((*readaddress ^ injectionvector_32 ^ key8_32
   8124c:	e0bff717 	ldw	r2,-36(fp)
   81250:	11000017 	ldw	r4,0(r2)
   81254:	e0bff517 	ldw	r2,-44(fp)
   81258:	2088f03a 	xor	r4,r4,r2
   8125c:	e0bff217 	ldw	r2,-56(fp)
   81260:	2088f03a 	xor	r4,r4,r2
								^ key16_32 ^ key32_32) & 0x00ffffff);
   81264:	e0bff317 	ldw	r2,-52(fp)
   81268:	2088f03a 	xor	r4,r4,r2
   8126c:	e0bff417 	ldw	r2,-48(fp)
   81270:	2088f03a 	xor	r4,r4,r2
   81274:	00804034 	movhi	r2,256
   81278:	10bfffc4 	addi	r2,r2,-1
   8127c:	2084703a 	and	r2,r4,r2
	} else if (control == 1) {
		switch ((unsigned int) readstart & 0x3) {
		case (0x0):
			if (transferlength == 3) {
				*writeaddress = (*readaddress & 0xff000000)
						| ((*readaddress ^ injectionvector_32 ^ key8_32
   81280:	1886b03a 	or	r3,r3,r2
		}
	} else if (control == 1) {
		switch ((unsigned int) readstart & 0x3) {
		case (0x0):
			if (transferlength == 3) {
				*writeaddress = (*readaddress & 0xff000000)
   81284:	e0bff617 	ldw	r2,-40(fp)
   81288:	10c00015 	stw	r3,0(r2)
						| ((*readaddress ^ injectionvector_32 ^ key8_32
								^ key16_32 ^ key32_32) & 0x00ffffff);
				injectionvector_32 = *readaddress;
   8128c:	e0bff717 	ldw	r2,-36(fp)
   81290:	10800017 	ldw	r2,0(r2)
   81294:	e0bff515 	stw	r2,-44(fp)
				byteswritten += 3;
   81298:	e0bff917 	ldw	r2,-28(fp)
   8129c:	108000c4 	addi	r2,r2,3
   812a0:	e0bff915 	stw	r2,-28(fp)
   812a4:	00004a06 	br	813d0 <CryptoProcedure+0x8e0>
			} else if (transferlength == 2) {
   812a8:	e0bffd17 	ldw	r2,-12(fp)
   812ac:	10800098 	cmpnei	r2,r2,2
   812b0:	1000181e 	bne	r2,zero,81314 <CryptoProcedure+0x824>
				*writeaddress = (*readaddress & 0xffff0000)
   812b4:	e0bff717 	ldw	r2,-36(fp)
   812b8:	10800017 	ldw	r2,0(r2)
   812bc:	10ffffec 	andhi	r3,r2,65535
						| ((*readaddress ^ injectionvector_32 ^ key8_32
   812c0:	e0bff717 	ldw	r2,-36(fp)
   812c4:	11000017 	ldw	r4,0(r2)
   812c8:	e0bff517 	ldw	r2,-44(fp)
   812cc:	2088f03a 	xor	r4,r4,r2
   812d0:	e0bff217 	ldw	r2,-56(fp)
   812d4:	2088f03a 	xor	r4,r4,r2
								^ key16_32 ^ key32_32) & 0x0000ffff);
   812d8:	e0bff317 	ldw	r2,-52(fp)
   812dc:	2088f03a 	xor	r4,r4,r2
   812e0:	e0bff417 	ldw	r2,-48(fp)
   812e4:	2084f03a 	xor	r2,r4,r2
   812e8:	10bfffcc 	andi	r2,r2,65535
								^ key16_32 ^ key32_32) & 0x00ffffff);
				injectionvector_32 = *readaddress;
				byteswritten += 3;
			} else if (transferlength == 2) {
				*writeaddress = (*readaddress & 0xffff0000)
						| ((*readaddress ^ injectionvector_32 ^ key8_32
   812ec:	1886b03a 	or	r3,r3,r2
						| ((*readaddress ^ injectionvector_32 ^ key8_32
								^ key16_32 ^ key32_32) & 0x00ffffff);
				injectionvector_32 = *readaddress;
				byteswritten += 3;
			} else if (transferlength == 2) {
				*writeaddress = (*readaddress & 0xffff0000)
   812f0:	e0bff617 	ldw	r2,-40(fp)
   812f4:	10c00015 	stw	r3,0(r2)
						| ((*readaddress ^ injectionvector_32 ^ key8_32
								^ key16_32 ^ key32_32) & 0x0000ffff);
				injectionvector_32 = *readaddress;
   812f8:	e0bff717 	ldw	r2,-36(fp)
   812fc:	10800017 	ldw	r2,0(r2)
   81300:	e0bff515 	stw	r2,-44(fp)
				byteswritten += 2;
   81304:	e0bff917 	ldw	r2,-28(fp)
   81308:	10800084 	addi	r2,r2,2
   8130c:	e0bff915 	stw	r2,-28(fp)
   81310:	00002f06 	br	813d0 <CryptoProcedure+0x8e0>
			} else if (transferlength == 1) {
   81314:	e0bffd17 	ldw	r2,-12(fp)
   81318:	10800058 	cmpnei	r2,r2,1
   8131c:	1000191e 	bne	r2,zero,81384 <CryptoProcedure+0x894>
				*writeaddress = (*readaddress & 0xffffff00)
   81320:	e0bff717 	ldw	r2,-36(fp)
   81324:	10c00017 	ldw	r3,0(r2)
   81328:	00bfc004 	movi	r2,-256
   8132c:	1886703a 	and	r3,r3,r2
						| ((*readaddress ^ injectionvector_32 ^ key8_32
   81330:	e0bff717 	ldw	r2,-36(fp)
   81334:	11000017 	ldw	r4,0(r2)
   81338:	e0bff517 	ldw	r2,-44(fp)
   8133c:	2088f03a 	xor	r4,r4,r2
   81340:	e0bff217 	ldw	r2,-56(fp)
   81344:	2088f03a 	xor	r4,r4,r2
								^ key16_32 ^ key32_32) & 0x000000ff);
   81348:	e0bff317 	ldw	r2,-52(fp)
   8134c:	2088f03a 	xor	r4,r4,r2
   81350:	e0bff417 	ldw	r2,-48(fp)
   81354:	2084f03a 	xor	r2,r4,r2
   81358:	10803fcc 	andi	r2,r2,255
								^ key16_32 ^ key32_32) & 0x0000ffff);
				injectionvector_32 = *readaddress;
				byteswritten += 2;
			} else if (transferlength == 1) {
				*writeaddress = (*readaddress & 0xffffff00)
						| ((*readaddress ^ injectionvector_32 ^ key8_32
   8135c:	1886b03a 	or	r3,r3,r2
						| ((*readaddress ^ injectionvector_32 ^ key8_32
								^ key16_32 ^ key32_32) & 0x0000ffff);
				injectionvector_32 = *readaddress;
				byteswritten += 2;
			} else if (transferlength == 1) {
				*writeaddress = (*readaddress & 0xffffff00)
   81360:	e0bff617 	ldw	r2,-40(fp)
   81364:	10c00015 	stw	r3,0(r2)
						| ((*readaddress ^ injectionvector_32 ^ key8_32
								^ key16_32 ^ key32_32) & 0x000000ff);
				injectionvector_32 = *readaddress;
   81368:	e0bff717 	ldw	r2,-36(fp)
   8136c:	10800017 	ldw	r2,0(r2)
   81370:	e0bff515 	stw	r2,-44(fp)
				byteswritten += 1;
   81374:	e0bff917 	ldw	r2,-28(fp)
   81378:	10800044 	addi	r2,r2,1
   8137c:	e0bff915 	stw	r2,-28(fp)
   81380:	00001306 	br	813d0 <CryptoProcedure+0x8e0>
			} else {
				*writeaddress = (*readaddress ^ injectionvector_32 ^ key8_32
   81384:	e0bff717 	ldw	r2,-36(fp)
   81388:	10c00017 	ldw	r3,0(r2)
   8138c:	e0bff517 	ldw	r2,-44(fp)
   81390:	1886f03a 	xor	r3,r3,r2
   81394:	e0bff217 	ldw	r2,-56(fp)
   81398:	1886f03a 	xor	r3,r3,r2
						^ key16_32 ^ key32_32);
   8139c:	e0bff317 	ldw	r2,-52(fp)
   813a0:	1886f03a 	xor	r3,r3,r2
   813a4:	e0bff417 	ldw	r2,-48(fp)
   813a8:	1886f03a 	xor	r3,r3,r2
						| ((*readaddress ^ injectionvector_32 ^ key8_32
								^ key16_32 ^ key32_32) & 0x000000ff);
				injectionvector_32 = *readaddress;
				byteswritten += 1;
			} else {
				*writeaddress = (*readaddress ^ injectionvector_32 ^ key8_32
   813ac:	e0bff617 	ldw	r2,-40(fp)
   813b0:	10c00015 	stw	r3,0(r2)
						^ key16_32 ^ key32_32);
				injectionvector_32 = *readaddress;
   813b4:	e0bff717 	ldw	r2,-36(fp)
   813b8:	10800017 	ldw	r2,0(r2)
   813bc:	e0bff515 	stw	r2,-44(fp)
				byteswritten += 4;
   813c0:	e0bff917 	ldw	r2,-28(fp)
   813c4:	10800104 	addi	r2,r2,4
   813c8:	e0bff915 	stw	r2,-28(fp)
			}
			break;
   813cc:	0000a606 	br	81668 <CryptoProcedure+0xb78>
   813d0:	0000a506 	br	81668 <CryptoProcedure+0xb78>
		case (0x1):
			if (transferlength == 2) {
   813d4:	e0bffd17 	ldw	r2,-12(fp)
   813d8:	10800098 	cmpnei	r2,r2,2
   813dc:	10001c1e 	bne	r2,zero,81450 <CryptoProcedure+0x960>
				*writeaddress = (*readaddress & 0xff0000ff)
   813e0:	e0bff717 	ldw	r2,-36(fp)
   813e4:	10c00017 	ldw	r3,0(r2)
   813e8:	00bfc034 	movhi	r2,65280
   813ec:	10803fc4 	addi	r2,r2,255
   813f0:	1886703a 	and	r3,r3,r2
						| ((*readaddress ^ injectionvector_32 ^ key8_32
   813f4:	e0bff717 	ldw	r2,-36(fp)
   813f8:	11000017 	ldw	r4,0(r2)
   813fc:	e0bff517 	ldw	r2,-44(fp)
   81400:	2088f03a 	xor	r4,r4,r2
   81404:	e0bff217 	ldw	r2,-56(fp)
   81408:	2088f03a 	xor	r4,r4,r2
								^ key16_32 ^ key32_32) & 0x00ffff00);
   8140c:	e0bff317 	ldw	r2,-52(fp)
   81410:	2088f03a 	xor	r4,r4,r2
   81414:	e0bff417 	ldw	r2,-48(fp)
   81418:	2088f03a 	xor	r4,r4,r2
   8141c:	00804034 	movhi	r2,256
   81420:	10bfc004 	addi	r2,r2,-256
   81424:	2084703a 	and	r2,r4,r2
			}
			break;
		case (0x1):
			if (transferlength == 2) {
				*writeaddress = (*readaddress & 0xff0000ff)
						| ((*readaddress ^ injectionvector_32 ^ key8_32
   81428:	1886b03a 	or	r3,r3,r2
				byteswritten += 4;
			}
			break;
		case (0x1):
			if (transferlength == 2) {
				*writeaddress = (*readaddress & 0xff0000ff)
   8142c:	e0bff617 	ldw	r2,-40(fp)
   81430:	10c00015 	stw	r3,0(r2)
						| ((*readaddress ^ injectionvector_32 ^ key8_32
								^ key16_32 ^ key32_32) & 0x00ffff00);
				injectionvector_32 = *readaddress;
   81434:	e0bff717 	ldw	r2,-36(fp)
   81438:	10800017 	ldw	r2,0(r2)
   8143c:	e0bff515 	stw	r2,-44(fp)
				byteswritten += 2;
   81440:	e0bff917 	ldw	r2,-28(fp)
   81444:	10800084 	addi	r2,r2,2
   81448:	e0bff915 	stw	r2,-28(fp)
   8144c:	00003606 	br	81528 <CryptoProcedure+0xa38>
			} else if (transferlength == 1) {
   81450:	e0bffd17 	ldw	r2,-12(fp)
   81454:	10800058 	cmpnei	r2,r2,1
   81458:	10001a1e 	bne	r2,zero,814c4 <CryptoProcedure+0x9d4>
				*writeaddress = (*readaddress & 0xffff00ff)
   8145c:	e0bff717 	ldw	r2,-36(fp)
   81460:	10c00017 	ldw	r3,0(r2)
   81464:	00bffff4 	movhi	r2,65535
   81468:	10803fc4 	addi	r2,r2,255
   8146c:	1886703a 	and	r3,r3,r2
						| ((*readaddress ^ injectionvector_32 ^ key8_32
   81470:	e0bff717 	ldw	r2,-36(fp)
   81474:	11000017 	ldw	r4,0(r2)
   81478:	e0bff517 	ldw	r2,-44(fp)
   8147c:	2088f03a 	xor	r4,r4,r2
   81480:	e0bff217 	ldw	r2,-56(fp)
   81484:	2088f03a 	xor	r4,r4,r2
								^ key16_32 ^ key32_32) & 0x0000ff00);
   81488:	e0bff317 	ldw	r2,-52(fp)
   8148c:	2088f03a 	xor	r4,r4,r2
   81490:	e0bff417 	ldw	r2,-48(fp)
   81494:	2084f03a 	xor	r2,r4,r2
   81498:	10bfc00c 	andi	r2,r2,65280
								^ key16_32 ^ key32_32) & 0x00ffff00);
				injectionvector_32 = *readaddress;
				byteswritten += 2;
			} else if (transferlength == 1) {
				*writeaddress = (*readaddress & 0xffff00ff)
						| ((*readaddress ^ injectionvector_32 ^ key8_32
   8149c:	1886b03a 	or	r3,r3,r2
						| ((*readaddress ^ injectionvector_32 ^ key8_32
								^ key16_32 ^ key32_32) & 0x00ffff00);
				injectionvector_32 = *readaddress;
				byteswritten += 2;
			} else if (transferlength == 1) {
				*writeaddress = (*readaddress & 0xffff00ff)
   814a0:	e0bff617 	ldw	r2,-40(fp)
   814a4:	10c00015 	stw	r3,0(r2)
						| ((*readaddress ^ injectionvector_32 ^ key8_32
								^ key16_32 ^ key32_32) & 0x0000ff00);
				injectionvector_32 = *readaddress;
   814a8:	e0bff717 	ldw	r2,-36(fp)
   814ac:	10800017 	ldw	r2,0(r2)
   814b0:	e0bff515 	stw	r2,-44(fp)
				byteswritten += 1;
   814b4:	e0bff917 	ldw	r2,-28(fp)
   814b8:	10800044 	addi	r2,r2,1
   814bc:	e0bff915 	stw	r2,-28(fp)
   814c0:	00001906 	br	81528 <CryptoProcedure+0xa38>
			} else {
				*writeaddress = (*readaddress & 0x000000ff)
   814c4:	e0bff717 	ldw	r2,-36(fp)
   814c8:	10800017 	ldw	r2,0(r2)
   814cc:	10c03fcc 	andi	r3,r2,255
						| ((*readaddress ^ injectionvector_32 ^ key8_32
   814d0:	e0bff717 	ldw	r2,-36(fp)
   814d4:	11000017 	ldw	r4,0(r2)
   814d8:	e0bff517 	ldw	r2,-44(fp)
   814dc:	2088f03a 	xor	r4,r4,r2
   814e0:	e0bff217 	ldw	r2,-56(fp)
   814e4:	2088f03a 	xor	r4,r4,r2
								^ key16_32 ^ key32_32) & 0xffffff00);
   814e8:	e0bff317 	ldw	r2,-52(fp)
   814ec:	2088f03a 	xor	r4,r4,r2
   814f0:	e0bff417 	ldw	r2,-48(fp)
   814f4:	2088f03a 	xor	r4,r4,r2
   814f8:	00bfc004 	movi	r2,-256
   814fc:	2084703a 	and	r2,r4,r2
								^ key16_32 ^ key32_32) & 0x0000ff00);
				injectionvector_32 = *readaddress;
				byteswritten += 1;
			} else {
				*writeaddress = (*readaddress & 0x000000ff)
						| ((*readaddress ^ injectionvector_32 ^ key8_32
   81500:	1886b03a 	or	r3,r3,r2
						| ((*readaddress ^ injectionvector_32 ^ key8_32
								^ key16_32 ^ key32_32) & 0x0000ff00);
				injectionvector_32 = *readaddress;
				byteswritten += 1;
			} else {
				*writeaddress = (*readaddress & 0x000000ff)
   81504:	e0bff617 	ldw	r2,-40(fp)
   81508:	10c00015 	stw	r3,0(r2)
						| ((*readaddress ^ injectionvector_32 ^ key8_32
								^ key16_32 ^ key32_32) & 0xffffff00);
				injectionvector_32 = *readaddress;
   8150c:	e0bff717 	ldw	r2,-36(fp)
   81510:	10800017 	ldw	r2,0(r2)
   81514:	e0bff515 	stw	r2,-44(fp)
				byteswritten += 3;
   81518:	e0bff917 	ldw	r2,-28(fp)
   8151c:	108000c4 	addi	r2,r2,3
   81520:	e0bff915 	stw	r2,-28(fp)
				;
			}
			break;
   81524:	00005006 	br	81668 <CryptoProcedure+0xb78>
   81528:	00004f06 	br	81668 <CryptoProcedure+0xb78>
		case (0x2):
			if (transferlength == 1) {
   8152c:	e0bffd17 	ldw	r2,-12(fp)
   81530:	10800058 	cmpnei	r2,r2,1
   81534:	10001a1e 	bne	r2,zero,815a0 <CryptoProcedure+0xab0>
				*writeaddress = (*readaddress & 0xff00ffff)
   81538:	e0bff717 	ldw	r2,-36(fp)
   8153c:	10c00017 	ldw	r3,0(r2)
   81540:	00bfc074 	movhi	r2,65281
   81544:	10bfffc4 	addi	r2,r2,-1
   81548:	1886703a 	and	r3,r3,r2
						| ((*readaddress ^ injectionvector_32 ^ key8_32
   8154c:	e0bff717 	ldw	r2,-36(fp)
   81550:	11000017 	ldw	r4,0(r2)
   81554:	e0bff517 	ldw	r2,-44(fp)
   81558:	2088f03a 	xor	r4,r4,r2
   8155c:	e0bff217 	ldw	r2,-56(fp)
   81560:	2088f03a 	xor	r4,r4,r2
								^ key16_32 ^ key32_32) & 0x00ff0000);
   81564:	e0bff317 	ldw	r2,-52(fp)
   81568:	2088f03a 	xor	r4,r4,r2
   8156c:	e0bff417 	ldw	r2,-48(fp)
   81570:	2084f03a 	xor	r2,r4,r2
   81574:	10803fec 	andhi	r2,r2,255
			}
			break;
		case (0x2):
			if (transferlength == 1) {
				*writeaddress = (*readaddress & 0xff00ffff)
						| ((*readaddress ^ injectionvector_32 ^ key8_32
   81578:	1886b03a 	or	r3,r3,r2
				;
			}
			break;
		case (0x2):
			if (transferlength == 1) {
				*writeaddress = (*readaddress & 0xff00ffff)
   8157c:	e0bff617 	ldw	r2,-40(fp)
   81580:	10c00015 	stw	r3,0(r2)
						| ((*readaddress ^ injectionvector_32 ^ key8_32
								^ key16_32 ^ key32_32) & 0x00ff0000);
				injectionvector_32 = *readaddress;
   81584:	e0bff717 	ldw	r2,-36(fp)
   81588:	10800017 	ldw	r2,0(r2)
   8158c:	e0bff515 	stw	r2,-44(fp)
				byteswritten += 1;
   81590:	e0bff917 	ldw	r2,-28(fp)
   81594:	10800044 	addi	r2,r2,1
   81598:	e0bff915 	stw	r2,-28(fp)
						| ((*readaddress ^ injectionvector_32 ^ key8_32
								^ key16_32 ^ key32_32) & 0xffff0000);
				injectionvector_32 = *readaddress;
				byteswritten += 2;
			}
			break;
   8159c:	00003206 	br	81668 <CryptoProcedure+0xb78>
						| ((*readaddress ^ injectionvector_32 ^ key8_32
								^ key16_32 ^ key32_32) & 0x00ff0000);
				injectionvector_32 = *readaddress;
				byteswritten += 1;
			} else {
				*writeaddress = (*readaddress & 0x0000ffff)
   815a0:	e0bff717 	ldw	r2,-36(fp)
   815a4:	10800017 	ldw	r2,0(r2)
   815a8:	10ffffcc 	andi	r3,r2,65535
						| ((*readaddress ^ injectionvector_32 ^ key8_32
   815ac:	e0bff717 	ldw	r2,-36(fp)
   815b0:	11000017 	ldw	r4,0(r2)
   815b4:	e0bff517 	ldw	r2,-44(fp)
   815b8:	2088f03a 	xor	r4,r4,r2
   815bc:	e0bff217 	ldw	r2,-56(fp)
   815c0:	2088f03a 	xor	r4,r4,r2
								^ key16_32 ^ key32_32) & 0xffff0000);
   815c4:	e0bff317 	ldw	r2,-52(fp)
   815c8:	2088f03a 	xor	r4,r4,r2
   815cc:	e0bff417 	ldw	r2,-48(fp)
   815d0:	2084f03a 	xor	r2,r4,r2
   815d4:	10bfffec 	andhi	r2,r2,65535
								^ key16_32 ^ key32_32) & 0x00ff0000);
				injectionvector_32 = *readaddress;
				byteswritten += 1;
			} else {
				*writeaddress = (*readaddress & 0x0000ffff)
						| ((*readaddress ^ injectionvector_32 ^ key8_32
   815d8:	1886b03a 	or	r3,r3,r2
						| ((*readaddress ^ injectionvector_32 ^ key8_32
								^ key16_32 ^ key32_32) & 0x00ff0000);
				injectionvector_32 = *readaddress;
				byteswritten += 1;
			} else {
				*writeaddress = (*readaddress & 0x0000ffff)
   815dc:	e0bff617 	ldw	r2,-40(fp)
   815e0:	10c00015 	stw	r3,0(r2)
						| ((*readaddress ^ injectionvector_32 ^ key8_32
								^ key16_32 ^ key32_32) & 0xffff0000);
				injectionvector_32 = *readaddress;
   815e4:	e0bff717 	ldw	r2,-36(fp)
   815e8:	10800017 	ldw	r2,0(r2)
   815ec:	e0bff515 	stw	r2,-44(fp)
				byteswritten += 2;
   815f0:	e0bff917 	ldw	r2,-28(fp)
   815f4:	10800084 	addi	r2,r2,2
   815f8:	e0bff915 	stw	r2,-28(fp)
			}
			break;
   815fc:	00001a06 	br	81668 <CryptoProcedure+0xb78>
		case (0x3):
			*writeaddress = (*readaddress & 0x00ffffff)
   81600:	e0bff717 	ldw	r2,-36(fp)
   81604:	10c00017 	ldw	r3,0(r2)
   81608:	00804034 	movhi	r2,256
   8160c:	10bfffc4 	addi	r2,r2,-1
   81610:	1886703a 	and	r3,r3,r2
					| ((*readaddress ^ injectionvector_32 ^ key8_32 ^ key16_32
   81614:	e0bff717 	ldw	r2,-36(fp)
   81618:	11000017 	ldw	r4,0(r2)
   8161c:	e0bff517 	ldw	r2,-44(fp)
   81620:	2088f03a 	xor	r4,r4,r2
   81624:	e0bff217 	ldw	r2,-56(fp)
   81628:	2088f03a 	xor	r4,r4,r2
   8162c:	e0bff317 	ldw	r2,-52(fp)
   81630:	2088f03a 	xor	r4,r4,r2
							^ key32_32) & 0xff000000);
   81634:	e0bff417 	ldw	r2,-48(fp)
   81638:	2084f03a 	xor	r2,r4,r2
   8163c:	10bfc02c 	andhi	r2,r2,65280
				byteswritten += 2;
			}
			break;
		case (0x3):
			*writeaddress = (*readaddress & 0x00ffffff)
					| ((*readaddress ^ injectionvector_32 ^ key8_32 ^ key16_32
   81640:	1886b03a 	or	r3,r3,r2
				injectionvector_32 = *readaddress;
				byteswritten += 2;
			}
			break;
		case (0x3):
			*writeaddress = (*readaddress & 0x00ffffff)
   81644:	e0bff617 	ldw	r2,-40(fp)
   81648:	10c00015 	stw	r3,0(r2)
					| ((*readaddress ^ injectionvector_32 ^ key8_32 ^ key16_32
							^ key32_32) & 0xff000000);
			injectionvector_32 = *readaddress;
   8164c:	e0bff717 	ldw	r2,-36(fp)
   81650:	10800017 	ldw	r2,0(r2)
   81654:	e0bff515 	stw	r2,-44(fp)
			byteswritten += 1;
   81658:	e0bff917 	ldw	r2,-28(fp)
   8165c:	10800044 	addi	r2,r2,1
   81660:	e0bff915 	stw	r2,-28(fp)
			break;
   81664:	0001883a 	nop
		}

		readaddress += 0x1;
   81668:	e0bff717 	ldw	r2,-36(fp)
   8166c:	10800104 	addi	r2,r2,4
   81670:	e0bff715 	stw	r2,-36(fp)
		writeaddress += 0x1;
   81674:	e0bff617 	ldw	r2,-40(fp)
   81678:	10800104 	addi	r2,r2,4
   8167c:	e0bff615 	stw	r2,-40(fp)

		while (byteswritten < transferlength) {
   81680:	00008506 	br	81898 <CryptoProcedure+0xda8>
			rotationcounter += 1;
   81684:	e0bff817 	ldw	r2,-32(fp)
   81688:	10800044 	addi	r2,r2,1
   8168c:	e0bff815 	stw	r2,-32(fp)
			key32_32 = (key32_32 >> 1) | (key32_32 << 31);
   81690:	e0fff417 	ldw	r3,-48(fp)
   81694:	00800044 	movi	r2,1
   81698:	1884583a 	ror	r2,r3,r2
   8169c:	e0bff415 	stw	r2,-48(fp)
			if ((rotationcounter & 0x1f) == 0x1) {
   816a0:	e0bff817 	ldw	r2,-32(fp)
   816a4:	108007cc 	andi	r2,r2,31
   816a8:	10800058 	cmpnei	r2,r2,1
   816ac:	1000041e 	bne	r2,zero,816c0 <CryptoProcedure+0xbd0>
				key16_32 = (key16_32 >> 1) | (key16_32 << 31);
   816b0:	e0fff317 	ldw	r3,-52(fp)
   816b4:	00800044 	movi	r2,1
   816b8:	1884583a 	ror	r2,r3,r2
   816bc:	e0bff315 	stw	r2,-52(fp)
			}
			if ((rotationcounter & 0x7f) == 0x1) {
   816c0:	e0bff817 	ldw	r2,-32(fp)
   816c4:	10801fcc 	andi	r2,r2,127
   816c8:	10800058 	cmpnei	r2,r2,1
   816cc:	1000041e 	bne	r2,zero,816e0 <CryptoProcedure+0xbf0>
				key8_32 = (key8_32 >> 1) | (key8_32 << 31);
   816d0:	e0fff217 	ldw	r3,-56(fp)
   816d4:	00800044 	movi	r2,1
   816d8:	1884583a 	ror	r2,r3,r2
   816dc:	e0bff215 	stw	r2,-56(fp)
			}
			switch (transferlength - byteswritten) {
   816e0:	e0fffd17 	ldw	r3,-12(fp)
   816e4:	e0bff917 	ldw	r2,-28(fp)
   816e8:	1885c83a 	sub	r2,r3,r2
   816ec:	10c000a0 	cmpeqi	r3,r2,2
   816f0:	18001f1e 	bne	r3,zero,81770 <CryptoProcedure+0xc80>
   816f4:	10c000e0 	cmpeqi	r3,r2,3
   816f8:	1800031e 	bne	r3,zero,81708 <CryptoProcedure+0xc18>
   816fc:	10800060 	cmpeqi	r2,r2,1
   81700:	1000331e 	bne	r2,zero,817d0 <CryptoProcedure+0xce0>
   81704:	00004b06 	br	81834 <CryptoProcedure+0xd44>
			case (3):
				*writeaddress = (*readaddress & 0xff000000)
   81708:	e0bff717 	ldw	r2,-36(fp)
   8170c:	10800017 	ldw	r2,0(r2)
   81710:	10ffc02c 	andhi	r3,r2,65280
						| ((*readaddress ^ injectionvector_32 ^ key8_32
   81714:	e0bff717 	ldw	r2,-36(fp)
   81718:	11000017 	ldw	r4,0(r2)
   8171c:	e0bff517 	ldw	r2,-44(fp)
   81720:	2088f03a 	xor	r4,r4,r2
   81724:	e0bff217 	ldw	r2,-56(fp)
   81728:	2088f03a 	xor	r4,r4,r2
								^ key16_32 ^ key32_32) & 0x00ffffff);
   8172c:	e0bff317 	ldw	r2,-52(fp)
   81730:	2088f03a 	xor	r4,r4,r2
   81734:	e0bff417 	ldw	r2,-48(fp)
   81738:	2088f03a 	xor	r4,r4,r2
   8173c:	00804034 	movhi	r2,256
   81740:	10bfffc4 	addi	r2,r2,-1
   81744:	2084703a 	and	r2,r4,r2
				key8_32 = (key8_32 >> 1) | (key8_32 << 31);
			}
			switch (transferlength - byteswritten) {
			case (3):
				*writeaddress = (*readaddress & 0xff000000)
						| ((*readaddress ^ injectionvector_32 ^ key8_32
   81748:	1886b03a 	or	r3,r3,r2
			if ((rotationcounter & 0x7f) == 0x1) {
				key8_32 = (key8_32 >> 1) | (key8_32 << 31);
			}
			switch (transferlength - byteswritten) {
			case (3):
				*writeaddress = (*readaddress & 0xff000000)
   8174c:	e0bff617 	ldw	r2,-40(fp)
   81750:	10c00015 	stw	r3,0(r2)
						| ((*readaddress ^ injectionvector_32 ^ key8_32
								^ key16_32 ^ key32_32) & 0x00ffffff);
				injectionvector_32 = *readaddress;
   81754:	e0bff717 	ldw	r2,-36(fp)
   81758:	10800017 	ldw	r2,0(r2)
   8175c:	e0bff515 	stw	r2,-44(fp)
				byteswritten += 3;
   81760:	e0bff917 	ldw	r2,-28(fp)
   81764:	108000c4 	addi	r2,r2,3
   81768:	e0bff915 	stw	r2,-28(fp)
				break;
   8176c:	00004406 	br	81880 <CryptoProcedure+0xd90>
			case (2):
				*writeaddress = (*readaddress & 0xffff0000)
   81770:	e0bff717 	ldw	r2,-36(fp)
   81774:	10800017 	ldw	r2,0(r2)
   81778:	10ffffec 	andhi	r3,r2,65535
						| ((*readaddress ^ injectionvector_32 ^ key8_32
   8177c:	e0bff717 	ldw	r2,-36(fp)
   81780:	11000017 	ldw	r4,0(r2)
   81784:	e0bff517 	ldw	r2,-44(fp)
   81788:	2088f03a 	xor	r4,r4,r2
   8178c:	e0bff217 	ldw	r2,-56(fp)
   81790:	2088f03a 	xor	r4,r4,r2
								^ key16_32 ^ key32_32) & 0x0000ffff);
   81794:	e0bff317 	ldw	r2,-52(fp)
   81798:	2088f03a 	xor	r4,r4,r2
   8179c:	e0bff417 	ldw	r2,-48(fp)
   817a0:	2084f03a 	xor	r2,r4,r2
   817a4:	10bfffcc 	andi	r2,r2,65535
				injectionvector_32 = *readaddress;
				byteswritten += 3;
				break;
			case (2):
				*writeaddress = (*readaddress & 0xffff0000)
						| ((*readaddress ^ injectionvector_32 ^ key8_32
   817a8:	1886b03a 	or	r3,r3,r2
								^ key16_32 ^ key32_32) & 0x00ffffff);
				injectionvector_32 = *readaddress;
				byteswritten += 3;
				break;
			case (2):
				*writeaddress = (*readaddress & 0xffff0000)
   817ac:	e0bff617 	ldw	r2,-40(fp)
   817b0:	10c00015 	stw	r3,0(r2)
						| ((*readaddress ^ injectionvector_32 ^ key8_32
								^ key16_32 ^ key32_32) & 0x0000ffff);
				injectionvector_32 = *readaddress;
   817b4:	e0bff717 	ldw	r2,-36(fp)
   817b8:	10800017 	ldw	r2,0(r2)
   817bc:	e0bff515 	stw	r2,-44(fp)
				byteswritten += 2;
   817c0:	e0bff917 	ldw	r2,-28(fp)
   817c4:	10800084 	addi	r2,r2,2
   817c8:	e0bff915 	stw	r2,-28(fp)
				break;
   817cc:	00002c06 	br	81880 <CryptoProcedure+0xd90>
			case (1):
				*(unsigned int*) writeaddress = (*readaddress & 0xffffff00)
   817d0:	e0bff717 	ldw	r2,-36(fp)
   817d4:	10c00017 	ldw	r3,0(r2)
   817d8:	00bfc004 	movi	r2,-256
   817dc:	1886703a 	and	r3,r3,r2
						| ((*readaddress ^ injectionvector_32 ^ key8_32
   817e0:	e0bff717 	ldw	r2,-36(fp)
   817e4:	11000017 	ldw	r4,0(r2)
   817e8:	e0bff517 	ldw	r2,-44(fp)
   817ec:	2088f03a 	xor	r4,r4,r2
   817f0:	e0bff217 	ldw	r2,-56(fp)
   817f4:	2088f03a 	xor	r4,r4,r2
								^ key16_32 ^ key32_32) & 0x000000ff);
   817f8:	e0bff317 	ldw	r2,-52(fp)
   817fc:	2088f03a 	xor	r4,r4,r2
   81800:	e0bff417 	ldw	r2,-48(fp)
   81804:	2084f03a 	xor	r2,r4,r2
   81808:	10803fcc 	andi	r2,r2,255
				injectionvector_32 = *readaddress;
				byteswritten += 2;
				break;
			case (1):
				*(unsigned int*) writeaddress = (*readaddress & 0xffffff00)
						| ((*readaddress ^ injectionvector_32 ^ key8_32
   8180c:	1886b03a 	or	r3,r3,r2
								^ key16_32 ^ key32_32) & 0x0000ffff);
				injectionvector_32 = *readaddress;
				byteswritten += 2;
				break;
			case (1):
				*(unsigned int*) writeaddress = (*readaddress & 0xffffff00)
   81810:	e0bff617 	ldw	r2,-40(fp)
   81814:	10c00015 	stw	r3,0(r2)
						| ((*readaddress ^ injectionvector_32 ^ key8_32
								^ key16_32 ^ key32_32) & 0x000000ff);
				injectionvector_32 = *readaddress;
   81818:	e0bff717 	ldw	r2,-36(fp)
   8181c:	10800017 	ldw	r2,0(r2)
   81820:	e0bff515 	stw	r2,-44(fp)
				byteswritten += 1;
   81824:	e0bff917 	ldw	r2,-28(fp)
   81828:	10800044 	addi	r2,r2,1
   8182c:	e0bff915 	stw	r2,-28(fp)
				break;
   81830:	00001306 	br	81880 <CryptoProcedure+0xd90>
			default:
				*(unsigned int*) writeaddress = (*readaddress
   81834:	e0bff717 	ldw	r2,-36(fp)
   81838:	10c00017 	ldw	r3,0(r2)
						^ injectionvector_32 ^ key8_32 ^ key16_32 ^ key32_32);
   8183c:	e0bff517 	ldw	r2,-44(fp)
   81840:	1886f03a 	xor	r3,r3,r2
   81844:	e0bff217 	ldw	r2,-56(fp)
   81848:	1886f03a 	xor	r3,r3,r2
   8184c:	e0bff317 	ldw	r2,-52(fp)
   81850:	1886f03a 	xor	r3,r3,r2
   81854:	e0bff417 	ldw	r2,-48(fp)
   81858:	1886f03a 	xor	r3,r3,r2
								^ key16_32 ^ key32_32) & 0x000000ff);
				injectionvector_32 = *readaddress;
				byteswritten += 1;
				break;
			default:
				*(unsigned int*) writeaddress = (*readaddress
   8185c:	e0bff617 	ldw	r2,-40(fp)
   81860:	10c00015 	stw	r3,0(r2)
						^ injectionvector_32 ^ key8_32 ^ key16_32 ^ key32_32);
				injectionvector_32 = *readaddress;
   81864:	e0bff717 	ldw	r2,-36(fp)
   81868:	10800017 	ldw	r2,0(r2)
   8186c:	e0bff515 	stw	r2,-44(fp)
				byteswritten += 4;
   81870:	e0bff917 	ldw	r2,-28(fp)
   81874:	10800104 	addi	r2,r2,4
   81878:	e0bff915 	stw	r2,-28(fp)
				break;
   8187c:	0001883a 	nop
			}
			readaddress += 0x1;
   81880:	e0bff717 	ldw	r2,-36(fp)
   81884:	10800104 	addi	r2,r2,4
   81888:	e0bff715 	stw	r2,-36(fp)
			writeaddress += 0x1;
   8188c:	e0bff617 	ldw	r2,-40(fp)
   81890:	10800104 	addi	r2,r2,4
   81894:	e0bff615 	stw	r2,-40(fp)
		}

		readaddress += 0x1;
		writeaddress += 0x1;

		while (byteswritten < transferlength) {
   81898:	e0fff917 	ldw	r3,-28(fp)
   8189c:	e0bffd17 	ldw	r2,-12(fp)
   818a0:	18bf7836 	bltu	r3,r2,81684 <_gp+0xfffe7290>
			}
			readaddress += 0x1;
			writeaddress += 0x1;
		}
	}
}
   818a4:	e037883a 	mov	sp,fp
   818a8:	df000017 	ldw	fp,0(sp)
   818ac:	dec00104 	addi	sp,sp,4
   818b0:	f800283a 	ret

000818b4 <__divdf3>:
   818b4:	defff004 	addi	sp,sp,-64
   818b8:	dd000a15 	stw	r20,40(sp)
   818bc:	2828d53a 	srli	r20,r5,20
   818c0:	dd800c15 	stw	r22,48(sp)
   818c4:	282cd7fa 	srli	r22,r5,31
   818c8:	df000e15 	stw	fp,56(sp)
   818cc:	dcc00915 	stw	r19,36(sp)
   818d0:	dc800815 	stw	r18,32(sp)
   818d4:	04c00434 	movhi	r19,16
   818d8:	9cffffc4 	addi	r19,r19,-1
   818dc:	dfc00f15 	stw	ra,60(sp)
   818e0:	ddc00d15 	stw	r23,52(sp)
   818e4:	dd400b15 	stw	r21,44(sp)
   818e8:	dc400715 	stw	r17,28(sp)
   818ec:	dc000615 	stw	r16,24(sp)
   818f0:	a501ffcc 	andi	r20,r20,2047
   818f4:	2025883a 	mov	r18,r4
   818f8:	2ce6703a 	and	r19,r5,r19
   818fc:	b7003fcc 	andi	fp,r22,255
   81900:	a0006a26 	beq	r20,zero,81aac <__divdf3+0x1f8>
   81904:	0081ffc4 	movi	r2,2047
   81908:	2021883a 	mov	r16,r4
   8190c:	a0803726 	beq	r20,r2,819ec <__divdf3+0x138>
   81910:	98800434 	orhi	r2,r19,16
   81914:	100490fa 	slli	r2,r2,3
   81918:	2026d77a 	srli	r19,r4,29
   8191c:	202090fa 	slli	r16,r4,3
   81920:	a53f0044 	addi	r20,r20,-1023
   81924:	14e6b03a 	or	r19,r2,r19
   81928:	002b883a 	mov	r21,zero
   8192c:	0013883a 	mov	r9,zero
   81930:	3804d53a 	srli	r2,r7,20
   81934:	382ed7fa 	srli	r23,r7,31
   81938:	04400434 	movhi	r17,16
   8193c:	8c7fffc4 	addi	r17,r17,-1
   81940:	1081ffcc 	andi	r2,r2,2047
   81944:	3025883a 	mov	r18,r6
   81948:	3c62703a 	and	r17,r7,r17
   8194c:	ba803fcc 	andi	r10,r23,255
   81950:	10007326 	beq	r2,zero,81b20 <__divdf3+0x26c>
   81954:	0101ffc4 	movi	r4,2047
   81958:	11006b26 	beq	r2,r4,81b08 <__divdf3+0x254>
   8195c:	89000434 	orhi	r4,r17,16
   81960:	200890fa 	slli	r4,r4,3
   81964:	3022d77a 	srli	r17,r6,29
   81968:	302490fa 	slli	r18,r6,3
   8196c:	10bf0044 	addi	r2,r2,-1023
   81970:	2462b03a 	or	r17,r4,r17
   81974:	000f883a 	mov	r7,zero
   81978:	b5caf03a 	xor	r5,r22,r23
   8197c:	3d48b03a 	or	r4,r7,r21
   81980:	00c003c4 	movi	r3,15
   81984:	2811883a 	mov	r8,r5
   81988:	2d403fcc 	andi	r21,r5,255
   8198c:	19009436 	bltu	r3,r4,81be0 <__divdf3+0x32c>
   81990:	2109883a 	add	r4,r4,r4
   81994:	00c00234 	movhi	r3,8
   81998:	18c66b04 	addi	r3,r3,6572
   8199c:	2109883a 	add	r4,r4,r4
   819a0:	20c9883a 	add	r4,r4,r3
   819a4:	20c00017 	ldw	r3,0(r4)
   819a8:	1800683a 	jmp	r3
   819ac:	00081be0 	cmpeqi	zero,zero,8303
   819b0:	00081a48 	cmpgei	zero,zero,8297
   819b4:	00081bd0 	cmplti	zero,zero,8303
   819b8:	00081a18 	cmpnei	zero,zero,8296
   819bc:	00081bd0 	cmplti	zero,zero,8303
   819c0:	00081bb8 	rdprs	zero,zero,8302
   819c4:	00081bd0 	cmplti	zero,zero,8303
   819c8:	00081a18 	cmpnei	zero,zero,8296
   819cc:	00081a48 	cmpgei	zero,zero,8297
   819d0:	00081a48 	cmpgei	zero,zero,8297
   819d4:	00081bb8 	rdprs	zero,zero,8302
   819d8:	00081a18 	cmpnei	zero,zero,8296
   819dc:	00081a08 	cmpgei	zero,zero,8296
   819e0:	00081a08 	cmpgei	zero,zero,8296
   819e4:	00081a08 	cmpgei	zero,zero,8296
   819e8:	00081f70 	cmpltui	zero,zero,8317
   819ec:	9904b03a 	or	r2,r19,r4
   819f0:	10006e1e 	bne	r2,zero,81bac <__divdf3+0x2f8>
   819f4:	05400204 	movi	r21,8
   819f8:	0027883a 	mov	r19,zero
   819fc:	0021883a 	mov	r16,zero
   81a00:	02400084 	movi	r9,2
   81a04:	003fca06 	br	81930 <_gp+0xfffe753c>
   81a08:	9823883a 	mov	r17,r19
   81a0c:	8025883a 	mov	r18,r16
   81a10:	e015883a 	mov	r10,fp
   81a14:	480f883a 	mov	r7,r9
   81a18:	00800084 	movi	r2,2
   81a1c:	38800926 	beq	r7,r2,81a44 <__divdf3+0x190>
   81a20:	008000c4 	movi	r2,3
   81a24:	38820226 	beq	r7,r2,82230 <__divdf3+0x97c>
   81a28:	00800044 	movi	r2,1
   81a2c:	3881b81e 	bne	r7,r2,82110 <__divdf3+0x85c>
   81a30:	5011883a 	mov	r8,r10
   81a34:	0005883a 	mov	r2,zero
   81a38:	0027883a 	mov	r19,zero
   81a3c:	0021883a 	mov	r16,zero
   81a40:	00000506 	br	81a58 <__divdf3+0x1a4>
   81a44:	502b883a 	mov	r21,r10
   81a48:	aa00004c 	andi	r8,r21,1
   81a4c:	0081ffc4 	movi	r2,2047
   81a50:	0027883a 	mov	r19,zero
   81a54:	0021883a 	mov	r16,zero
   81a58:	1004953a 	slli	r2,r2,20
   81a5c:	42003fcc 	andi	r8,r8,255
   81a60:	401097fa 	slli	r8,r8,31
   81a64:	00c00434 	movhi	r3,16
   81a68:	18ffffc4 	addi	r3,r3,-1
   81a6c:	98e6703a 	and	r19,r19,r3
   81a70:	9886b03a 	or	r3,r19,r2
   81a74:	1a06b03a 	or	r3,r3,r8
   81a78:	8005883a 	mov	r2,r16
   81a7c:	dfc00f17 	ldw	ra,60(sp)
   81a80:	df000e17 	ldw	fp,56(sp)
   81a84:	ddc00d17 	ldw	r23,52(sp)
   81a88:	dd800c17 	ldw	r22,48(sp)
   81a8c:	dd400b17 	ldw	r21,44(sp)
   81a90:	dd000a17 	ldw	r20,40(sp)
   81a94:	dcc00917 	ldw	r19,36(sp)
   81a98:	dc800817 	ldw	r18,32(sp)
   81a9c:	dc400717 	ldw	r17,28(sp)
   81aa0:	dc000617 	ldw	r16,24(sp)
   81aa4:	dec01004 	addi	sp,sp,64
   81aa8:	f800283a 	ret
   81aac:	9904b03a 	or	r2,r19,r4
   81ab0:	10003926 	beq	r2,zero,81b98 <__divdf3+0x2e4>
   81ab4:	98015326 	beq	r19,zero,82004 <__divdf3+0x750>
   81ab8:	9809883a 	mov	r4,r19
   81abc:	d9800215 	stw	r6,8(sp)
   81ac0:	d9c00515 	stw	r7,20(sp)
   81ac4:	00823c00 	call	823c0 <__clzsi2>
   81ac8:	d9800217 	ldw	r6,8(sp)
   81acc:	d9c00517 	ldw	r7,20(sp)
   81ad0:	00c009c4 	movi	r3,39
   81ad4:	18814716 	blt	r3,r2,81ff4 <__divdf3+0x740>
   81ad8:	01400a04 	movi	r5,40
   81adc:	143ffe04 	addi	r16,r2,-8
   81ae0:	288bc83a 	sub	r5,r5,r2
   81ae4:	9c26983a 	sll	r19,r19,r16
   81ae8:	914ad83a 	srl	r5,r18,r5
   81aec:	9420983a 	sll	r16,r18,r16
   81af0:	2ce6b03a 	or	r19,r5,r19
   81af4:	053f0344 	movi	r20,-1011
   81af8:	a0a9c83a 	sub	r20,r20,r2
   81afc:	002b883a 	mov	r21,zero
   81b00:	0013883a 	mov	r9,zero
   81b04:	003f8a06 	br	81930 <_gp+0xfffe753c>
   81b08:	8988b03a 	or	r4,r17,r6
   81b0c:	2000201e 	bne	r4,zero,81b90 <__divdf3+0x2dc>
   81b10:	0023883a 	mov	r17,zero
   81b14:	0025883a 	mov	r18,zero
   81b18:	01c00084 	movi	r7,2
   81b1c:	003f9606 	br	81978 <_gp+0xfffe7584>
   81b20:	8988b03a 	or	r4,r17,r6
   81b24:	20001626 	beq	r4,zero,81b80 <__divdf3+0x2cc>
   81b28:	88012826 	beq	r17,zero,81fcc <__divdf3+0x718>
   81b2c:	8809883a 	mov	r4,r17
   81b30:	d9800215 	stw	r6,8(sp)
   81b34:	da400315 	stw	r9,12(sp)
   81b38:	da800415 	stw	r10,16(sp)
   81b3c:	00823c00 	call	823c0 <__clzsi2>
   81b40:	d9800217 	ldw	r6,8(sp)
   81b44:	da400317 	ldw	r9,12(sp)
   81b48:	da800417 	ldw	r10,16(sp)
   81b4c:	010009c4 	movi	r4,39
   81b50:	20811a16 	blt	r4,r2,81fbc <__divdf3+0x708>
   81b54:	01000a04 	movi	r4,40
   81b58:	14bffe04 	addi	r18,r2,-8
   81b5c:	2089c83a 	sub	r4,r4,r2
   81b60:	8ca2983a 	sll	r17,r17,r18
   81b64:	3108d83a 	srl	r4,r6,r4
   81b68:	34a4983a 	sll	r18,r6,r18
   81b6c:	2462b03a 	or	r17,r4,r17
   81b70:	013f0344 	movi	r4,-1011
   81b74:	2085c83a 	sub	r2,r4,r2
   81b78:	000f883a 	mov	r7,zero
   81b7c:	003f7e06 	br	81978 <_gp+0xfffe7584>
   81b80:	0023883a 	mov	r17,zero
   81b84:	0025883a 	mov	r18,zero
   81b88:	01c00044 	movi	r7,1
   81b8c:	003f7a06 	br	81978 <_gp+0xfffe7584>
   81b90:	01c000c4 	movi	r7,3
   81b94:	003f7806 	br	81978 <_gp+0xfffe7584>
   81b98:	05400104 	movi	r21,4
   81b9c:	0027883a 	mov	r19,zero
   81ba0:	0021883a 	mov	r16,zero
   81ba4:	02400044 	movi	r9,1
   81ba8:	003f6106 	br	81930 <_gp+0xfffe753c>
   81bac:	05400304 	movi	r21,12
   81bb0:	024000c4 	movi	r9,3
   81bb4:	003f5e06 	br	81930 <_gp+0xfffe753c>
   81bb8:	0011883a 	mov	r8,zero
   81bbc:	04c00434 	movhi	r19,16
   81bc0:	9cffffc4 	addi	r19,r19,-1
   81bc4:	043fffc4 	movi	r16,-1
   81bc8:	0081ffc4 	movi	r2,2047
   81bcc:	003fa206 	br	81a58 <_gp+0xfffe7664>
   81bd0:	0005883a 	mov	r2,zero
   81bd4:	0027883a 	mov	r19,zero
   81bd8:	0021883a 	mov	r16,zero
   81bdc:	003f9e06 	br	81a58 <_gp+0xfffe7664>
   81be0:	a085c83a 	sub	r2,r20,r2
   81be4:	d8800115 	stw	r2,4(sp)
   81be8:	8cc11b36 	bltu	r17,r19,82058 <__divdf3+0x7a4>
   81bec:	9c411926 	beq	r19,r17,82054 <__divdf3+0x7a0>
   81bf0:	d8c00117 	ldw	r3,4(sp)
   81bf4:	002d883a 	mov	r22,zero
   81bf8:	18ffffc4 	addi	r3,r3,-1
   81bfc:	d8c00115 	stw	r3,4(sp)
   81c00:	9006d63a 	srli	r3,r18,24
   81c04:	8822923a 	slli	r17,r17,8
   81c08:	9024923a 	slli	r18,r18,8
   81c0c:	9809883a 	mov	r4,r19
   81c10:	1c6eb03a 	or	r23,r3,r17
   81c14:	b828d43a 	srli	r20,r23,16
   81c18:	dc800015 	stw	r18,0(sp)
   81c1c:	bcbfffcc 	andi	r18,r23,65535
   81c20:	a00b883a 	mov	r5,r20
   81c24:	00825700 	call	82570 <__udivsi3>
   81c28:	1009883a 	mov	r4,r2
   81c2c:	900b883a 	mov	r5,r18
   81c30:	1039883a 	mov	fp,r2
   81c34:	00825800 	call	82580 <__mulsi3>
   81c38:	9809883a 	mov	r4,r19
   81c3c:	a00b883a 	mov	r5,r20
   81c40:	1023883a 	mov	r17,r2
   81c44:	00825780 	call	82578 <__umodsi3>
   81c48:	1004943a 	slli	r2,r2,16
   81c4c:	8008d43a 	srli	r4,r16,16
   81c50:	110ab03a 	or	r5,r2,r4
   81c54:	2c40062e 	bgeu	r5,r17,81c70 <__divdf3+0x3bc>
   81c58:	2dcb883a 	add	r5,r5,r23
   81c5c:	e0bfffc4 	addi	r2,fp,-1
   81c60:	2dc11136 	bltu	r5,r23,820a8 <__divdf3+0x7f4>
   81c64:	2c41102e 	bgeu	r5,r17,820a8 <__divdf3+0x7f4>
   81c68:	e73fff84 	addi	fp,fp,-2
   81c6c:	2dcb883a 	add	r5,r5,r23
   81c70:	2c67c83a 	sub	r19,r5,r17
   81c74:	9809883a 	mov	r4,r19
   81c78:	a00b883a 	mov	r5,r20
   81c7c:	00825700 	call	82570 <__udivsi3>
   81c80:	1009883a 	mov	r4,r2
   81c84:	900b883a 	mov	r5,r18
   81c88:	1023883a 	mov	r17,r2
   81c8c:	00825800 	call	82580 <__mulsi3>
   81c90:	9809883a 	mov	r4,r19
   81c94:	a00b883a 	mov	r5,r20
   81c98:	d8800215 	stw	r2,8(sp)
   81c9c:	00825780 	call	82578 <__umodsi3>
   81ca0:	1004943a 	slli	r2,r2,16
   81ca4:	da000217 	ldw	r8,8(sp)
   81ca8:	843fffcc 	andi	r16,r16,65535
   81cac:	140eb03a 	or	r7,r2,r16
   81cb0:	3a00062e 	bgeu	r7,r8,81ccc <__divdf3+0x418>
   81cb4:	3dcf883a 	add	r7,r7,r23
   81cb8:	88bfffc4 	addi	r2,r17,-1
   81cbc:	3dc0f836 	bltu	r7,r23,820a0 <__divdf3+0x7ec>
   81cc0:	3a00f72e 	bgeu	r7,r8,820a0 <__divdf3+0x7ec>
   81cc4:	8c7fff84 	addi	r17,r17,-2
   81cc8:	3dcf883a 	add	r7,r7,r23
   81ccc:	e004943a 	slli	r2,fp,16
   81cd0:	d8c00017 	ldw	r3,0(sp)
   81cd4:	3a0fc83a 	sub	r7,r7,r8
   81cd8:	88a2b03a 	or	r17,r17,r2
   81cdc:	1f3fffcc 	andi	fp,r3,65535
   81ce0:	8a7fffcc 	andi	r9,r17,65535
   81ce4:	4809883a 	mov	r4,r9
   81ce8:	e00b883a 	mov	r5,fp
   81cec:	1826d43a 	srli	r19,r3,16
   81cf0:	d9c00515 	stw	r7,20(sp)
   81cf4:	da400315 	stw	r9,12(sp)
   81cf8:	00825800 	call	82580 <__mulsi3>
   81cfc:	da400317 	ldw	r9,12(sp)
   81d00:	8820d43a 	srli	r16,r17,16
   81d04:	980b883a 	mov	r5,r19
   81d08:	4809883a 	mov	r4,r9
   81d0c:	d8800215 	stw	r2,8(sp)
   81d10:	00825800 	call	82580 <__mulsi3>
   81d14:	8009883a 	mov	r4,r16
   81d18:	e00b883a 	mov	r5,fp
   81d1c:	d8800415 	stw	r2,16(sp)
   81d20:	00825800 	call	82580 <__mulsi3>
   81d24:	8009883a 	mov	r4,r16
   81d28:	980b883a 	mov	r5,r19
   81d2c:	d8800315 	stw	r2,12(sp)
   81d30:	00825800 	call	82580 <__mulsi3>
   81d34:	da000217 	ldw	r8,8(sp)
   81d38:	da400317 	ldw	r9,12(sp)
   81d3c:	da800417 	ldw	r10,16(sp)
   81d40:	100b883a 	mov	r5,r2
   81d44:	4004d43a 	srli	r2,r8,16
   81d48:	4a89883a 	add	r4,r9,r10
   81d4c:	d9c00517 	ldw	r7,20(sp)
   81d50:	2089883a 	add	r4,r4,r2
   81d54:	2240022e 	bgeu	r4,r9,81d60 <__divdf3+0x4ac>
   81d58:	00800074 	movhi	r2,1
   81d5c:	288b883a 	add	r5,r5,r2
   81d60:	2004d43a 	srli	r2,r4,16
   81d64:	2020943a 	slli	r16,r4,16
   81d68:	423fffcc 	andi	r8,r8,65535
   81d6c:	288b883a 	add	r5,r5,r2
   81d70:	8221883a 	add	r16,r16,r8
   81d74:	3940ab36 	bltu	r7,r5,82024 <__divdf3+0x770>
   81d78:	3940a926 	beq	r7,r5,82020 <__divdf3+0x76c>
   81d7c:	394bc83a 	sub	r5,r7,r5
   81d80:	b421c83a 	sub	r16,r22,r16
   81d84:	b42d803a 	cmpltu	r22,r22,r16
   81d88:	2dadc83a 	sub	r22,r5,r22
   81d8c:	b5c0da26 	beq	r22,r23,820f8 <__divdf3+0x844>
   81d90:	b009883a 	mov	r4,r22
   81d94:	a00b883a 	mov	r5,r20
   81d98:	00825700 	call	82570 <__udivsi3>
   81d9c:	1009883a 	mov	r4,r2
   81da0:	900b883a 	mov	r5,r18
   81da4:	d8800215 	stw	r2,8(sp)
   81da8:	00825800 	call	82580 <__mulsi3>
   81dac:	b009883a 	mov	r4,r22
   81db0:	a00b883a 	mov	r5,r20
   81db4:	d8800515 	stw	r2,20(sp)
   81db8:	00825780 	call	82578 <__umodsi3>
   81dbc:	1004943a 	slli	r2,r2,16
   81dc0:	8008d43a 	srli	r4,r16,16
   81dc4:	d9c00517 	ldw	r7,20(sp)
   81dc8:	da000217 	ldw	r8,8(sp)
   81dcc:	110ab03a 	or	r5,r2,r4
   81dd0:	29c0062e 	bgeu	r5,r7,81dec <__divdf3+0x538>
   81dd4:	2dcb883a 	add	r5,r5,r23
   81dd8:	40bfffc4 	addi	r2,r8,-1
   81ddc:	2dc0ca36 	bltu	r5,r23,82108 <__divdf3+0x854>
   81de0:	29c0c92e 	bgeu	r5,r7,82108 <__divdf3+0x854>
   81de4:	423fff84 	addi	r8,r8,-2
   81de8:	2dcb883a 	add	r5,r5,r23
   81dec:	29cfc83a 	sub	r7,r5,r7
   81df0:	3809883a 	mov	r4,r7
   81df4:	a00b883a 	mov	r5,r20
   81df8:	da000215 	stw	r8,8(sp)
   81dfc:	d9c00515 	stw	r7,20(sp)
   81e00:	00825700 	call	82570 <__udivsi3>
   81e04:	900b883a 	mov	r5,r18
   81e08:	1009883a 	mov	r4,r2
   81e0c:	102d883a 	mov	r22,r2
   81e10:	00825800 	call	82580 <__mulsi3>
   81e14:	d9c00517 	ldw	r7,20(sp)
   81e18:	a00b883a 	mov	r5,r20
   81e1c:	1025883a 	mov	r18,r2
   81e20:	3809883a 	mov	r4,r7
   81e24:	00825780 	call	82578 <__umodsi3>
   81e28:	1004943a 	slli	r2,r2,16
   81e2c:	843fffcc 	andi	r16,r16,65535
   81e30:	da000217 	ldw	r8,8(sp)
   81e34:	140eb03a 	or	r7,r2,r16
   81e38:	3c80062e 	bgeu	r7,r18,81e54 <__divdf3+0x5a0>
   81e3c:	3dcf883a 	add	r7,r7,r23
   81e40:	b0bfffc4 	addi	r2,r22,-1
   81e44:	3dc0ae36 	bltu	r7,r23,82100 <__divdf3+0x84c>
   81e48:	3c80ad2e 	bgeu	r7,r18,82100 <__divdf3+0x84c>
   81e4c:	b5bfff84 	addi	r22,r22,-2
   81e50:	3dcf883a 	add	r7,r7,r23
   81e54:	4010943a 	slli	r8,r8,16
   81e58:	3ca9c83a 	sub	r20,r7,r18
   81e5c:	e00b883a 	mov	r5,fp
   81e60:	b224b03a 	or	r18,r22,r8
   81e64:	91ffffcc 	andi	r7,r18,65535
   81e68:	3809883a 	mov	r4,r7
   81e6c:	d9c00515 	stw	r7,20(sp)
   81e70:	00825800 	call	82580 <__mulsi3>
   81e74:	d9c00517 	ldw	r7,20(sp)
   81e78:	9020d43a 	srli	r16,r18,16
   81e7c:	980b883a 	mov	r5,r19
   81e80:	3809883a 	mov	r4,r7
   81e84:	102d883a 	mov	r22,r2
   81e88:	00825800 	call	82580 <__mulsi3>
   81e8c:	e00b883a 	mov	r5,fp
   81e90:	8009883a 	mov	r4,r16
   81e94:	d8800515 	stw	r2,20(sp)
   81e98:	00825800 	call	82580 <__mulsi3>
   81e9c:	8009883a 	mov	r4,r16
   81ea0:	980b883a 	mov	r5,r19
   81ea4:	1039883a 	mov	fp,r2
   81ea8:	00825800 	call	82580 <__mulsi3>
   81eac:	d9c00517 	ldw	r7,20(sp)
   81eb0:	100b883a 	mov	r5,r2
   81eb4:	b004d43a 	srli	r2,r22,16
   81eb8:	e1c9883a 	add	r4,fp,r7
   81ebc:	2089883a 	add	r4,r4,r2
   81ec0:	2700022e 	bgeu	r4,fp,81ecc <__divdf3+0x618>
   81ec4:	00800074 	movhi	r2,1
   81ec8:	288b883a 	add	r5,r5,r2
   81ecc:	2004d43a 	srli	r2,r4,16
   81ed0:	2008943a 	slli	r4,r4,16
   81ed4:	b5bfffcc 	andi	r22,r22,65535
   81ed8:	288b883a 	add	r5,r5,r2
   81edc:	25ad883a 	add	r22,r4,r22
   81ee0:	a140632e 	bgeu	r20,r5,82070 <__divdf3+0x7bc>
   81ee4:	a5e9883a 	add	r20,r20,r23
   81ee8:	90bfffc4 	addi	r2,r18,-1
   81eec:	a5c0702e 	bgeu	r20,r23,820b0 <__divdf3+0x7fc>
   81ef0:	1025883a 	mov	r18,r2
   81ef4:	a1406126 	beq	r20,r5,8207c <__divdf3+0x7c8>
   81ef8:	94800054 	ori	r18,r18,1
   81efc:	d8c00117 	ldw	r3,4(sp)
   81f00:	1880ffc4 	addi	r2,r3,1023
   81f04:	0080720e 	bge	zero,r2,820d0 <__divdf3+0x81c>
   81f08:	90c001cc 	andi	r3,r18,7
   81f0c:	18000726 	beq	r3,zero,81f2c <__divdf3+0x678>
   81f10:	910003cc 	andi	r4,r18,15
   81f14:	00c00104 	movi	r3,4
   81f18:	20c00426 	beq	r4,r3,81f2c <__divdf3+0x678>
   81f1c:	90c7883a 	add	r3,r18,r3
   81f20:	1ca5803a 	cmpltu	r18,r3,r18
   81f24:	8ca3883a 	add	r17,r17,r18
   81f28:	1825883a 	mov	r18,r3
   81f2c:	88c0402c 	andhi	r3,r17,256
   81f30:	18000526 	beq	r3,zero,81f48 <__divdf3+0x694>
   81f34:	d8c00117 	ldw	r3,4(sp)
   81f38:	00bfc034 	movhi	r2,65280
   81f3c:	10bfffc4 	addi	r2,r2,-1
   81f40:	88a2703a 	and	r17,r17,r2
   81f44:	18810004 	addi	r2,r3,1024
   81f48:	00c1ff84 	movi	r3,2046
   81f4c:	18bebe16 	blt	r3,r2,81a48 <_gp+0xfffe7654>
   81f50:	8820977a 	slli	r16,r17,29
   81f54:	9024d0fa 	srli	r18,r18,3
   81f58:	8822927a 	slli	r17,r17,9
   81f5c:	1081ffcc 	andi	r2,r2,2047
   81f60:	84a0b03a 	or	r16,r16,r18
   81f64:	8826d33a 	srli	r19,r17,12
   81f68:	aa00004c 	andi	r8,r21,1
   81f6c:	003eba06 	br	81a58 <_gp+0xfffe7664>
   81f70:	9880022c 	andhi	r2,r19,8
   81f74:	10000a26 	beq	r2,zero,81fa0 <__divdf3+0x6ec>
   81f78:	8880022c 	andhi	r2,r17,8
   81f7c:	1000081e 	bne	r2,zero,81fa0 <__divdf3+0x6ec>
   81f80:	00800434 	movhi	r2,16
   81f84:	10bfffc4 	addi	r2,r2,-1
   81f88:	8cc00234 	orhi	r19,r17,8
   81f8c:	98a6703a 	and	r19,r19,r2
   81f90:	b811883a 	mov	r8,r23
   81f94:	9021883a 	mov	r16,r18
   81f98:	0081ffc4 	movi	r2,2047
   81f9c:	003eae06 	br	81a58 <_gp+0xfffe7664>
   81fa0:	00800434 	movhi	r2,16
   81fa4:	10bfffc4 	addi	r2,r2,-1
   81fa8:	9cc00234 	orhi	r19,r19,8
   81fac:	98a6703a 	and	r19,r19,r2
   81fb0:	b011883a 	mov	r8,r22
   81fb4:	0081ffc4 	movi	r2,2047
   81fb8:	003ea706 	br	81a58 <_gp+0xfffe7664>
   81fbc:	147ff604 	addi	r17,r2,-40
   81fc0:	3462983a 	sll	r17,r6,r17
   81fc4:	0025883a 	mov	r18,zero
   81fc8:	003ee906 	br	81b70 <_gp+0xfffe777c>
   81fcc:	3009883a 	mov	r4,r6
   81fd0:	d9800215 	stw	r6,8(sp)
   81fd4:	da400315 	stw	r9,12(sp)
   81fd8:	da800415 	stw	r10,16(sp)
   81fdc:	00823c00 	call	823c0 <__clzsi2>
   81fe0:	10800804 	addi	r2,r2,32
   81fe4:	da800417 	ldw	r10,16(sp)
   81fe8:	da400317 	ldw	r9,12(sp)
   81fec:	d9800217 	ldw	r6,8(sp)
   81ff0:	003ed606 	br	81b4c <_gp+0xfffe7758>
   81ff4:	14fff604 	addi	r19,r2,-40
   81ff8:	94e6983a 	sll	r19,r18,r19
   81ffc:	0021883a 	mov	r16,zero
   82000:	003ebc06 	br	81af4 <_gp+0xfffe7700>
   82004:	d9800215 	stw	r6,8(sp)
   82008:	d9c00515 	stw	r7,20(sp)
   8200c:	00823c00 	call	823c0 <__clzsi2>
   82010:	10800804 	addi	r2,r2,32
   82014:	d9c00517 	ldw	r7,20(sp)
   82018:	d9800217 	ldw	r6,8(sp)
   8201c:	003eac06 	br	81ad0 <_gp+0xfffe76dc>
   82020:	b400292e 	bgeu	r22,r16,820c8 <__divdf3+0x814>
   82024:	d8c00017 	ldw	r3,0(sp)
   82028:	b0ed883a 	add	r22,r22,r3
   8202c:	b0c5803a 	cmpltu	r2,r22,r3
   82030:	15c5883a 	add	r2,r2,r23
   82034:	11cf883a 	add	r7,r2,r7
   82038:	88bfffc4 	addi	r2,r17,-1
   8203c:	b9c0122e 	bgeu	r23,r7,82088 <__divdf3+0x7d4>
   82040:	39405036 	bltu	r7,r5,82184 <__divdf3+0x8d0>
   82044:	29c01e26 	beq	r5,r7,820c0 <__divdf3+0x80c>
   82048:	394bc83a 	sub	r5,r7,r5
   8204c:	1023883a 	mov	r17,r2
   82050:	003f4b06 	br	81d80 <_gp+0xfffe798c>
   82054:	943ee62e 	bgeu	r18,r16,81bf0 <_gp+0xfffe77fc>
   82058:	980497fa 	slli	r2,r19,31
   8205c:	8006d07a 	srli	r3,r16,1
   82060:	802c97fa 	slli	r22,r16,31
   82064:	9826d07a 	srli	r19,r19,1
   82068:	18a0b03a 	or	r16,r3,r2
   8206c:	003ee406 	br	81c00 <_gp+0xfffe780c>
   82070:	a17fa11e 	bne	r20,r5,81ef8 <_gp+0xfffe7b04>
   82074:	b03f9b1e 	bne	r22,zero,81ee4 <_gp+0xfffe7af0>
   82078:	d8000015 	stw	zero,0(sp)
   8207c:	d8c00017 	ldw	r3,0(sp)
   82080:	1dbf9d1e 	bne	r3,r22,81ef8 <_gp+0xfffe7b04>
   82084:	003f9d06 	br	81efc <_gp+0xfffe7b08>
   82088:	3dffef1e 	bne	r7,r23,82048 <_gp+0xfffe7c54>
   8208c:	d8c00017 	ldw	r3,0(sp)
   82090:	b0ffeb2e 	bgeu	r22,r3,82040 <_gp+0xfffe7c4c>
   82094:	b94bc83a 	sub	r5,r23,r5
   82098:	1023883a 	mov	r17,r2
   8209c:	003f3806 	br	81d80 <_gp+0xfffe798c>
   820a0:	1023883a 	mov	r17,r2
   820a4:	003f0906 	br	81ccc <_gp+0xfffe78d8>
   820a8:	1039883a 	mov	fp,r2
   820ac:	003ef006 	br	81c70 <_gp+0xfffe787c>
   820b0:	a1403b36 	bltu	r20,r5,821a0 <__divdf3+0x8ec>
   820b4:	2d005826 	beq	r5,r20,82218 <__divdf3+0x964>
   820b8:	1025883a 	mov	r18,r2
   820bc:	003f8e06 	br	81ef8 <_gp+0xfffe7b04>
   820c0:	b4003036 	bltu	r22,r16,82184 <__divdf3+0x8d0>
   820c4:	1023883a 	mov	r17,r2
   820c8:	000b883a 	mov	r5,zero
   820cc:	003f2c06 	br	81d80 <_gp+0xfffe798c>
   820d0:	d8c00117 	ldw	r3,4(sp)
   820d4:	00bf0084 	movi	r2,-1022
   820d8:	10c5c83a 	sub	r2,r2,r3
   820dc:	00c00e04 	movi	r3,56
   820e0:	18800d0e 	bge	r3,r2,82118 <__divdf3+0x864>
   820e4:	aa00004c 	andi	r8,r21,1
   820e8:	0005883a 	mov	r2,zero
   820ec:	0027883a 	mov	r19,zero
   820f0:	0021883a 	mov	r16,zero
   820f4:	003e5806 	br	81a58 <_gp+0xfffe7664>
   820f8:	04bfffc4 	movi	r18,-1
   820fc:	003f7f06 	br	81efc <_gp+0xfffe7b08>
   82100:	102d883a 	mov	r22,r2
   82104:	003f5306 	br	81e54 <_gp+0xfffe7a60>
   82108:	1011883a 	mov	r8,r2
   8210c:	003f3706 	br	81dec <_gp+0xfffe79f8>
   82110:	502b883a 	mov	r21,r10
   82114:	003f7906 	br	81efc <_gp+0xfffe7b08>
   82118:	00c007c4 	movi	r3,31
   8211c:	18802816 	blt	r3,r2,821c0 <__divdf3+0x90c>
   82120:	d9000117 	ldw	r4,4(sp)
   82124:	908ad83a 	srl	r5,r18,r2
   82128:	8884d83a 	srl	r2,r17,r2
   8212c:	20c10784 	addi	r3,r4,1054
   82130:	88c8983a 	sll	r4,r17,r3
   82134:	90c6983a 	sll	r3,r18,r3
   82138:	2908b03a 	or	r4,r5,r4
   8213c:	1806c03a 	cmpne	r3,r3,zero
   82140:	20c6b03a 	or	r3,r4,r3
   82144:	190001cc 	andi	r4,r3,7
   82148:	20000726 	beq	r4,zero,82168 <__divdf3+0x8b4>
   8214c:	194003cc 	andi	r5,r3,15
   82150:	01000104 	movi	r4,4
   82154:	29000426 	beq	r5,r4,82168 <__divdf3+0x8b4>
   82158:	1909883a 	add	r4,r3,r4
   8215c:	20c7803a 	cmpltu	r3,r4,r3
   82160:	10c5883a 	add	r2,r2,r3
   82164:	2007883a 	mov	r3,r4
   82168:	1100202c 	andhi	r4,r2,128
   8216c:	20002226 	beq	r4,zero,821f8 <__divdf3+0x944>
   82170:	aa00004c 	andi	r8,r21,1
   82174:	00800044 	movi	r2,1
   82178:	0027883a 	mov	r19,zero
   8217c:	0021883a 	mov	r16,zero
   82180:	003e3506 	br	81a58 <_gp+0xfffe7664>
   82184:	d8c00017 	ldw	r3,0(sp)
   82188:	8c7fff84 	addi	r17,r17,-2
   8218c:	b0ed883a 	add	r22,r22,r3
   82190:	b0c5803a 	cmpltu	r2,r22,r3
   82194:	15c5883a 	add	r2,r2,r23
   82198:	11cf883a 	add	r7,r2,r7
   8219c:	003ef706 	br	81d7c <_gp+0xfffe7988>
   821a0:	d8c00017 	ldw	r3,0(sp)
   821a4:	18c9883a 	add	r4,r3,r3
   821a8:	20c5803a 	cmpltu	r2,r4,r3
   821ac:	15c7883a 	add	r3,r2,r23
   821b0:	a0e9883a 	add	r20,r20,r3
   821b4:	90bfff84 	addi	r2,r18,-2
   821b8:	d9000015 	stw	r4,0(sp)
   821bc:	003f4c06 	br	81ef0 <_gp+0xfffe7afc>
   821c0:	d9000117 	ldw	r4,4(sp)
   821c4:	00fef884 	movi	r3,-1054
   821c8:	1907c83a 	sub	r3,r3,r4
   821cc:	01000804 	movi	r4,32
   821d0:	88c6d83a 	srl	r3,r17,r3
   821d4:	11001426 	beq	r2,r4,82228 <__divdf3+0x974>
   821d8:	d9000117 	ldw	r4,4(sp)
   821dc:	20810f84 	addi	r2,r4,1086
   821e0:	8884983a 	sll	r2,r17,r2
   821e4:	1484b03a 	or	r2,r2,r18
   821e8:	1004c03a 	cmpne	r2,r2,zero
   821ec:	10c6b03a 	or	r3,r2,r3
   821f0:	0005883a 	mov	r2,zero
   821f4:	003fd306 	br	82144 <_gp+0xfffe7d50>
   821f8:	1020977a 	slli	r16,r2,29
   821fc:	1806d0fa 	srli	r3,r3,3
   82200:	1004927a 	slli	r2,r2,9
   82204:	aa00004c 	andi	r8,r21,1
   82208:	80e0b03a 	or	r16,r16,r3
   8220c:	1026d33a 	srli	r19,r2,12
   82210:	0005883a 	mov	r2,zero
   82214:	003e1006 	br	81a58 <_gp+0xfffe7664>
   82218:	d8c00017 	ldw	r3,0(sp)
   8221c:	1dbfe036 	bltu	r3,r22,821a0 <_gp+0xfffe7dac>
   82220:	1025883a 	mov	r18,r2
   82224:	003f9506 	br	8207c <_gp+0xfffe7c88>
   82228:	0005883a 	mov	r2,zero
   8222c:	003fed06 	br	821e4 <_gp+0xfffe7df0>
   82230:	00800434 	movhi	r2,16
   82234:	10bfffc4 	addi	r2,r2,-1
   82238:	8cc00234 	orhi	r19,r17,8
   8223c:	98a6703a 	and	r19,r19,r2
   82240:	5011883a 	mov	r8,r10
   82244:	9021883a 	mov	r16,r18
   82248:	0081ffc4 	movi	r2,2047
   8224c:	003e0206 	br	81a58 <_gp+0xfffe7664>

00082250 <__floatsidf>:
   82250:	defffd04 	addi	sp,sp,-12
   82254:	dc000015 	stw	r16,0(sp)
   82258:	dfc00215 	stw	ra,8(sp)
   8225c:	dc400115 	stw	r17,4(sp)
   82260:	2021883a 	mov	r16,r4
   82264:	20002926 	beq	r4,zero,8230c <__floatsidf+0xbc>
   82268:	2022d7fa 	srli	r17,r4,31
   8226c:	88000126 	beq	r17,zero,82274 <__floatsidf+0x24>
   82270:	0121c83a 	sub	r16,zero,r4
   82274:	8009883a 	mov	r4,r16
   82278:	00823c00 	call	823c0 <__clzsi2>
   8227c:	01810784 	movi	r6,1054
   82280:	00c00284 	movi	r3,10
   82284:	308dc83a 	sub	r6,r6,r2
   82288:	1880150e 	bge	r3,r2,822e0 <__floatsidf+0x90>
   8228c:	113ffd44 	addi	r4,r2,-11
   82290:	8108983a 	sll	r4,r16,r4
   82294:	00800434 	movhi	r2,16
   82298:	10bfffc4 	addi	r2,r2,-1
   8229c:	3181ffcc 	andi	r6,r6,2047
   822a0:	2088703a 	and	r4,r4,r2
   822a4:	880b883a 	mov	r5,r17
   822a8:	0005883a 	mov	r2,zero
   822ac:	300c953a 	slli	r6,r6,20
   822b0:	29403fcc 	andi	r5,r5,255
   822b4:	280a97fa 	slli	r5,r5,31
   822b8:	00c00434 	movhi	r3,16
   822bc:	18ffffc4 	addi	r3,r3,-1
   822c0:	20c8703a 	and	r4,r4,r3
   822c4:	2186b03a 	or	r3,r4,r6
   822c8:	1946b03a 	or	r3,r3,r5
   822cc:	dfc00217 	ldw	ra,8(sp)
   822d0:	dc400117 	ldw	r17,4(sp)
   822d4:	dc000017 	ldw	r16,0(sp)
   822d8:	dec00304 	addi	sp,sp,12
   822dc:	f800283a 	ret
   822e0:	010002c4 	movi	r4,11
   822e4:	2089c83a 	sub	r4,r4,r2
   822e8:	8108d83a 	srl	r4,r16,r4
   822ec:	10800544 	addi	r2,r2,21
   822f0:	00c00434 	movhi	r3,16
   822f4:	18ffffc4 	addi	r3,r3,-1
   822f8:	8084983a 	sll	r2,r16,r2
   822fc:	20c8703a 	and	r4,r4,r3
   82300:	3181ffcc 	andi	r6,r6,2047
   82304:	880b883a 	mov	r5,r17
   82308:	003fe806 	br	822ac <_gp+0xfffe7eb8>
   8230c:	000b883a 	mov	r5,zero
   82310:	000d883a 	mov	r6,zero
   82314:	0009883a 	mov	r4,zero
   82318:	0005883a 	mov	r2,zero
   8231c:	003fe306 	br	822ac <_gp+0xfffe7eb8>

00082320 <__floatunsidf>:
   82320:	defffe04 	addi	sp,sp,-8
   82324:	dc000015 	stw	r16,0(sp)
   82328:	dfc00115 	stw	ra,4(sp)
   8232c:	2021883a 	mov	r16,r4
   82330:	20001f26 	beq	r4,zero,823b0 <__floatunsidf+0x90>
   82334:	00823c00 	call	823c0 <__clzsi2>
   82338:	01010784 	movi	r4,1054
   8233c:	00c00284 	movi	r3,10
   82340:	2089c83a 	sub	r4,r4,r2
   82344:	1880100e 	bge	r3,r2,82388 <__floatunsidf+0x68>
   82348:	117ffd44 	addi	r5,r2,-11
   8234c:	814a983a 	sll	r5,r16,r5
   82350:	00800434 	movhi	r2,16
   82354:	10bfffc4 	addi	r2,r2,-1
   82358:	2101ffcc 	andi	r4,r4,2047
   8235c:	288a703a 	and	r5,r5,r2
   82360:	0005883a 	mov	r2,zero
   82364:	2008953a 	slli	r4,r4,20
   82368:	00c00434 	movhi	r3,16
   8236c:	18ffffc4 	addi	r3,r3,-1
   82370:	28c6703a 	and	r3,r5,r3
   82374:	1906b03a 	or	r3,r3,r4
   82378:	dfc00117 	ldw	ra,4(sp)
   8237c:	dc000017 	ldw	r16,0(sp)
   82380:	dec00204 	addi	sp,sp,8
   82384:	f800283a 	ret
   82388:	014002c4 	movi	r5,11
   8238c:	288bc83a 	sub	r5,r5,r2
   82390:	814ad83a 	srl	r5,r16,r5
   82394:	10800544 	addi	r2,r2,21
   82398:	00c00434 	movhi	r3,16
   8239c:	18ffffc4 	addi	r3,r3,-1
   823a0:	8084983a 	sll	r2,r16,r2
   823a4:	28ca703a 	and	r5,r5,r3
   823a8:	2101ffcc 	andi	r4,r4,2047
   823ac:	003fed06 	br	82364 <_gp+0xfffe7f70>
   823b0:	0009883a 	mov	r4,zero
   823b4:	000b883a 	mov	r5,zero
   823b8:	0005883a 	mov	r2,zero
   823bc:	003fe906 	br	82364 <_gp+0xfffe7f70>

000823c0 <__clzsi2>:
   823c0:	00bfffd4 	movui	r2,65535
   823c4:	11000b36 	bltu	r2,r4,823f4 <__clzsi2+0x34>
   823c8:	00803fc4 	movi	r2,255
   823cc:	11001e2e 	bgeu	r2,r4,82448 <__clzsi2+0x88>
   823d0:	00c00204 	movi	r3,8
   823d4:	20c8d83a 	srl	r4,r4,r3
   823d8:	00c00274 	movhi	r3,9
   823dc:	18c19704 	addi	r3,r3,1628
   823e0:	00800604 	movi	r2,24
   823e4:	1909883a 	add	r4,r3,r4
   823e8:	20c00003 	ldbu	r3,0(r4)
   823ec:	10c5c83a 	sub	r2,r2,r3
   823f0:	f800283a 	ret
   823f4:	00804034 	movhi	r2,256
   823f8:	10bfffc4 	addi	r2,r2,-1
   823fc:	11000936 	bltu	r2,r4,82424 <__clzsi2+0x64>
   82400:	00800404 	movi	r2,16
   82404:	1007883a 	mov	r3,r2
   82408:	20c8d83a 	srl	r4,r4,r3
   8240c:	00c00274 	movhi	r3,9
   82410:	18c19704 	addi	r3,r3,1628
   82414:	1909883a 	add	r4,r3,r4
   82418:	20c00003 	ldbu	r3,0(r4)
   8241c:	10c5c83a 	sub	r2,r2,r3
   82420:	f800283a 	ret
   82424:	00c00604 	movi	r3,24
   82428:	20c8d83a 	srl	r4,r4,r3
   8242c:	00c00274 	movhi	r3,9
   82430:	18c19704 	addi	r3,r3,1628
   82434:	00800204 	movi	r2,8
   82438:	1909883a 	add	r4,r3,r4
   8243c:	20c00003 	ldbu	r3,0(r4)
   82440:	10c5c83a 	sub	r2,r2,r3
   82444:	f800283a 	ret
   82448:	0007883a 	mov	r3,zero
   8244c:	20c8d83a 	srl	r4,r4,r3
   82450:	00c00274 	movhi	r3,9
   82454:	18c19704 	addi	r3,r3,1628
   82458:	00800804 	movi	r2,32
   8245c:	1909883a 	add	r4,r3,r4
   82460:	20c00003 	ldbu	r3,0(r4)
   82464:	10c5c83a 	sub	r2,r2,r3
   82468:	f800283a 	ret

0008246c <udivmodsi4>:
   8246c:	2900182e 	bgeu	r5,r4,824d0 <udivmodsi4+0x64>
   82470:	28001716 	blt	r5,zero,824d0 <udivmodsi4+0x64>
   82474:	00800804 	movi	r2,32
   82478:	00c00044 	movi	r3,1
   8247c:	00000206 	br	82488 <udivmodsi4+0x1c>
   82480:	10001126 	beq	r2,zero,824c8 <udivmodsi4+0x5c>
   82484:	28000516 	blt	r5,zero,8249c <udivmodsi4+0x30>
   82488:	294b883a 	add	r5,r5,r5
   8248c:	10bfffc4 	addi	r2,r2,-1
   82490:	18c7883a 	add	r3,r3,r3
   82494:	293ffa36 	bltu	r5,r4,82480 <_gp+0xfffe808c>
   82498:	18000b26 	beq	r3,zero,824c8 <udivmodsi4+0x5c>
   8249c:	0005883a 	mov	r2,zero
   824a0:	21400236 	bltu	r4,r5,824ac <udivmodsi4+0x40>
   824a4:	2149c83a 	sub	r4,r4,r5
   824a8:	10c4b03a 	or	r2,r2,r3
   824ac:	1806d07a 	srli	r3,r3,1
   824b0:	280ad07a 	srli	r5,r5,1
   824b4:	183ffa1e 	bne	r3,zero,824a0 <_gp+0xfffe80ac>
   824b8:	3000011e 	bne	r6,zero,824c0 <udivmodsi4+0x54>
   824bc:	f800283a 	ret
   824c0:	2005883a 	mov	r2,r4
   824c4:	f800283a 	ret
   824c8:	0005883a 	mov	r2,zero
   824cc:	003ffa06 	br	824b8 <_gp+0xfffe80c4>
   824d0:	00c00044 	movi	r3,1
   824d4:	0005883a 	mov	r2,zero
   824d8:	003ff106 	br	824a0 <_gp+0xfffe80ac>

000824dc <__divsi3>:
   824dc:	deffff04 	addi	sp,sp,-4
   824e0:	dfc00015 	stw	ra,0(sp)
   824e4:	20000916 	blt	r4,zero,8250c <__divsi3+0x30>
   824e8:	000f883a 	mov	r7,zero
   824ec:	28000a16 	blt	r5,zero,82518 <__divsi3+0x3c>
   824f0:	000d883a 	mov	r6,zero
   824f4:	008246c0 	call	8246c <udivmodsi4>
   824f8:	38000126 	beq	r7,zero,82500 <__divsi3+0x24>
   824fc:	0085c83a 	sub	r2,zero,r2
   82500:	dfc00017 	ldw	ra,0(sp)
   82504:	dec00104 	addi	sp,sp,4
   82508:	f800283a 	ret
   8250c:	0109c83a 	sub	r4,zero,r4
   82510:	01c00044 	movi	r7,1
   82514:	283ff60e 	bge	r5,zero,824f0 <_gp+0xfffe80fc>
   82518:	014bc83a 	sub	r5,zero,r5
   8251c:	39c0005c 	xori	r7,r7,1
   82520:	003ff306 	br	824f0 <_gp+0xfffe80fc>

00082524 <__modsi3>:
   82524:	20000316 	blt	r4,zero,82534 <__modsi3+0x10>
   82528:	28000c16 	blt	r5,zero,8255c <__modsi3+0x38>
   8252c:	01800044 	movi	r6,1
   82530:	008246c1 	jmpi	8246c <udivmodsi4>
   82534:	deffff04 	addi	sp,sp,-4
   82538:	dfc00015 	stw	ra,0(sp)
   8253c:	0109c83a 	sub	r4,zero,r4
   82540:	28000916 	blt	r5,zero,82568 <__modsi3+0x44>
   82544:	01800044 	movi	r6,1
   82548:	008246c0 	call	8246c <udivmodsi4>
   8254c:	0085c83a 	sub	r2,zero,r2
   82550:	dfc00017 	ldw	ra,0(sp)
   82554:	dec00104 	addi	sp,sp,4
   82558:	f800283a 	ret
   8255c:	014bc83a 	sub	r5,zero,r5
   82560:	01800044 	movi	r6,1
   82564:	008246c1 	jmpi	8246c <udivmodsi4>
   82568:	014bc83a 	sub	r5,zero,r5
   8256c:	003ff506 	br	82544 <_gp+0xfffe8150>

00082570 <__udivsi3>:
   82570:	000d883a 	mov	r6,zero
   82574:	008246c1 	jmpi	8246c <udivmodsi4>

00082578 <__umodsi3>:
   82578:	01800044 	movi	r6,1
   8257c:	008246c1 	jmpi	8246c <udivmodsi4>

00082580 <__mulsi3>:
   82580:	0005883a 	mov	r2,zero
   82584:	20000726 	beq	r4,zero,825a4 <__mulsi3+0x24>
   82588:	20c0004c 	andi	r3,r4,1
   8258c:	2008d07a 	srli	r4,r4,1
   82590:	18000126 	beq	r3,zero,82598 <__mulsi3+0x18>
   82594:	1145883a 	add	r2,r2,r5
   82598:	294b883a 	add	r5,r5,r5
   8259c:	203ffa1e 	bne	r4,zero,82588 <_gp+0xfffe8194>
   825a0:	f800283a 	ret
   825a4:	f800283a 	ret

000825a8 <memcpy>:
   825a8:	00c003c4 	movi	r3,15
   825ac:	2005883a 	mov	r2,r4
   825b0:	1980372e 	bgeu	r3,r6,82690 <memcpy+0xe8>
   825b4:	2146b03a 	or	r3,r4,r5
   825b8:	18c000cc 	andi	r3,r3,3
   825bc:	1800371e 	bne	r3,zero,8269c <memcpy+0xf4>
   825c0:	327ffc04 	addi	r9,r6,-16
   825c4:	4812d13a 	srli	r9,r9,4
   825c8:	2007883a 	mov	r3,r4
   825cc:	280f883a 	mov	r7,r5
   825d0:	4808913a 	slli	r4,r9,4
   825d4:	1109883a 	add	r4,r2,r4
   825d8:	21000404 	addi	r4,r4,16
   825dc:	3a000017 	ldw	r8,0(r7)
   825e0:	18c00404 	addi	r3,r3,16
   825e4:	39c00404 	addi	r7,r7,16
   825e8:	1a3ffc15 	stw	r8,-16(r3)
   825ec:	3a3ffd17 	ldw	r8,-12(r7)
   825f0:	1a3ffd15 	stw	r8,-12(r3)
   825f4:	3a3ffe17 	ldw	r8,-8(r7)
   825f8:	1a3ffe15 	stw	r8,-8(r3)
   825fc:	3a3fff17 	ldw	r8,-4(r7)
   82600:	1a3fff15 	stw	r8,-4(r3)
   82604:	193ff51e 	bne	r3,r4,825dc <_gp+0xfffe81e8>
   82608:	49000044 	addi	r4,r9,1
   8260c:	2008913a 	slli	r4,r4,4
   82610:	328003cc 	andi	r10,r6,15
   82614:	1107883a 	add	r3,r2,r4
   82618:	290b883a 	add	r5,r5,r4
   8261c:	010000c4 	movi	r4,3
   82620:	2280212e 	bgeu	r4,r10,826a8 <memcpy+0x100>
   82624:	52bfff04 	addi	r10,r10,-4
   82628:	5014d0ba 	srli	r10,r10,2
   8262c:	180f883a 	mov	r7,r3
   82630:	2811883a 	mov	r8,r5
   82634:	5289883a 	add	r4,r10,r10
   82638:	2109883a 	add	r4,r4,r4
   8263c:	21000104 	addi	r4,r4,4
   82640:	1909883a 	add	r4,r3,r4
   82644:	42400017 	ldw	r9,0(r8)
   82648:	39c00104 	addi	r7,r7,4
   8264c:	42000104 	addi	r8,r8,4
   82650:	3a7fff15 	stw	r9,-4(r7)
   82654:	393ffb1e 	bne	r7,r4,82644 <_gp+0xfffe8250>
   82658:	51000044 	addi	r4,r10,1
   8265c:	2109883a 	add	r4,r4,r4
   82660:	2109883a 	add	r4,r4,r4
   82664:	318000cc 	andi	r6,r6,3
   82668:	1907883a 	add	r3,r3,r4
   8266c:	290b883a 	add	r5,r5,r4
   82670:	30000c26 	beq	r6,zero,826a4 <memcpy+0xfc>
   82674:	298d883a 	add	r6,r5,r6
   82678:	29c00003 	ldbu	r7,0(r5)
   8267c:	18c00044 	addi	r3,r3,1
   82680:	29400044 	addi	r5,r5,1
   82684:	19ffffc5 	stb	r7,-1(r3)
   82688:	29bffb1e 	bne	r5,r6,82678 <_gp+0xfffe8284>
   8268c:	f800283a 	ret
   82690:	2007883a 	mov	r3,r4
   82694:	303ff71e 	bne	r6,zero,82674 <_gp+0xfffe8280>
   82698:	00000206 	br	826a4 <memcpy+0xfc>
   8269c:	2007883a 	mov	r3,r4
   826a0:	003ff406 	br	82674 <_gp+0xfffe8280>
   826a4:	f800283a 	ret
   826a8:	500d883a 	mov	r6,r10
   826ac:	303ff11e 	bne	r6,zero,82674 <_gp+0xfffe8280>
   826b0:	003ffc06 	br	826a4 <_gp+0xfffe82b0>

000826b4 <_printf_r>:
   826b4:	defffd04 	addi	sp,sp,-12
   826b8:	dfc00015 	stw	ra,0(sp)
   826bc:	d9800115 	stw	r6,4(sp)
   826c0:	d9c00215 	stw	r7,8(sp)
   826c4:	280d883a 	mov	r6,r5
   826c8:	21400217 	ldw	r5,8(r4)
   826cc:	d9c00104 	addi	r7,sp,4
   826d0:	00828980 	call	82898 <___vfprintf_internal_r>
   826d4:	dfc00017 	ldw	ra,0(sp)
   826d8:	dec00304 	addi	sp,sp,12
   826dc:	f800283a 	ret

000826e0 <printf>:
   826e0:	defffc04 	addi	sp,sp,-16
   826e4:	dfc00015 	stw	ra,0(sp)
   826e8:	d9400115 	stw	r5,4(sp)
   826ec:	d9800215 	stw	r6,8(sp)
   826f0:	d9c00315 	stw	r7,12(sp)
   826f4:	00800274 	movhi	r2,9
   826f8:	1088ff04 	addi	r2,r2,9212
   826fc:	10800017 	ldw	r2,0(r2)
   82700:	200b883a 	mov	r5,r4
   82704:	d9800104 	addi	r6,sp,4
   82708:	11000217 	ldw	r4,8(r2)
   8270c:	00849ec0 	call	849ec <__vfprintf_internal>
   82710:	dfc00017 	ldw	ra,0(sp)
   82714:	dec00404 	addi	sp,sp,16
   82718:	f800283a 	ret

0008271c <_putchar_r>:
   8271c:	21800217 	ldw	r6,8(r4)
   82720:	00891881 	jmpi	89188 <_putc_r>

00082724 <putchar>:
   82724:	00800274 	movhi	r2,9
   82728:	1088ff04 	addi	r2,r2,9212
   8272c:	10800017 	ldw	r2,0(r2)
   82730:	200b883a 	mov	r5,r4
   82734:	11800217 	ldw	r6,8(r2)
   82738:	1009883a 	mov	r4,r2
   8273c:	00891881 	jmpi	89188 <_putc_r>

00082740 <_puts_r>:
   82740:	defff604 	addi	sp,sp,-40
   82744:	dc400815 	stw	r17,32(sp)
   82748:	2023883a 	mov	r17,r4
   8274c:	2809883a 	mov	r4,r5
   82750:	dc000715 	stw	r16,28(sp)
   82754:	dfc00915 	stw	ra,36(sp)
   82758:	2821883a 	mov	r16,r5
   8275c:	008280c0 	call	8280c <strlen>
   82760:	00c00274 	movhi	r3,9
   82764:	18c8ff04 	addi	r3,r3,9212
   82768:	18c00017 	ldw	r3,0(r3)
   8276c:	11000044 	addi	r4,r2,1
   82770:	d8800115 	stw	r2,4(sp)
   82774:	18c00217 	ldw	r3,8(r3)
   82778:	00800274 	movhi	r2,9
   8277c:	1081d704 	addi	r2,r2,1884
   82780:	d8800215 	stw	r2,8(sp)
   82784:	1940030b 	ldhu	r5,12(r3)
   82788:	00800044 	movi	r2,1
   8278c:	d8800315 	stw	r2,12(sp)
   82790:	00800084 	movi	r2,2
   82794:	d8800515 	stw	r2,20(sp)
   82798:	dc000015 	stw	r16,0(sp)
   8279c:	d9000615 	stw	r4,24(sp)
   827a0:	dec00415 	stw	sp,16(sp)
   827a4:	2888000c 	andi	r2,r5,8192
   827a8:	1000061e 	bne	r2,zero,827c4 <_puts_r+0x84>
   827ac:	19001917 	ldw	r4,100(r3)
   827b0:	00b7ffc4 	movi	r2,-8193
   827b4:	29480014 	ori	r5,r5,8192
   827b8:	2084703a 	and	r2,r4,r2
   827bc:	1940030d 	sth	r5,12(r3)
   827c0:	18801915 	stw	r2,100(r3)
   827c4:	89400217 	ldw	r5,8(r17)
   827c8:	8809883a 	mov	r4,r17
   827cc:	d9800404 	addi	r6,sp,16
   827d0:	0086dd00 	call	86dd0 <__sfvwrite_r>
   827d4:	1000061e 	bne	r2,zero,827f0 <_puts_r+0xb0>
   827d8:	00800284 	movi	r2,10
   827dc:	dfc00917 	ldw	ra,36(sp)
   827e0:	dc400817 	ldw	r17,32(sp)
   827e4:	dc000717 	ldw	r16,28(sp)
   827e8:	dec00a04 	addi	sp,sp,40
   827ec:	f800283a 	ret
   827f0:	00bfffc4 	movi	r2,-1
   827f4:	003ff906 	br	827dc <_gp+0xfffe83e8>

000827f8 <puts>:
   827f8:	00800274 	movhi	r2,9
   827fc:	1088ff04 	addi	r2,r2,9212
   82800:	200b883a 	mov	r5,r4
   82804:	11000017 	ldw	r4,0(r2)
   82808:	00827401 	jmpi	82740 <_puts_r>

0008280c <strlen>:
   8280c:	208000cc 	andi	r2,r4,3
   82810:	10001d26 	beq	r2,zero,82888 <strlen+0x7c>
   82814:	20800007 	ldb	r2,0(r4)
   82818:	10001d26 	beq	r2,zero,82890 <strlen+0x84>
   8281c:	2005883a 	mov	r2,r4
   82820:	00000206 	br	8282c <strlen+0x20>
   82824:	10c00007 	ldb	r3,0(r2)
   82828:	18001526 	beq	r3,zero,82880 <strlen+0x74>
   8282c:	10800044 	addi	r2,r2,1
   82830:	10c000cc 	andi	r3,r2,3
   82834:	183ffb1e 	bne	r3,zero,82824 <_gp+0xfffe8430>
   82838:	10c00017 	ldw	r3,0(r2)
   8283c:	01ffbff4 	movhi	r7,65279
   82840:	39ffbfc4 	addi	r7,r7,-257
   82844:	01a02074 	movhi	r6,32897
   82848:	31a02004 	addi	r6,r6,-32640
   8284c:	00000206 	br	82858 <strlen+0x4c>
   82850:	10800104 	addi	r2,r2,4
   82854:	10c00017 	ldw	r3,0(r2)
   82858:	19cb883a 	add	r5,r3,r7
   8285c:	00c6303a 	nor	r3,zero,r3
   82860:	28c6703a 	and	r3,r5,r3
   82864:	1986703a 	and	r3,r3,r6
   82868:	183ff926 	beq	r3,zero,82850 <_gp+0xfffe845c>
   8286c:	10c00007 	ldb	r3,0(r2)
   82870:	18000326 	beq	r3,zero,82880 <strlen+0x74>
   82874:	10800044 	addi	r2,r2,1
   82878:	10c00007 	ldb	r3,0(r2)
   8287c:	183ffd1e 	bne	r3,zero,82874 <_gp+0xfffe8480>
   82880:	1105c83a 	sub	r2,r2,r4
   82884:	f800283a 	ret
   82888:	2005883a 	mov	r2,r4
   8288c:	003fea06 	br	82838 <_gp+0xfffe8444>
   82890:	0005883a 	mov	r2,zero
   82894:	f800283a 	ret

00082898 <___vfprintf_internal_r>:
   82898:	defeb604 	addi	sp,sp,-1320
   8289c:	dfc14915 	stw	ra,1316(sp)
   828a0:	dcc14315 	stw	r19,1292(sp)
   828a4:	dc414115 	stw	r17,1284(sp)
   828a8:	d9012c15 	stw	r4,1200(sp)
   828ac:	2827883a 	mov	r19,r5
   828b0:	3023883a 	mov	r17,r6
   828b4:	d9c12f15 	stw	r7,1212(sp)
   828b8:	df014815 	stw	fp,1312(sp)
   828bc:	ddc14715 	stw	r23,1308(sp)
   828c0:	dd814615 	stw	r22,1304(sp)
   828c4:	dd414515 	stw	r21,1300(sp)
   828c8:	dd014415 	stw	r20,1296(sp)
   828cc:	dc814215 	stw	r18,1288(sp)
   828d0:	dc014015 	stw	r16,1280(sp)
   828d4:	008747c0 	call	8747c <_localeconv_r>
   828d8:	10800017 	ldw	r2,0(r2)
   828dc:	1009883a 	mov	r4,r2
   828e0:	d8813415 	stw	r2,1232(sp)
   828e4:	008280c0 	call	8280c <strlen>
   828e8:	d8813815 	stw	r2,1248(sp)
   828ec:	d8812c17 	ldw	r2,1200(sp)
   828f0:	10000226 	beq	r2,zero,828fc <___vfprintf_internal_r+0x64>
   828f4:	10800e17 	ldw	r2,56(r2)
   828f8:	10010826 	beq	r2,zero,82d1c <___vfprintf_internal_r+0x484>
   828fc:	9880030b 	ldhu	r2,12(r19)
   82900:	1108000c 	andi	r4,r2,8192
   82904:	1007883a 	mov	r3,r2
   82908:	2000071e 	bne	r4,zero,82928 <___vfprintf_internal_r+0x90>
   8290c:	99001917 	ldw	r4,100(r19)
   82910:	10c80014 	ori	r3,r2,8192
   82914:	00b7ffc4 	movi	r2,-8193
   82918:	2088703a 	and	r4,r4,r2
   8291c:	98c0030d 	sth	r3,12(r19)
   82920:	1805883a 	mov	r2,r3
   82924:	99001915 	stw	r4,100(r19)
   82928:	1900020c 	andi	r4,r3,8
   8292c:	2000ab26 	beq	r4,zero,82bdc <___vfprintf_internal_r+0x344>
   82930:	99000417 	ldw	r4,16(r19)
   82934:	2000a926 	beq	r4,zero,82bdc <___vfprintf_internal_r+0x344>
   82938:	18c0068c 	andi	r3,r3,26
   8293c:	01000284 	movi	r4,10
   82940:	1900af26 	beq	r3,r4,82c00 <___vfprintf_internal_r+0x368>
   82944:	d9010dc4 	addi	r4,sp,1079
   82948:	d9410e04 	addi	r5,sp,1080
   8294c:	d8800404 	addi	r2,sp,16
   82950:	2907c83a 	sub	r3,r5,r4
   82954:	d9012815 	stw	r4,1184(sp)
   82958:	d9412915 	stw	r5,1188(sp)
   8295c:	d8811e15 	stw	r2,1144(sp)
   82960:	d8012015 	stw	zero,1152(sp)
   82964:	d8011f15 	stw	zero,1148(sp)
   82968:	d8013515 	stw	zero,1236(sp)
   8296c:	d8013715 	stw	zero,1244(sp)
   82970:	d8013915 	stw	zero,1252(sp)
   82974:	d8013b15 	stw	zero,1260(sp)
   82978:	d8013a15 	stw	zero,1256(sp)
   8297c:	d8013115 	stw	zero,1220(sp)
   82980:	1011883a 	mov	r8,r2
   82984:	05c00274 	movhi	r23,9
   82988:	bdc1e884 	addi	r23,r23,1954
   8298c:	d8c13d15 	stw	r3,1268(sp)
   82990:	88800007 	ldb	r2,0(r17)
   82994:	10021126 	beq	r2,zero,831dc <___vfprintf_internal_r+0x944>
   82998:	00c00944 	movi	r3,37
   8299c:	8821883a 	mov	r16,r17
   829a0:	10c0021e 	bne	r2,r3,829ac <___vfprintf_internal_r+0x114>
   829a4:	00001406 	br	829f8 <___vfprintf_internal_r+0x160>
   829a8:	10c00326 	beq	r2,r3,829b8 <___vfprintf_internal_r+0x120>
   829ac:	84000044 	addi	r16,r16,1
   829b0:	80800007 	ldb	r2,0(r16)
   829b4:	103ffc1e 	bne	r2,zero,829a8 <_gp+0xfffe85b4>
   829b8:	8465c83a 	sub	r18,r16,r17
   829bc:	90000e26 	beq	r18,zero,829f8 <___vfprintf_internal_r+0x160>
   829c0:	d8c12017 	ldw	r3,1152(sp)
   829c4:	d8811f17 	ldw	r2,1148(sp)
   829c8:	44400015 	stw	r17,0(r8)
   829cc:	1c87883a 	add	r3,r3,r18
   829d0:	10800044 	addi	r2,r2,1
   829d4:	d8c12015 	stw	r3,1152(sp)
   829d8:	44800115 	stw	r18,4(r8)
   829dc:	d8811f15 	stw	r2,1148(sp)
   829e0:	00c001c4 	movi	r3,7
   829e4:	1880bb16 	blt	r3,r2,82cd4 <___vfprintf_internal_r+0x43c>
   829e8:	42000204 	addi	r8,r8,8
   829ec:	d9013117 	ldw	r4,1220(sp)
   829f0:	2489883a 	add	r4,r4,r18
   829f4:	d9013115 	stw	r4,1220(sp)
   829f8:	80800007 	ldb	r2,0(r16)
   829fc:	1000bc26 	beq	r2,zero,82cf0 <___vfprintf_internal_r+0x458>
   82a00:	053fffc4 	movi	r20,-1
   82a04:	84400044 	addi	r17,r16,1
   82a08:	84800047 	ldb	r18,1(r16)
   82a0c:	d8012785 	stb	zero,1182(sp)
   82a10:	002d883a 	mov	r22,zero
   82a14:	d8013015 	stw	zero,1216(sp)
   82a18:	d8012a15 	stw	zero,1192(sp)
   82a1c:	04001604 	movi	r16,88
   82a20:	05400244 	movi	r21,9
   82a24:	4039883a 	mov	fp,r8
   82a28:	a007883a 	mov	r3,r20
   82a2c:	8c400044 	addi	r17,r17,1
   82a30:	90bff804 	addi	r2,r18,-32
   82a34:	80832036 	bltu	r16,r2,836b8 <___vfprintf_internal_r+0xe20>
   82a38:	1085883a 	add	r2,r2,r2
   82a3c:	1085883a 	add	r2,r2,r2
   82a40:	01400234 	movhi	r5,8
   82a44:	294a9504 	addi	r5,r5,10836
   82a48:	1145883a 	add	r2,r2,r5
   82a4c:	10800017 	ldw	r2,0(r2)
   82a50:	1000683a 	jmp	r2
   82a54:	00083458 	cmpnei	zero,zero,8401
   82a58:	000836b8 	rdprs	zero,zero,8410
   82a5c:	000836b8 	rdprs	zero,zero,8410
   82a60:	00083474 	movhi	zero,8401
   82a64:	000836b8 	rdprs	zero,zero,8410
   82a68:	000836b8 	rdprs	zero,zero,8410
   82a6c:	000836b8 	rdprs	zero,zero,8410
   82a70:	000836b8 	rdprs	zero,zero,8410
   82a74:	000836b8 	rdprs	zero,zero,8410
   82a78:	000836b8 	rdprs	zero,zero,8410
   82a7c:	00083488 	cmpgei	zero,zero,8402
   82a80:	00082d28 	cmpgeui	zero,zero,8372
   82a84:	000836b8 	rdprs	zero,zero,8410
   82a88:	00082bc8 	cmpgei	zero,zero,8367
   82a8c:	00082d34 	movhi	zero,8372
   82a90:	000836b8 	rdprs	zero,zero,8410
   82a94:	00082d84 	movi	zero,8374
   82a98:	00083294 	movui	zero,8394
   82a9c:	00083294 	movui	zero,8394
   82aa0:	00083294 	movui	zero,8394
   82aa4:	00083294 	movui	zero,8394
   82aa8:	00083294 	movui	zero,8394
   82aac:	00083294 	movui	zero,8394
   82ab0:	00083294 	movui	zero,8394
   82ab4:	00083294 	movui	zero,8394
   82ab8:	00083294 	movui	zero,8394
   82abc:	000836b8 	rdprs	zero,zero,8410
   82ac0:	000836b8 	rdprs	zero,zero,8410
   82ac4:	000836b8 	rdprs	zero,zero,8410
   82ac8:	000836b8 	rdprs	zero,zero,8410
   82acc:	000836b8 	rdprs	zero,zero,8410
   82ad0:	000836b8 	rdprs	zero,zero,8410
   82ad4:	000836b8 	rdprs	zero,zero,8410
   82ad8:	000836b8 	rdprs	zero,zero,8410
   82adc:	000836b8 	rdprs	zero,zero,8410
   82ae0:	000836b8 	rdprs	zero,zero,8410
   82ae4:	00082d98 	cmpnei	zero,zero,8374
   82ae8:	000831e4 	muli	zero,zero,8391
   82aec:	000836b8 	rdprs	zero,zero,8410
   82af0:	000831e4 	muli	zero,zero,8391
   82af4:	000836b8 	rdprs	zero,zero,8410
   82af8:	000836b8 	rdprs	zero,zero,8410
   82afc:	000836b8 	rdprs	zero,zero,8410
   82b00:	000836b8 	rdprs	zero,zero,8410
   82b04:	000832dc 	xori	zero,zero,8395
   82b08:	000836b8 	rdprs	zero,zero,8410
   82b0c:	000836b8 	rdprs	zero,zero,8410
   82b10:	000832f0 	cmpltui	zero,zero,8395
   82b14:	000836b8 	rdprs	zero,zero,8410
   82b18:	000836b8 	rdprs	zero,zero,8410
   82b1c:	000836b8 	rdprs	zero,zero,8410
   82b20:	000836b8 	rdprs	zero,zero,8410
   82b24:	000836b8 	rdprs	zero,zero,8410
   82b28:	00083338 	rdprs	zero,zero,8396
   82b2c:	000836b8 	rdprs	zero,zero,8410
   82b30:	000836b8 	rdprs	zero,zero,8410
   82b34:	000834ac 	andhi	zero,zero,8402
   82b38:	000836b8 	rdprs	zero,zero,8410
   82b3c:	000836b8 	rdprs	zero,zero,8410
   82b40:	000836b8 	rdprs	zero,zero,8410
   82b44:	000836b8 	rdprs	zero,zero,8410
   82b48:	000836b8 	rdprs	zero,zero,8410
   82b4c:	000836b8 	rdprs	zero,zero,8410
   82b50:	000836b8 	rdprs	zero,zero,8410
   82b54:	000836b8 	rdprs	zero,zero,8410
   82b58:	000836b8 	rdprs	zero,zero,8410
   82b5c:	000836b8 	rdprs	zero,zero,8410
   82b60:	000833b0 	cmpltui	zero,zero,8398
   82b64:	00083528 	cmpgeui	zero,zero,8404
   82b68:	000831e4 	muli	zero,zero,8391
   82b6c:	000831e4 	muli	zero,zero,8391
   82b70:	000831e4 	muli	zero,zero,8391
   82b74:	000834f4 	movhi	zero,8403
   82b78:	00083528 	cmpgeui	zero,zero,8404
   82b7c:	000836b8 	rdprs	zero,zero,8410
   82b80:	000836b8 	rdprs	zero,zero,8410
   82b84:	00083508 	cmpgei	zero,zero,8404
   82b88:	000836b8 	rdprs	zero,zero,8410
   82b8c:	00083378 	rdprs	zero,zero,8397
   82b90:	00083638 	rdprs	zero,zero,8408
   82b94:	000835e4 	muli	zero,zero,8407
   82b98:	00083568 	cmpgeui	zero,zero,8405
   82b9c:	000836b8 	rdprs	zero,zero,8410
   82ba0:	0008357c 	xorhi	zero,zero,8405
   82ba4:	000836b8 	rdprs	zero,zero,8410
   82ba8:	00083678 	rdprs	zero,zero,8409
   82bac:	000836b8 	rdprs	zero,zero,8410
   82bb0:	000836b8 	rdprs	zero,zero,8410
   82bb4:	000833f0 	cmpltui	zero,zero,8399
   82bb8:	d9413017 	ldw	r5,1216(sp)
   82bbc:	d8812f15 	stw	r2,1212(sp)
   82bc0:	014bc83a 	sub	r5,zero,r5
   82bc4:	d9413015 	stw	r5,1216(sp)
   82bc8:	d8812a17 	ldw	r2,1192(sp)
   82bcc:	10800114 	ori	r2,r2,4
   82bd0:	d8812a15 	stw	r2,1192(sp)
   82bd4:	8c800007 	ldb	r18,0(r17)
   82bd8:	003f9406 	br	82a2c <_gp+0xfffe8638>
   82bdc:	d9012c17 	ldw	r4,1200(sp)
   82be0:	980b883a 	mov	r5,r19
   82be4:	0084a100 	call	84a10 <__swsetup_r>
   82be8:	10002d1e 	bne	r2,zero,82ca0 <___vfprintf_internal_r+0x408>
   82bec:	9880030b 	ldhu	r2,12(r19)
   82bf0:	01000284 	movi	r4,10
   82bf4:	1007883a 	mov	r3,r2
   82bf8:	18c0068c 	andi	r3,r3,26
   82bfc:	193f511e 	bne	r3,r4,82944 <_gp+0xfffe8550>
   82c00:	98c0038b 	ldhu	r3,14(r19)
   82c04:	193fffcc 	andi	r4,r3,65535
   82c08:	2120001c 	xori	r4,r4,32768
   82c0c:	21200004 	addi	r4,r4,-32768
   82c10:	203f4c16 	blt	r4,zero,82944 <_gp+0xfffe8550>
   82c14:	9ac01917 	ldw	r11,100(r19)
   82c18:	9a800717 	ldw	r10,28(r19)
   82c1c:	9a400917 	ldw	r9,36(r19)
   82c20:	d9012c17 	ldw	r4,1200(sp)
   82c24:	d9c12f17 	ldw	r7,1212(sp)
   82c28:	02010004 	movi	r8,1024
   82c2c:	10bfff4c 	andi	r2,r2,65533
   82c30:	d8c1078d 	sth	r3,1054(sp)
   82c34:	d9410404 	addi	r5,sp,1040
   82c38:	d8c00404 	addi	r3,sp,16
   82c3c:	880d883a 	mov	r6,r17
   82c40:	d881070d 	sth	r2,1052(sp)
   82c44:	dac11d15 	stw	r11,1140(sp)
   82c48:	da810b15 	stw	r10,1068(sp)
   82c4c:	da410d15 	stw	r9,1076(sp)
   82c50:	d8c10415 	stw	r3,1040(sp)
   82c54:	d8c10815 	stw	r3,1056(sp)
   82c58:	da010615 	stw	r8,1048(sp)
   82c5c:	da010915 	stw	r8,1060(sp)
   82c60:	d8010a15 	stw	zero,1064(sp)
   82c64:	00828980 	call	82898 <___vfprintf_internal_r>
   82c68:	1021883a 	mov	r16,r2
   82c6c:	10000416 	blt	r2,zero,82c80 <___vfprintf_internal_r+0x3e8>
   82c70:	d9012c17 	ldw	r4,1200(sp)
   82c74:	d9410404 	addi	r5,sp,1040
   82c78:	00863ac0 	call	863ac <_fflush_r>
   82c7c:	10072a1e 	bne	r2,zero,84928 <___vfprintf_internal_r+0x2090>
   82c80:	d881070b 	ldhu	r2,1052(sp)
   82c84:	1080100c 	andi	r2,r2,64
   82c88:	10000326 	beq	r2,zero,82c98 <___vfprintf_internal_r+0x400>
   82c8c:	9880030b 	ldhu	r2,12(r19)
   82c90:	10801014 	ori	r2,r2,64
   82c94:	9880030d 	sth	r2,12(r19)
   82c98:	8005883a 	mov	r2,r16
   82c9c:	00000106 	br	82ca4 <___vfprintf_internal_r+0x40c>
   82ca0:	00bfffc4 	movi	r2,-1
   82ca4:	dfc14917 	ldw	ra,1316(sp)
   82ca8:	df014817 	ldw	fp,1312(sp)
   82cac:	ddc14717 	ldw	r23,1308(sp)
   82cb0:	dd814617 	ldw	r22,1304(sp)
   82cb4:	dd414517 	ldw	r21,1300(sp)
   82cb8:	dd014417 	ldw	r20,1296(sp)
   82cbc:	dcc14317 	ldw	r19,1292(sp)
   82cc0:	dc814217 	ldw	r18,1288(sp)
   82cc4:	dc414117 	ldw	r17,1284(sp)
   82cc8:	dc014017 	ldw	r16,1280(sp)
   82ccc:	dec14a04 	addi	sp,sp,1320
   82cd0:	f800283a 	ret
   82cd4:	d9012c17 	ldw	r4,1200(sp)
   82cd8:	980b883a 	mov	r5,r19
   82cdc:	d9811e04 	addi	r6,sp,1144
   82ce0:	0089c000 	call	89c00 <__sprint_r>
   82ce4:	1000081e 	bne	r2,zero,82d08 <___vfprintf_internal_r+0x470>
   82ce8:	da000404 	addi	r8,sp,16
   82cec:	003f3f06 	br	829ec <_gp+0xfffe85f8>
   82cf0:	d8812017 	ldw	r2,1152(sp)
   82cf4:	10000426 	beq	r2,zero,82d08 <___vfprintf_internal_r+0x470>
   82cf8:	d9012c17 	ldw	r4,1200(sp)
   82cfc:	980b883a 	mov	r5,r19
   82d00:	d9811e04 	addi	r6,sp,1144
   82d04:	0089c000 	call	89c00 <__sprint_r>
   82d08:	9880030b 	ldhu	r2,12(r19)
   82d0c:	1080100c 	andi	r2,r2,64
   82d10:	103fe31e 	bne	r2,zero,82ca0 <_gp+0xfffe88ac>
   82d14:	d8813117 	ldw	r2,1220(sp)
   82d18:	003fe206 	br	82ca4 <_gp+0xfffe88b0>
   82d1c:	d9012c17 	ldw	r4,1200(sp)
   82d20:	00866cc0 	call	866cc <__sinit>
   82d24:	003ef506 	br	828fc <_gp+0xfffe8508>
   82d28:	05800ac4 	movi	r22,43
   82d2c:	8c800007 	ldb	r18,0(r17)
   82d30:	003f3e06 	br	82a2c <_gp+0xfffe8638>
   82d34:	8c800007 	ldb	r18,0(r17)
   82d38:	00c00a84 	movi	r3,42
   82d3c:	88800044 	addi	r2,r17,1
   82d40:	90c6fb26 	beq	r18,r3,84930 <___vfprintf_internal_r+0x2098>
   82d44:	953ff404 	addi	r20,r18,-48
   82d48:	1023883a 	mov	r17,r2
   82d4c:	0007883a 	mov	r3,zero
   82d50:	ad3f3736 	bltu	r21,r20,82a30 <_gp+0xfffe863c>
   82d54:	0009883a 	mov	r4,zero
   82d58:	01400284 	movi	r5,10
   82d5c:	00825800 	call	82580 <__mulsi3>
   82d60:	8c800007 	ldb	r18,0(r17)
   82d64:	a089883a 	add	r4,r20,r2
   82d68:	8c400044 	addi	r17,r17,1
   82d6c:	953ff404 	addi	r20,r18,-48
   82d70:	ad3ff92e 	bgeu	r21,r20,82d58 <_gp+0xfffe8964>
   82d74:	2007883a 	mov	r3,r4
   82d78:	203f2d0e 	bge	r4,zero,82a30 <_gp+0xfffe863c>
   82d7c:	00ffffc4 	movi	r3,-1
   82d80:	003f2b06 	br	82a30 <_gp+0xfffe863c>
   82d84:	d9412a17 	ldw	r5,1192(sp)
   82d88:	29402014 	ori	r5,r5,128
   82d8c:	d9412a15 	stw	r5,1192(sp)
   82d90:	8c800007 	ldb	r18,0(r17)
   82d94:	003f2506 	br	82a2c <_gp+0xfffe8638>
   82d98:	d9412a17 	ldw	r5,1192(sp)
   82d9c:	1829883a 	mov	r20,r3
   82da0:	dd812785 	stb	r22,1182(sp)
   82da4:	29400414 	ori	r5,r5,16
   82da8:	d9412a15 	stw	r5,1192(sp)
   82dac:	d8c12a17 	ldw	r3,1192(sp)
   82db0:	e011883a 	mov	r8,fp
   82db4:	1880080c 	andi	r2,r3,32
   82db8:	1001e126 	beq	r2,zero,83540 <___vfprintf_internal_r+0xca8>
   82dbc:	d9012f17 	ldw	r4,1212(sp)
   82dc0:	20800117 	ldw	r2,4(r4)
   82dc4:	25400017 	ldw	r21,0(r4)
   82dc8:	21000204 	addi	r4,r4,8
   82dcc:	d9012f15 	stw	r4,1212(sp)
   82dd0:	102d883a 	mov	r22,r2
   82dd4:	10046916 	blt	r2,zero,83f7c <___vfprintf_internal_r+0x16e4>
   82dd8:	df012783 	ldbu	fp,1182(sp)
   82ddc:	00c00044 	movi	r3,1
   82de0:	ad84b03a 	or	r2,r21,r22
   82de4:	a0000416 	blt	r20,zero,82df8 <___vfprintf_internal_r+0x560>
   82de8:	d9412a17 	ldw	r5,1192(sp)
   82dec:	013fdfc4 	movi	r4,-129
   82df0:	290a703a 	and	r5,r5,r4
   82df4:	d9412a15 	stw	r5,1192(sp)
   82df8:	1002491e 	bne	r2,zero,83720 <___vfprintf_internal_r+0xe88>
   82dfc:	a002481e 	bne	r20,zero,83720 <___vfprintf_internal_r+0xe88>
   82e00:	18c03fcc 	andi	r3,r3,255
   82e04:	1803871e 	bne	r3,zero,83c24 <___vfprintf_internal_r+0x138c>
   82e08:	d9012a17 	ldw	r4,1192(sp)
   82e0c:	2080004c 	andi	r2,r4,1
   82e10:	10038426 	beq	r2,zero,83c24 <___vfprintf_internal_r+0x138c>
   82e14:	d9413d17 	ldw	r5,1268(sp)
   82e18:	00800c04 	movi	r2,48
   82e1c:	d8810dc5 	stb	r2,1079(sp)
   82e20:	d9412e15 	stw	r5,1208(sp)
   82e24:	dc010dc4 	addi	r16,sp,1079
   82e28:	d8812e17 	ldw	r2,1208(sp)
   82e2c:	1500010e 	bge	r2,r20,82e34 <___vfprintf_internal_r+0x59c>
   82e30:	a005883a 	mov	r2,r20
   82e34:	d8812b15 	stw	r2,1196(sp)
   82e38:	d8013315 	stw	zero,1228(sp)
   82e3c:	e0803fcc 	andi	r2,fp,255
   82e40:	1080201c 	xori	r2,r2,128
   82e44:	10bfe004 	addi	r2,r2,-128
   82e48:	10000326 	beq	r2,zero,82e58 <___vfprintf_internal_r+0x5c0>
   82e4c:	d8c12b17 	ldw	r3,1196(sp)
   82e50:	18c00044 	addi	r3,r3,1
   82e54:	d8c12b15 	stw	r3,1196(sp)
   82e58:	d8c12a17 	ldw	r3,1192(sp)
   82e5c:	18c0008c 	andi	r3,r3,2
   82e60:	d8c12d15 	stw	r3,1204(sp)
   82e64:	18000326 	beq	r3,zero,82e74 <___vfprintf_internal_r+0x5dc>
   82e68:	d8c12b17 	ldw	r3,1196(sp)
   82e6c:	18c00084 	addi	r3,r3,2
   82e70:	d8c12b15 	stw	r3,1196(sp)
   82e74:	d8c12a17 	ldw	r3,1192(sp)
   82e78:	18c0210c 	andi	r3,r3,132
   82e7c:	d8c13215 	stw	r3,1224(sp)
   82e80:	1802151e 	bne	r3,zero,836d8 <___vfprintf_internal_r+0xe40>
   82e84:	d9013017 	ldw	r4,1216(sp)
   82e88:	d8c12b17 	ldw	r3,1196(sp)
   82e8c:	20f9c83a 	sub	fp,r4,r3
   82e90:	0702110e 	bge	zero,fp,836d8 <___vfprintf_internal_r+0xe40>
   82e94:	02400404 	movi	r9,16
   82e98:	d8c12017 	ldw	r3,1152(sp)
   82e9c:	d8811f17 	ldw	r2,1148(sp)
   82ea0:	4f059a0e 	bge	r9,fp,8450c <___vfprintf_internal_r+0x1c74>
   82ea4:	8809883a 	mov	r4,r17
   82ea8:	01400274 	movhi	r5,9
   82eac:	2941ec84 	addi	r5,r5,1970
   82eb0:	dc013c15 	stw	r16,1264(sp)
   82eb4:	e023883a 	mov	r17,fp
   82eb8:	d9413615 	stw	r5,1240(sp)
   82ebc:	482d883a 	mov	r22,r9
   82ec0:	054001c4 	movi	r21,7
   82ec4:	dc012c17 	ldw	r16,1200(sp)
   82ec8:	2039883a 	mov	fp,r4
   82ecc:	00000306 	br	82edc <___vfprintf_internal_r+0x644>
   82ed0:	8c7ffc04 	addi	r17,r17,-16
   82ed4:	42000204 	addi	r8,r8,8
   82ed8:	b440130e 	bge	r22,r17,82f28 <___vfprintf_internal_r+0x690>
   82edc:	18c00404 	addi	r3,r3,16
   82ee0:	10800044 	addi	r2,r2,1
   82ee4:	01000274 	movhi	r4,9
   82ee8:	2101ec84 	addi	r4,r4,1970
   82eec:	41000015 	stw	r4,0(r8)
   82ef0:	45800115 	stw	r22,4(r8)
   82ef4:	d8c12015 	stw	r3,1152(sp)
   82ef8:	d8811f15 	stw	r2,1148(sp)
   82efc:	a8bff40e 	bge	r21,r2,82ed0 <_gp+0xfffe8adc>
   82f00:	8009883a 	mov	r4,r16
   82f04:	980b883a 	mov	r5,r19
   82f08:	d9811e04 	addi	r6,sp,1144
   82f0c:	0089c000 	call	89c00 <__sprint_r>
   82f10:	103f7d1e 	bne	r2,zero,82d08 <_gp+0xfffe8914>
   82f14:	8c7ffc04 	addi	r17,r17,-16
   82f18:	d8c12017 	ldw	r3,1152(sp)
   82f1c:	d8811f17 	ldw	r2,1148(sp)
   82f20:	da000404 	addi	r8,sp,16
   82f24:	b47fed16 	blt	r22,r17,82edc <_gp+0xfffe8ae8>
   82f28:	dc013c17 	ldw	r16,1264(sp)
   82f2c:	e009883a 	mov	r4,fp
   82f30:	8839883a 	mov	fp,r17
   82f34:	2023883a 	mov	r17,r4
   82f38:	d9413617 	ldw	r5,1240(sp)
   82f3c:	e0c7883a 	add	r3,fp,r3
   82f40:	10800044 	addi	r2,r2,1
   82f44:	41400015 	stw	r5,0(r8)
   82f48:	47000115 	stw	fp,4(r8)
   82f4c:	d8c12015 	stw	r3,1152(sp)
   82f50:	d8811f15 	stw	r2,1148(sp)
   82f54:	010001c4 	movi	r4,7
   82f58:	20836b16 	blt	r4,r2,83d08 <___vfprintf_internal_r+0x1470>
   82f5c:	d8812787 	ldb	r2,1182(sp)
   82f60:	42000204 	addi	r8,r8,8
   82f64:	10000c26 	beq	r2,zero,82f98 <___vfprintf_internal_r+0x700>
   82f68:	d8811f17 	ldw	r2,1148(sp)
   82f6c:	d9012784 	addi	r4,sp,1182
   82f70:	18c00044 	addi	r3,r3,1
   82f74:	10800044 	addi	r2,r2,1
   82f78:	41000015 	stw	r4,0(r8)
   82f7c:	01000044 	movi	r4,1
   82f80:	41000115 	stw	r4,4(r8)
   82f84:	d8c12015 	stw	r3,1152(sp)
   82f88:	d8811f15 	stw	r2,1148(sp)
   82f8c:	010001c4 	movi	r4,7
   82f90:	2082ef16 	blt	r4,r2,83b50 <___vfprintf_internal_r+0x12b8>
   82f94:	42000204 	addi	r8,r8,8
   82f98:	d8812d17 	ldw	r2,1204(sp)
   82f9c:	10000c26 	beq	r2,zero,82fd0 <___vfprintf_internal_r+0x738>
   82fa0:	d8811f17 	ldw	r2,1148(sp)
   82fa4:	d9012704 	addi	r4,sp,1180
   82fa8:	18c00084 	addi	r3,r3,2
   82fac:	10800044 	addi	r2,r2,1
   82fb0:	41000015 	stw	r4,0(r8)
   82fb4:	01000084 	movi	r4,2
   82fb8:	41000115 	stw	r4,4(r8)
   82fbc:	d8c12015 	stw	r3,1152(sp)
   82fc0:	d8811f15 	stw	r2,1148(sp)
   82fc4:	010001c4 	movi	r4,7
   82fc8:	2082e916 	blt	r4,r2,83b70 <___vfprintf_internal_r+0x12d8>
   82fcc:	42000204 	addi	r8,r8,8
   82fd0:	d9013217 	ldw	r4,1224(sp)
   82fd4:	00802004 	movi	r2,128
   82fd8:	20823226 	beq	r4,r2,838a4 <___vfprintf_internal_r+0x100c>
   82fdc:	d9012e17 	ldw	r4,1208(sp)
   82fe0:	a129c83a 	sub	r20,r20,r4
   82fe4:	05002d0e 	bge	zero,r20,8309c <___vfprintf_internal_r+0x804>
   82fe8:	05800404 	movi	r22,16
   82fec:	d8811f17 	ldw	r2,1148(sp)
   82ff0:	05400274 	movhi	r21,9
   82ff4:	ad41e884 	addi	r21,r21,1954
   82ff8:	b5001f0e 	bge	r22,r20,83078 <___vfprintf_internal_r+0x7e0>
   82ffc:	8809883a 	mov	r4,r17
   83000:	dc012d15 	stw	r16,1204(sp)
   83004:	a023883a 	mov	r17,r20
   83008:	070001c4 	movi	fp,7
   8300c:	dc012c17 	ldw	r16,1200(sp)
   83010:	2029883a 	mov	r20,r4
   83014:	00000306 	br	83024 <___vfprintf_internal_r+0x78c>
   83018:	8c7ffc04 	addi	r17,r17,-16
   8301c:	42000204 	addi	r8,r8,8
   83020:	b440110e 	bge	r22,r17,83068 <___vfprintf_internal_r+0x7d0>
   83024:	18c00404 	addi	r3,r3,16
   83028:	10800044 	addi	r2,r2,1
   8302c:	45c00015 	stw	r23,0(r8)
   83030:	45800115 	stw	r22,4(r8)
   83034:	d8c12015 	stw	r3,1152(sp)
   83038:	d8811f15 	stw	r2,1148(sp)
   8303c:	e0bff60e 	bge	fp,r2,83018 <_gp+0xfffe8c24>
   83040:	8009883a 	mov	r4,r16
   83044:	980b883a 	mov	r5,r19
   83048:	d9811e04 	addi	r6,sp,1144
   8304c:	0089c000 	call	89c00 <__sprint_r>
   83050:	103f2d1e 	bne	r2,zero,82d08 <_gp+0xfffe8914>
   83054:	8c7ffc04 	addi	r17,r17,-16
   83058:	d8c12017 	ldw	r3,1152(sp)
   8305c:	d8811f17 	ldw	r2,1148(sp)
   83060:	da000404 	addi	r8,sp,16
   83064:	b47fef16 	blt	r22,r17,83024 <_gp+0xfffe8c30>
   83068:	dc012d17 	ldw	r16,1204(sp)
   8306c:	a009883a 	mov	r4,r20
   83070:	8829883a 	mov	r20,r17
   83074:	2023883a 	mov	r17,r4
   83078:	1d07883a 	add	r3,r3,r20
   8307c:	10800044 	addi	r2,r2,1
   83080:	45400015 	stw	r21,0(r8)
   83084:	45000115 	stw	r20,4(r8)
   83088:	d8c12015 	stw	r3,1152(sp)
   8308c:	d8811f15 	stw	r2,1148(sp)
   83090:	010001c4 	movi	r4,7
   83094:	2082a616 	blt	r4,r2,83b30 <___vfprintf_internal_r+0x1298>
   83098:	42000204 	addi	r8,r8,8
   8309c:	d9412a17 	ldw	r5,1192(sp)
   830a0:	2880400c 	andi	r2,r5,256
   830a4:	1001b51e 	bne	r2,zero,8377c <___vfprintf_internal_r+0xee4>
   830a8:	d8812e17 	ldw	r2,1208(sp)
   830ac:	d9012e17 	ldw	r4,1208(sp)
   830b0:	44000015 	stw	r16,0(r8)
   830b4:	1887883a 	add	r3,r3,r2
   830b8:	d8811f17 	ldw	r2,1148(sp)
   830bc:	10800044 	addi	r2,r2,1
   830c0:	41000115 	stw	r4,4(r8)
   830c4:	d8c12015 	stw	r3,1152(sp)
   830c8:	d8811f15 	stw	r2,1148(sp)
   830cc:	010001c4 	movi	r4,7
   830d0:	20818b16 	blt	r4,r2,83700 <___vfprintf_internal_r+0xe68>
   830d4:	42000204 	addi	r8,r8,8
   830d8:	d9412a17 	ldw	r5,1192(sp)
   830dc:	2880010c 	andi	r2,r5,4
   830e0:	10003226 	beq	r2,zero,831ac <___vfprintf_internal_r+0x914>
   830e4:	d8813017 	ldw	r2,1216(sp)
   830e8:	d9012b17 	ldw	r4,1196(sp)
   830ec:	1121c83a 	sub	r16,r2,r4
   830f0:	04002e0e 	bge	zero,r16,831ac <___vfprintf_internal_r+0x914>
   830f4:	04800404 	movi	r18,16
   830f8:	d8811f17 	ldw	r2,1148(sp)
   830fc:	9405240e 	bge	r18,r16,84590 <___vfprintf_internal_r+0x1cf8>
   83100:	01000274 	movhi	r4,9
   83104:	2101ec84 	addi	r4,r4,1970
   83108:	d9013615 	stw	r4,1240(sp)
   8310c:	050001c4 	movi	r20,7
   83110:	dd412c17 	ldw	r21,1200(sp)
   83114:	00000306 	br	83124 <___vfprintf_internal_r+0x88c>
   83118:	843ffc04 	addi	r16,r16,-16
   8311c:	42000204 	addi	r8,r8,8
   83120:	9400130e 	bge	r18,r16,83170 <___vfprintf_internal_r+0x8d8>
   83124:	18c00404 	addi	r3,r3,16
   83128:	10800044 	addi	r2,r2,1
   8312c:	01400274 	movhi	r5,9
   83130:	2941ec84 	addi	r5,r5,1970
   83134:	41400015 	stw	r5,0(r8)
   83138:	44800115 	stw	r18,4(r8)
   8313c:	d8c12015 	stw	r3,1152(sp)
   83140:	d8811f15 	stw	r2,1148(sp)
   83144:	a0bff40e 	bge	r20,r2,83118 <_gp+0xfffe8d24>
   83148:	a809883a 	mov	r4,r21
   8314c:	980b883a 	mov	r5,r19
   83150:	d9811e04 	addi	r6,sp,1144
   83154:	0089c000 	call	89c00 <__sprint_r>
   83158:	103eeb1e 	bne	r2,zero,82d08 <_gp+0xfffe8914>
   8315c:	843ffc04 	addi	r16,r16,-16
   83160:	d8c12017 	ldw	r3,1152(sp)
   83164:	d8811f17 	ldw	r2,1148(sp)
   83168:	da000404 	addi	r8,sp,16
   8316c:	943fed16 	blt	r18,r16,83124 <_gp+0xfffe8d30>
   83170:	d9013617 	ldw	r4,1240(sp)
   83174:	1c07883a 	add	r3,r3,r16
   83178:	10800044 	addi	r2,r2,1
   8317c:	41000015 	stw	r4,0(r8)
   83180:	44000115 	stw	r16,4(r8)
   83184:	d8c12015 	stw	r3,1152(sp)
   83188:	d8811f15 	stw	r2,1148(sp)
   8318c:	010001c4 	movi	r4,7
   83190:	2080060e 	bge	r4,r2,831ac <___vfprintf_internal_r+0x914>
   83194:	d9012c17 	ldw	r4,1200(sp)
   83198:	980b883a 	mov	r5,r19
   8319c:	d9811e04 	addi	r6,sp,1144
   831a0:	0089c000 	call	89c00 <__sprint_r>
   831a4:	103ed81e 	bne	r2,zero,82d08 <_gp+0xfffe8914>
   831a8:	d8c12017 	ldw	r3,1152(sp)
   831ac:	d8812b17 	ldw	r2,1196(sp)
   831b0:	d9413017 	ldw	r5,1216(sp)
   831b4:	1140010e 	bge	r2,r5,831bc <___vfprintf_internal_r+0x924>
   831b8:	2805883a 	mov	r2,r5
   831bc:	d9013117 	ldw	r4,1220(sp)
   831c0:	2089883a 	add	r4,r4,r2
   831c4:	d9013115 	stw	r4,1220(sp)
   831c8:	1802381e 	bne	r3,zero,83aac <___vfprintf_internal_r+0x1214>
   831cc:	88800007 	ldb	r2,0(r17)
   831d0:	d8011f15 	stw	zero,1148(sp)
   831d4:	da000404 	addi	r8,sp,16
   831d8:	103def1e 	bne	r2,zero,82998 <_gp+0xfffe85a4>
   831dc:	8821883a 	mov	r16,r17
   831e0:	003e0506 	br	829f8 <_gp+0xfffe8604>
   831e4:	1829883a 	mov	r20,r3
   831e8:	d8c12a17 	ldw	r3,1192(sp)
   831ec:	dd812785 	stb	r22,1182(sp)
   831f0:	e011883a 	mov	r8,fp
   831f4:	1880020c 	andi	r2,r3,8
   831f8:	1003c926 	beq	r2,zero,84120 <___vfprintf_internal_r+0x1888>
   831fc:	d9012f17 	ldw	r4,1212(sp)
   83200:	d9412f17 	ldw	r5,1212(sp)
   83204:	d8812f17 	ldw	r2,1212(sp)
   83208:	21000017 	ldw	r4,0(r4)
   8320c:	29400117 	ldw	r5,4(r5)
   83210:	10800204 	addi	r2,r2,8
   83214:	d9013715 	stw	r4,1244(sp)
   83218:	d9413915 	stw	r5,1252(sp)
   8321c:	d8812f15 	stw	r2,1212(sp)
   83220:	d9013717 	ldw	r4,1244(sp)
   83224:	d9413917 	ldw	r5,1252(sp)
   83228:	da013f15 	stw	r8,1276(sp)
   8322c:	04000044 	movi	r16,1
   83230:	00898580 	call	89858 <__fpclassifyd>
   83234:	da013f17 	ldw	r8,1276(sp)
   83238:	d9013717 	ldw	r4,1244(sp)
   8323c:	d9413917 	ldw	r5,1252(sp)
   83240:	1403571e 	bne	r2,r16,83fa0 <___vfprintf_internal_r+0x1708>
   83244:	000d883a 	mov	r6,zero
   83248:	000f883a 	mov	r7,zero
   8324c:	008d1040 	call	8d104 <__ledf2>
   83250:	da013f17 	ldw	r8,1276(sp)
   83254:	1004f416 	blt	r2,zero,84628 <___vfprintf_internal_r+0x1d90>
   83258:	df012783 	ldbu	fp,1182(sp)
   8325c:	008011c4 	movi	r2,71
   83260:	14847a0e 	bge	r2,r18,8444c <___vfprintf_internal_r+0x1bb4>
   83264:	04000274 	movhi	r16,9
   83268:	8401d904 	addi	r16,r16,1892
   8326c:	d9012a17 	ldw	r4,1192(sp)
   83270:	00bfdfc4 	movi	r2,-129
   83274:	00c000c4 	movi	r3,3
   83278:	2088703a 	and	r4,r4,r2
   8327c:	d8c12b15 	stw	r3,1196(sp)
   83280:	d9012a15 	stw	r4,1192(sp)
   83284:	d8c12e15 	stw	r3,1208(sp)
   83288:	0029883a 	mov	r20,zero
   8328c:	d8013315 	stw	zero,1228(sp)
   83290:	003eea06 	br	82e3c <_gp+0xfffe8a48>
   83294:	953ff404 	addi	r20,r18,-48
   83298:	d8013015 	stw	zero,1216(sp)
   8329c:	0009883a 	mov	r4,zero
   832a0:	1825883a 	mov	r18,r3
   832a4:	01400284 	movi	r5,10
   832a8:	00825800 	call	82580 <__mulsi3>
   832ac:	88c00007 	ldb	r3,0(r17)
   832b0:	1509883a 	add	r4,r2,r20
   832b4:	8c400044 	addi	r17,r17,1
   832b8:	1d3ff404 	addi	r20,r3,-48
   832bc:	8805883a 	mov	r2,r17
   832c0:	ad3ff82e 	bgeu	r21,r20,832a4 <_gp+0xfffe8eb0>
   832c4:	d9013015 	stw	r4,1216(sp)
   832c8:	9009883a 	mov	r4,r18
   832cc:	1023883a 	mov	r17,r2
   832d0:	1825883a 	mov	r18,r3
   832d4:	2007883a 	mov	r3,r4
   832d8:	003dd506 	br	82a30 <_gp+0xfffe863c>
   832dc:	d8812a17 	ldw	r2,1192(sp)
   832e0:	10800214 	ori	r2,r2,8
   832e4:	d8812a15 	stw	r2,1192(sp)
   832e8:	8c800007 	ldb	r18,0(r17)
   832ec:	003dcf06 	br	82a2c <_gp+0xfffe8638>
   832f0:	d9012a17 	ldw	r4,1192(sp)
   832f4:	e011883a 	mov	r8,fp
   832f8:	1829883a 	mov	r20,r3
   832fc:	21000414 	ori	r4,r4,16
   83300:	d9012a15 	stw	r4,1192(sp)
   83304:	d9412a17 	ldw	r5,1192(sp)
   83308:	2880080c 	andi	r2,r5,32
   8330c:	1000cf26 	beq	r2,zero,8364c <___vfprintf_internal_r+0xdb4>
   83310:	d8812f17 	ldw	r2,1212(sp)
   83314:	0007883a 	mov	r3,zero
   83318:	15400017 	ldw	r21,0(r2)
   8331c:	15800117 	ldw	r22,4(r2)
   83320:	10800204 	addi	r2,r2,8
   83324:	d8812f15 	stw	r2,1212(sp)
   83328:	ad84b03a 	or	r2,r21,r22
   8332c:	d8012785 	stb	zero,1182(sp)
   83330:	0039883a 	mov	fp,zero
   83334:	003eab06 	br	82de4 <_gp+0xfffe89f0>
   83338:	d9012a17 	ldw	r4,1192(sp)
   8333c:	e011883a 	mov	r8,fp
   83340:	1829883a 	mov	r20,r3
   83344:	21000414 	ori	r4,r4,16
   83348:	d9012a15 	stw	r4,1192(sp)
   8334c:	d9412a17 	ldw	r5,1192(sp)
   83350:	2880080c 	andi	r2,r5,32
   83354:	1000cd26 	beq	r2,zero,8368c <___vfprintf_internal_r+0xdf4>
   83358:	d8812f17 	ldw	r2,1212(sp)
   8335c:	00c00044 	movi	r3,1
   83360:	15400017 	ldw	r21,0(r2)
   83364:	15800117 	ldw	r22,4(r2)
   83368:	10800204 	addi	r2,r2,8
   8336c:	d8812f15 	stw	r2,1212(sp)
   83370:	ad84b03a 	or	r2,r21,r22
   83374:	003fed06 	br	8332c <_gp+0xfffe8f38>
   83378:	d9012a17 	ldw	r4,1192(sp)
   8337c:	dd812785 	stb	r22,1182(sp)
   83380:	e011883a 	mov	r8,fp
   83384:	2080080c 	andi	r2,r4,32
   83388:	10039226 	beq	r2,zero,841d4 <___vfprintf_internal_r+0x193c>
   8338c:	d9412f17 	ldw	r5,1212(sp)
   83390:	d9013117 	ldw	r4,1220(sp)
   83394:	28800017 	ldw	r2,0(r5)
   83398:	2007d7fa 	srai	r3,r4,31
   8339c:	29400104 	addi	r5,r5,4
   833a0:	d9412f15 	stw	r5,1212(sp)
   833a4:	11000015 	stw	r4,0(r2)
   833a8:	10c00115 	stw	r3,4(r2)
   833ac:	003d7806 	br	82990 <_gp+0xfffe859c>
   833b0:	d8c12f17 	ldw	r3,1212(sp)
   833b4:	d9012f17 	ldw	r4,1212(sp)
   833b8:	e011883a 	mov	r8,fp
   833bc:	18800017 	ldw	r2,0(r3)
   833c0:	21000104 	addi	r4,r4,4
   833c4:	00c00044 	movi	r3,1
   833c8:	d8c12b15 	stw	r3,1196(sp)
   833cc:	d8012785 	stb	zero,1182(sp)
   833d0:	d8810405 	stb	r2,1040(sp)
   833d4:	d9012f15 	stw	r4,1212(sp)
   833d8:	d8c12e15 	stw	r3,1208(sp)
   833dc:	0029883a 	mov	r20,zero
   833e0:	d8013315 	stw	zero,1228(sp)
   833e4:	dc010404 	addi	r16,sp,1040
   833e8:	0005883a 	mov	r2,zero
   833ec:	003e9a06 	br	82e58 <_gp+0xfffe8a64>
   833f0:	d9412a17 	ldw	r5,1192(sp)
   833f4:	01000274 	movhi	r4,9
   833f8:	2101e104 	addi	r4,r4,1924
   833fc:	dd812785 	stb	r22,1182(sp)
   83400:	d9013b15 	stw	r4,1260(sp)
   83404:	2880080c 	andi	r2,r5,32
   83408:	e011883a 	mov	r8,fp
   8340c:	1829883a 	mov	r20,r3
   83410:	10002f26 	beq	r2,zero,834d0 <___vfprintf_internal_r+0xc38>
   83414:	d8812f17 	ldw	r2,1212(sp)
   83418:	15400017 	ldw	r21,0(r2)
   8341c:	15800117 	ldw	r22,4(r2)
   83420:	10800204 	addi	r2,r2,8
   83424:	d8812f15 	stw	r2,1212(sp)
   83428:	d9012a17 	ldw	r4,1192(sp)
   8342c:	2080004c 	andi	r2,r4,1
   83430:	10025f26 	beq	r2,zero,83db0 <___vfprintf_internal_r+0x1518>
   83434:	ad84b03a 	or	r2,r21,r22
   83438:	10034e26 	beq	r2,zero,84174 <___vfprintf_internal_r+0x18dc>
   8343c:	00c00c04 	movi	r3,48
   83440:	21000094 	ori	r4,r4,2
   83444:	d8c12705 	stb	r3,1180(sp)
   83448:	dc812745 	stb	r18,1181(sp)
   8344c:	d9012a15 	stw	r4,1192(sp)
   83450:	00c00084 	movi	r3,2
   83454:	003fb506 	br	8332c <_gp+0xfffe8f38>
   83458:	b0803fcc 	andi	r2,r22,255
   8345c:	1080201c 	xori	r2,r2,128
   83460:	10bfe004 	addi	r2,r2,-128
   83464:	1003501e 	bne	r2,zero,841a8 <___vfprintf_internal_r+0x1910>
   83468:	05800804 	movi	r22,32
   8346c:	8c800007 	ldb	r18,0(r17)
   83470:	003d6e06 	br	82a2c <_gp+0xfffe8638>
   83474:	d9012a17 	ldw	r4,1192(sp)
   83478:	21000054 	ori	r4,r4,1
   8347c:	d9012a15 	stw	r4,1192(sp)
   83480:	8c800007 	ldb	r18,0(r17)
   83484:	003d6906 	br	82a2c <_gp+0xfffe8638>
   83488:	d9412f17 	ldw	r5,1212(sp)
   8348c:	d9012f17 	ldw	r4,1212(sp)
   83490:	29400017 	ldw	r5,0(r5)
   83494:	20800104 	addi	r2,r4,4
   83498:	d9413015 	stw	r5,1216(sp)
   8349c:	283dc616 	blt	r5,zero,82bb8 <_gp+0xfffe87c4>
   834a0:	d8812f15 	stw	r2,1212(sp)
   834a4:	8c800007 	ldb	r18,0(r17)
   834a8:	003d6006 	br	82a2c <_gp+0xfffe8638>
   834ac:	d9412a17 	ldw	r5,1192(sp)
   834b0:	00800274 	movhi	r2,9
   834b4:	1081dc04 	addi	r2,r2,1904
   834b8:	d8813b15 	stw	r2,1260(sp)
   834bc:	dd812785 	stb	r22,1182(sp)
   834c0:	2880080c 	andi	r2,r5,32
   834c4:	e011883a 	mov	r8,fp
   834c8:	1829883a 	mov	r20,r3
   834cc:	103fd11e 	bne	r2,zero,83414 <_gp+0xfffe9020>
   834d0:	d8c12a17 	ldw	r3,1192(sp)
   834d4:	1880040c 	andi	r2,r3,16
   834d8:	10033526 	beq	r2,zero,841b0 <___vfprintf_internal_r+0x1918>
   834dc:	d9012f17 	ldw	r4,1212(sp)
   834e0:	002d883a 	mov	r22,zero
   834e4:	25400017 	ldw	r21,0(r4)
   834e8:	21000104 	addi	r4,r4,4
   834ec:	d9012f15 	stw	r4,1212(sp)
   834f0:	003fcd06 	br	83428 <_gp+0xfffe9034>
   834f4:	d9012a17 	ldw	r4,1192(sp)
   834f8:	21001014 	ori	r4,r4,64
   834fc:	d9012a15 	stw	r4,1192(sp)
   83500:	8c800007 	ldb	r18,0(r17)
   83504:	003d4906 	br	82a2c <_gp+0xfffe8638>
   83508:	8c800007 	ldb	r18,0(r17)
   8350c:	01401b04 	movi	r5,108
   83510:	8805883a 	mov	r2,r17
   83514:	9143db26 	beq	r18,r5,84484 <___vfprintf_internal_r+0x1bec>
   83518:	d9412a17 	ldw	r5,1192(sp)
   8351c:	29400414 	ori	r5,r5,16
   83520:	d9412a15 	stw	r5,1192(sp)
   83524:	003d4106 	br	82a2c <_gp+0xfffe8638>
   83528:	1829883a 	mov	r20,r3
   8352c:	d8c12a17 	ldw	r3,1192(sp)
   83530:	dd812785 	stb	r22,1182(sp)
   83534:	e011883a 	mov	r8,fp
   83538:	1880080c 	andi	r2,r3,32
   8353c:	103e1f1e 	bne	r2,zero,82dbc <_gp+0xfffe89c8>
   83540:	d9412a17 	ldw	r5,1192(sp)
   83544:	2880040c 	andi	r2,r5,16
   83548:	10032f26 	beq	r2,zero,84208 <___vfprintf_internal_r+0x1970>
   8354c:	d8812f17 	ldw	r2,1212(sp)
   83550:	15400017 	ldw	r21,0(r2)
   83554:	10800104 	addi	r2,r2,4
   83558:	d8812f15 	stw	r2,1212(sp)
   8355c:	a82dd7fa 	srai	r22,r21,31
   83560:	b005883a 	mov	r2,r22
   83564:	003e1b06 	br	82dd4 <_gp+0xfffe89e0>
   83568:	d8812a17 	ldw	r2,1192(sp)
   8356c:	10800814 	ori	r2,r2,32
   83570:	d8812a15 	stw	r2,1192(sp)
   83574:	8c800007 	ldb	r18,0(r17)
   83578:	003d2c06 	br	82a2c <_gp+0xfffe8638>
   8357c:	1829883a 	mov	r20,r3
   83580:	d8c12f17 	ldw	r3,1212(sp)
   83584:	d8012785 	stb	zero,1182(sp)
   83588:	e011883a 	mov	r8,fp
   8358c:	1c000017 	ldw	r16,0(r3)
   83590:	1d400104 	addi	r21,r3,4
   83594:	80040226 	beq	r16,zero,845a0 <___vfprintf_internal_r+0x1d08>
   83598:	8009883a 	mov	r4,r16
   8359c:	a003c716 	blt	r20,zero,844bc <___vfprintf_internal_r+0x1c24>
   835a0:	000b883a 	mov	r5,zero
   835a4:	a00d883a 	mov	r6,r20
   835a8:	df013f15 	stw	fp,1276(sp)
   835ac:	0087e280 	call	87e28 <memchr>
   835b0:	da013f17 	ldw	r8,1276(sp)
   835b4:	10044326 	beq	r2,zero,846c4 <___vfprintf_internal_r+0x1e2c>
   835b8:	1405c83a 	sub	r2,r2,r16
   835bc:	d8812e15 	stw	r2,1208(sp)
   835c0:	a0837c16 	blt	r20,r2,843b4 <___vfprintf_internal_r+0x1b1c>
   835c4:	d8812e17 	ldw	r2,1208(sp)
   835c8:	1003c116 	blt	r2,zero,844d0 <___vfprintf_internal_r+0x1c38>
   835cc:	df012783 	ldbu	fp,1182(sp)
   835d0:	d8812b15 	stw	r2,1196(sp)
   835d4:	dd412f15 	stw	r21,1212(sp)
   835d8:	0029883a 	mov	r20,zero
   835dc:	d8013315 	stw	zero,1228(sp)
   835e0:	003e1606 	br	82e3c <_gp+0xfffe8a48>
   835e4:	d9012f17 	ldw	r4,1212(sp)
   835e8:	d9412a17 	ldw	r5,1192(sp)
   835ec:	00800c04 	movi	r2,48
   835f0:	25400017 	ldw	r21,0(r4)
   835f4:	d8812705 	stb	r2,1180(sp)
   835f8:	00801e04 	movi	r2,120
   835fc:	29400094 	ori	r5,r5,2
   83600:	d8812745 	stb	r2,1181(sp)
   83604:	21000104 	addi	r4,r4,4
   83608:	00800274 	movhi	r2,9
   8360c:	1081e104 	addi	r2,r2,1924
   83610:	1829883a 	mov	r20,r3
   83614:	d8813b15 	stw	r2,1260(sp)
   83618:	e011883a 	mov	r8,fp
   8361c:	002d883a 	mov	r22,zero
   83620:	d9412a15 	stw	r5,1192(sp)
   83624:	d9012f15 	stw	r4,1212(sp)
   83628:	00c00084 	movi	r3,2
   8362c:	04801e04 	movi	r18,120
   83630:	a805883a 	mov	r2,r21
   83634:	003f3d06 	br	8332c <_gp+0xfffe8f38>
   83638:	d9412a17 	ldw	r5,1192(sp)
   8363c:	e011883a 	mov	r8,fp
   83640:	1829883a 	mov	r20,r3
   83644:	2880080c 	andi	r2,r5,32
   83648:	103f311e 	bne	r2,zero,83310 <_gp+0xfffe8f1c>
   8364c:	d8c12a17 	ldw	r3,1192(sp)
   83650:	1880040c 	andi	r2,r3,16
   83654:	1002c926 	beq	r2,zero,8417c <___vfprintf_internal_r+0x18e4>
   83658:	d9012f17 	ldw	r4,1212(sp)
   8365c:	002d883a 	mov	r22,zero
   83660:	0007883a 	mov	r3,zero
   83664:	25400017 	ldw	r21,0(r4)
   83668:	21000104 	addi	r4,r4,4
   8366c:	d9012f15 	stw	r4,1212(sp)
   83670:	a805883a 	mov	r2,r21
   83674:	003f2d06 	br	8332c <_gp+0xfffe8f38>
   83678:	d9412a17 	ldw	r5,1192(sp)
   8367c:	e011883a 	mov	r8,fp
   83680:	1829883a 	mov	r20,r3
   83684:	2880080c 	andi	r2,r5,32
   83688:	103f331e 	bne	r2,zero,83358 <_gp+0xfffe8f64>
   8368c:	d8c12a17 	ldw	r3,1192(sp)
   83690:	1880040c 	andi	r2,r3,16
   83694:	1002ac26 	beq	r2,zero,84148 <___vfprintf_internal_r+0x18b0>
   83698:	d9012f17 	ldw	r4,1212(sp)
   8369c:	002d883a 	mov	r22,zero
   836a0:	00c00044 	movi	r3,1
   836a4:	25400017 	ldw	r21,0(r4)
   836a8:	21000104 	addi	r4,r4,4
   836ac:	d9012f15 	stw	r4,1212(sp)
   836b0:	a805883a 	mov	r2,r21
   836b4:	003f1d06 	br	8332c <_gp+0xfffe8f38>
   836b8:	dd812785 	stb	r22,1182(sp)
   836bc:	e011883a 	mov	r8,fp
   836c0:	903d8b26 	beq	r18,zero,82cf0 <_gp+0xfffe88fc>
   836c4:	00c00044 	movi	r3,1
   836c8:	d8c12b15 	stw	r3,1196(sp)
   836cc:	dc810405 	stb	r18,1040(sp)
   836d0:	d8012785 	stb	zero,1182(sp)
   836d4:	003f4006 	br	833d8 <_gp+0xfffe8fe4>
   836d8:	d8c12017 	ldw	r3,1152(sp)
   836dc:	003e2106 	br	82f64 <_gp+0xfffe8b70>
   836e0:	45400015 	stw	r21,0(r8)
   836e4:	44000115 	stw	r16,4(r8)
   836e8:	1c07883a 	add	r3,r3,r16
   836ec:	10800044 	addi	r2,r2,1
   836f0:	d8c12015 	stw	r3,1152(sp)
   836f4:	d8811f15 	stw	r2,1148(sp)
   836f8:	010001c4 	movi	r4,7
   836fc:	20be750e 	bge	r4,r2,830d4 <_gp+0xfffe8ce0>
   83700:	d9012c17 	ldw	r4,1200(sp)
   83704:	980b883a 	mov	r5,r19
   83708:	d9811e04 	addi	r6,sp,1144
   8370c:	0089c000 	call	89c00 <__sprint_r>
   83710:	103d7d1e 	bne	r2,zero,82d08 <_gp+0xfffe8914>
   83714:	d8c12017 	ldw	r3,1152(sp)
   83718:	da000404 	addi	r8,sp,16
   8371c:	003e6e06 	br	830d8 <_gp+0xfffe8ce4>
   83720:	18803fcc 	andi	r2,r3,255
   83724:	00c00044 	movi	r3,1
   83728:	10c11926 	beq	r2,r3,83b90 <___vfprintf_internal_r+0x12f8>
   8372c:	00c00084 	movi	r3,2
   83730:	10c0e41e 	bne	r2,r3,83ac4 <___vfprintf_internal_r+0x122c>
   83734:	d9413b17 	ldw	r5,1260(sp)
   83738:	d8c10dc4 	addi	r3,sp,1079
   8373c:	a88003cc 	andi	r2,r21,15
   83740:	b008973a 	slli	r4,r22,28
   83744:	2885883a 	add	r2,r5,r2
   83748:	a82ad13a 	srli	r21,r21,4
   8374c:	10800003 	ldbu	r2,0(r2)
   83750:	b02cd13a 	srli	r22,r22,4
   83754:	256ab03a 	or	r21,r4,r21
   83758:	18800005 	stb	r2,0(r3)
   8375c:	ad84b03a 	or	r2,r21,r22
   83760:	1821883a 	mov	r16,r3
   83764:	18ffffc4 	addi	r3,r3,-1
   83768:	103ff41e 	bne	r2,zero,8373c <_gp+0xfffe9348>
   8376c:	d8c12917 	ldw	r3,1188(sp)
   83770:	1c07c83a 	sub	r3,r3,r16
   83774:	d8c12e15 	stw	r3,1208(sp)
   83778:	003dab06 	br	82e28 <_gp+0xfffe8a34>
   8377c:	00801944 	movi	r2,101
   83780:	14807e0e 	bge	r2,r18,8397c <___vfprintf_internal_r+0x10e4>
   83784:	d9013717 	ldw	r4,1244(sp)
   83788:	d9413917 	ldw	r5,1252(sp)
   8378c:	000d883a 	mov	r6,zero
   83790:	000f883a 	mov	r7,zero
   83794:	d8c13e15 	stw	r3,1272(sp)
   83798:	da013f15 	stw	r8,1276(sp)
   8379c:	008cfa80 	call	8cfa8 <__eqdf2>
   837a0:	d8c13e17 	ldw	r3,1272(sp)
   837a4:	da013f17 	ldw	r8,1276(sp)
   837a8:	1001211e 	bne	r2,zero,83c30 <___vfprintf_internal_r+0x1398>
   837ac:	d8811f17 	ldw	r2,1148(sp)
   837b0:	01000044 	movi	r4,1
   837b4:	18c00044 	addi	r3,r3,1
   837b8:	10800044 	addi	r2,r2,1
   837bc:	01400274 	movhi	r5,9
   837c0:	2941e804 	addi	r5,r5,1952
   837c4:	41000115 	stw	r4,4(r8)
   837c8:	41400015 	stw	r5,0(r8)
   837cc:	d8c12015 	stw	r3,1152(sp)
   837d0:	d8811f15 	stw	r2,1148(sp)
   837d4:	010001c4 	movi	r4,7
   837d8:	2082a316 	blt	r4,r2,84268 <___vfprintf_internal_r+0x19d0>
   837dc:	42000204 	addi	r8,r8,8
   837e0:	d8812617 	ldw	r2,1176(sp)
   837e4:	d9013517 	ldw	r4,1236(sp)
   837e8:	11000316 	blt	r2,r4,837f8 <___vfprintf_internal_r+0xf60>
   837ec:	d9412a17 	ldw	r5,1192(sp)
   837f0:	2880004c 	andi	r2,r5,1
   837f4:	103e3826 	beq	r2,zero,830d8 <_gp+0xfffe8ce4>
   837f8:	d8813817 	ldw	r2,1248(sp)
   837fc:	d9013417 	ldw	r4,1232(sp)
   83800:	d9413817 	ldw	r5,1248(sp)
   83804:	1887883a 	add	r3,r3,r2
   83808:	d8811f17 	ldw	r2,1148(sp)
   8380c:	41000015 	stw	r4,0(r8)
   83810:	41400115 	stw	r5,4(r8)
   83814:	10800044 	addi	r2,r2,1
   83818:	d8c12015 	stw	r3,1152(sp)
   8381c:	d8811f15 	stw	r2,1148(sp)
   83820:	010001c4 	movi	r4,7
   83824:	20831d16 	blt	r4,r2,8449c <___vfprintf_internal_r+0x1c04>
   83828:	42000204 	addi	r8,r8,8
   8382c:	d8813517 	ldw	r2,1236(sp)
   83830:	143fffc4 	addi	r16,r2,-1
   83834:	043e280e 	bge	zero,r16,830d8 <_gp+0xfffe8ce4>
   83838:	04800404 	movi	r18,16
   8383c:	d8811f17 	ldw	r2,1148(sp)
   83840:	05400274 	movhi	r21,9
   83844:	ad41e884 	addi	r21,r21,1954
   83848:	943fa50e 	bge	r18,r16,836e0 <_gp+0xfffe92ec>
   8384c:	050001c4 	movi	r20,7
   83850:	dd812c17 	ldw	r22,1200(sp)
   83854:	00000306 	br	83864 <___vfprintf_internal_r+0xfcc>
   83858:	42000204 	addi	r8,r8,8
   8385c:	843ffc04 	addi	r16,r16,-16
   83860:	943f9f0e 	bge	r18,r16,836e0 <_gp+0xfffe92ec>
   83864:	18c00404 	addi	r3,r3,16
   83868:	10800044 	addi	r2,r2,1
   8386c:	45c00015 	stw	r23,0(r8)
   83870:	44800115 	stw	r18,4(r8)
   83874:	d8c12015 	stw	r3,1152(sp)
   83878:	d8811f15 	stw	r2,1148(sp)
   8387c:	a0bff60e 	bge	r20,r2,83858 <_gp+0xfffe9464>
   83880:	b009883a 	mov	r4,r22
   83884:	980b883a 	mov	r5,r19
   83888:	d9811e04 	addi	r6,sp,1144
   8388c:	0089c000 	call	89c00 <__sprint_r>
   83890:	103d1d1e 	bne	r2,zero,82d08 <_gp+0xfffe8914>
   83894:	d8c12017 	ldw	r3,1152(sp)
   83898:	d8811f17 	ldw	r2,1148(sp)
   8389c:	da000404 	addi	r8,sp,16
   838a0:	003fee06 	br	8385c <_gp+0xfffe9468>
   838a4:	d9413017 	ldw	r5,1216(sp)
   838a8:	d8812b17 	ldw	r2,1196(sp)
   838ac:	28adc83a 	sub	r22,r5,r2
   838b0:	05bdca0e 	bge	zero,r22,82fdc <_gp+0xfffe8be8>
   838b4:	07000404 	movi	fp,16
   838b8:	d8811f17 	ldw	r2,1148(sp)
   838bc:	05400274 	movhi	r21,9
   838c0:	ad41e884 	addi	r21,r21,1954
   838c4:	e580230e 	bge	fp,r22,83954 <___vfprintf_internal_r+0x10bc>
   838c8:	a809883a 	mov	r4,r21
   838cc:	dc012d15 	stw	r16,1204(sp)
   838d0:	882b883a 	mov	r21,r17
   838d4:	01c001c4 	movi	r7,7
   838d8:	b023883a 	mov	r17,r22
   838dc:	dc012c17 	ldw	r16,1200(sp)
   838e0:	202d883a 	mov	r22,r4
   838e4:	00000306 	br	838f4 <___vfprintf_internal_r+0x105c>
   838e8:	8c7ffc04 	addi	r17,r17,-16
   838ec:	42000204 	addi	r8,r8,8
   838f0:	e440130e 	bge	fp,r17,83940 <___vfprintf_internal_r+0x10a8>
   838f4:	18c00404 	addi	r3,r3,16
   838f8:	10800044 	addi	r2,r2,1
   838fc:	45c00015 	stw	r23,0(r8)
   83900:	47000115 	stw	fp,4(r8)
   83904:	d8c12015 	stw	r3,1152(sp)
   83908:	d8811f15 	stw	r2,1148(sp)
   8390c:	38bff60e 	bge	r7,r2,838e8 <_gp+0xfffe94f4>
   83910:	8009883a 	mov	r4,r16
   83914:	980b883a 	mov	r5,r19
   83918:	d9811e04 	addi	r6,sp,1144
   8391c:	d9c13e15 	stw	r7,1272(sp)
   83920:	0089c000 	call	89c00 <__sprint_r>
   83924:	d9c13e17 	ldw	r7,1272(sp)
   83928:	103cf71e 	bne	r2,zero,82d08 <_gp+0xfffe8914>
   8392c:	8c7ffc04 	addi	r17,r17,-16
   83930:	d8c12017 	ldw	r3,1152(sp)
   83934:	d8811f17 	ldw	r2,1148(sp)
   83938:	da000404 	addi	r8,sp,16
   8393c:	e47fed16 	blt	fp,r17,838f4 <_gp+0xfffe9500>
   83940:	dc012d17 	ldw	r16,1204(sp)
   83944:	b009883a 	mov	r4,r22
   83948:	882d883a 	mov	r22,r17
   8394c:	a823883a 	mov	r17,r21
   83950:	202b883a 	mov	r21,r4
   83954:	1d87883a 	add	r3,r3,r22
   83958:	10800044 	addi	r2,r2,1
   8395c:	45400015 	stw	r21,0(r8)
   83960:	45800115 	stw	r22,4(r8)
   83964:	d8c12015 	stw	r3,1152(sp)
   83968:	d8811f15 	stw	r2,1148(sp)
   8396c:	010001c4 	movi	r4,7
   83970:	20817a16 	blt	r4,r2,83f5c <___vfprintf_internal_r+0x16c4>
   83974:	42000204 	addi	r8,r8,8
   83978:	003d9806 	br	82fdc <_gp+0xfffe8be8>
   8397c:	d9013517 	ldw	r4,1236(sp)
   83980:	00800044 	movi	r2,1
   83984:	1100340e 	bge	r2,r4,83a58 <___vfprintf_internal_r+0x11c0>
   83988:	dc811f17 	ldw	r18,1148(sp)
   8398c:	00800044 	movi	r2,1
   83990:	18c00044 	addi	r3,r3,1
   83994:	94800044 	addi	r18,r18,1
   83998:	40800115 	stw	r2,4(r8)
   8399c:	44000015 	stw	r16,0(r8)
   839a0:	d8c12015 	stw	r3,1152(sp)
   839a4:	dc811f15 	stw	r18,1148(sp)
   839a8:	008001c4 	movi	r2,7
   839ac:	14814e16 	blt	r2,r18,83ee8 <___vfprintf_internal_r+0x1650>
   839b0:	42000204 	addi	r8,r8,8
   839b4:	d8813817 	ldw	r2,1248(sp)
   839b8:	94800044 	addi	r18,r18,1
   839bc:	dc811f15 	stw	r18,1148(sp)
   839c0:	18ad883a 	add	r22,r3,r2
   839c4:	d8c13417 	ldw	r3,1232(sp)
   839c8:	40800115 	stw	r2,4(r8)
   839cc:	dd812015 	stw	r22,1152(sp)
   839d0:	40c00015 	stw	r3,0(r8)
   839d4:	008001c4 	movi	r2,7
   839d8:	14814c16 	blt	r2,r18,83f0c <___vfprintf_internal_r+0x1674>
   839dc:	45000204 	addi	r20,r8,8
   839e0:	d9013717 	ldw	r4,1244(sp)
   839e4:	d9413917 	ldw	r5,1252(sp)
   839e8:	000d883a 	mov	r6,zero
   839ec:	000f883a 	mov	r7,zero
   839f0:	008cfa80 	call	8cfa8 <__eqdf2>
   839f4:	1000cd26 	beq	r2,zero,83d2c <___vfprintf_internal_r+0x1494>
   839f8:	d9013517 	ldw	r4,1236(sp)
   839fc:	84000044 	addi	r16,r16,1
   83a00:	94800044 	addi	r18,r18,1
   83a04:	20bfffc4 	addi	r2,r4,-1
   83a08:	b0ad883a 	add	r22,r22,r2
   83a0c:	a0800115 	stw	r2,4(r20)
   83a10:	a4000015 	stw	r16,0(r20)
   83a14:	dd812015 	stw	r22,1152(sp)
   83a18:	dc811f15 	stw	r18,1148(sp)
   83a1c:	008001c4 	movi	r2,7
   83a20:	14801916 	blt	r2,r18,83a88 <___vfprintf_internal_r+0x11f0>
   83a24:	a5000204 	addi	r20,r20,8
   83a28:	d9013a17 	ldw	r4,1256(sp)
   83a2c:	d88122c4 	addi	r2,sp,1163
   83a30:	94800044 	addi	r18,r18,1
   83a34:	2587883a 	add	r3,r4,r22
   83a38:	a0800015 	stw	r2,0(r20)
   83a3c:	a1000115 	stw	r4,4(r20)
   83a40:	d8c12015 	stw	r3,1152(sp)
   83a44:	dc811f15 	stw	r18,1148(sp)
   83a48:	008001c4 	movi	r2,7
   83a4c:	14bf2c16 	blt	r2,r18,83700 <_gp+0xfffe930c>
   83a50:	a2000204 	addi	r8,r20,8
   83a54:	003da006 	br	830d8 <_gp+0xfffe8ce4>
   83a58:	d9412a17 	ldw	r5,1192(sp)
   83a5c:	2888703a 	and	r4,r5,r2
   83a60:	203fc91e 	bne	r4,zero,83988 <_gp+0xfffe9594>
   83a64:	dc811f17 	ldw	r18,1148(sp)
   83a68:	1d800044 	addi	r22,r3,1
   83a6c:	40800115 	stw	r2,4(r8)
   83a70:	94800044 	addi	r18,r18,1
   83a74:	44000015 	stw	r16,0(r8)
   83a78:	dd812015 	stw	r22,1152(sp)
   83a7c:	dc811f15 	stw	r18,1148(sp)
   83a80:	008001c4 	movi	r2,7
   83a84:	1482740e 	bge	r2,r18,84458 <___vfprintf_internal_r+0x1bc0>
   83a88:	d9012c17 	ldw	r4,1200(sp)
   83a8c:	980b883a 	mov	r5,r19
   83a90:	d9811e04 	addi	r6,sp,1144
   83a94:	0089c000 	call	89c00 <__sprint_r>
   83a98:	103c9b1e 	bne	r2,zero,82d08 <_gp+0xfffe8914>
   83a9c:	dd812017 	ldw	r22,1152(sp)
   83aa0:	dc811f17 	ldw	r18,1148(sp)
   83aa4:	dd000404 	addi	r20,sp,16
   83aa8:	003fdf06 	br	83a28 <_gp+0xfffe9634>
   83aac:	d9012c17 	ldw	r4,1200(sp)
   83ab0:	980b883a 	mov	r5,r19
   83ab4:	d9811e04 	addi	r6,sp,1144
   83ab8:	0089c000 	call	89c00 <__sprint_r>
   83abc:	103dc326 	beq	r2,zero,831cc <_gp+0xfffe8dd8>
   83ac0:	003c9106 	br	82d08 <_gp+0xfffe8914>
   83ac4:	d8c10dc4 	addi	r3,sp,1079
   83ac8:	a808d0fa 	srli	r4,r21,3
   83acc:	b00a977a 	slli	r5,r22,29
   83ad0:	b02cd0fa 	srli	r22,r22,3
   83ad4:	ad4001cc 	andi	r21,r21,7
   83ad8:	a8800c04 	addi	r2,r21,48
   83adc:	292ab03a 	or	r21,r5,r4
   83ae0:	18800005 	stb	r2,0(r3)
   83ae4:	ad88b03a 	or	r4,r21,r22
   83ae8:	1821883a 	mov	r16,r3
   83aec:	18ffffc4 	addi	r3,r3,-1
   83af0:	203ff51e 	bne	r4,zero,83ac8 <_gp+0xfffe96d4>
   83af4:	d9412a17 	ldw	r5,1192(sp)
   83af8:	2900004c 	andi	r4,r5,1
   83afc:	800b883a 	mov	r5,r16
   83b00:	203f1a26 	beq	r4,zero,8376c <_gp+0xfffe9378>
   83b04:	10803fcc 	andi	r2,r2,255
   83b08:	1080201c 	xori	r2,r2,128
   83b0c:	10bfe004 	addi	r2,r2,-128
   83b10:	01000c04 	movi	r4,48
   83b14:	113f1526 	beq	r2,r4,8376c <_gp+0xfffe9378>
   83b18:	1821883a 	mov	r16,r3
   83b1c:	d8c12917 	ldw	r3,1188(sp)
   83b20:	293fffc5 	stb	r4,-1(r5)
   83b24:	1c07c83a 	sub	r3,r3,r16
   83b28:	d8c12e15 	stw	r3,1208(sp)
   83b2c:	003cbe06 	br	82e28 <_gp+0xfffe8a34>
   83b30:	d9012c17 	ldw	r4,1200(sp)
   83b34:	980b883a 	mov	r5,r19
   83b38:	d9811e04 	addi	r6,sp,1144
   83b3c:	0089c000 	call	89c00 <__sprint_r>
   83b40:	103c711e 	bne	r2,zero,82d08 <_gp+0xfffe8914>
   83b44:	d8c12017 	ldw	r3,1152(sp)
   83b48:	da000404 	addi	r8,sp,16
   83b4c:	003d5306 	br	8309c <_gp+0xfffe8ca8>
   83b50:	d9012c17 	ldw	r4,1200(sp)
   83b54:	980b883a 	mov	r5,r19
   83b58:	d9811e04 	addi	r6,sp,1144
   83b5c:	0089c000 	call	89c00 <__sprint_r>
   83b60:	103c691e 	bne	r2,zero,82d08 <_gp+0xfffe8914>
   83b64:	d8c12017 	ldw	r3,1152(sp)
   83b68:	da000404 	addi	r8,sp,16
   83b6c:	003d0a06 	br	82f98 <_gp+0xfffe8ba4>
   83b70:	d9012c17 	ldw	r4,1200(sp)
   83b74:	980b883a 	mov	r5,r19
   83b78:	d9811e04 	addi	r6,sp,1144
   83b7c:	0089c000 	call	89c00 <__sprint_r>
   83b80:	103c611e 	bne	r2,zero,82d08 <_gp+0xfffe8914>
   83b84:	d8c12017 	ldw	r3,1152(sp)
   83b88:	da000404 	addi	r8,sp,16
   83b8c:	003d1006 	br	82fd0 <_gp+0xfffe8bdc>
   83b90:	b000021e 	bne	r22,zero,83b9c <___vfprintf_internal_r+0x1304>
   83b94:	00800244 	movi	r2,9
   83b98:	15401c2e 	bgeu	r2,r21,83c0c <___vfprintf_internal_r+0x1374>
   83b9c:	dc412b15 	stw	r17,1196(sp)
   83ba0:	d8810dc4 	addi	r2,sp,1079
   83ba4:	b023883a 	mov	r17,r22
   83ba8:	402d883a 	mov	r22,r8
   83bac:	a809883a 	mov	r4,r21
   83bb0:	880b883a 	mov	r5,r17
   83bb4:	01800284 	movi	r6,10
   83bb8:	000f883a 	mov	r7,zero
   83bbc:	1021883a 	mov	r16,r2
   83bc0:	008c0f80 	call	8c0f8 <__umoddi3>
   83bc4:	10800c04 	addi	r2,r2,48
   83bc8:	a809883a 	mov	r4,r21
   83bcc:	880b883a 	mov	r5,r17
   83bd0:	80800005 	stb	r2,0(r16)
   83bd4:	01800284 	movi	r6,10
   83bd8:	000f883a 	mov	r7,zero
   83bdc:	008baa40 	call	8baa4 <__udivdi3>
   83be0:	1823883a 	mov	r17,r3
   83be4:	10c6b03a 	or	r3,r2,r3
   83be8:	102b883a 	mov	r21,r2
   83bec:	80bfffc4 	addi	r2,r16,-1
   83bf0:	183fee1e 	bne	r3,zero,83bac <_gp+0xfffe97b8>
   83bf4:	d8c12917 	ldw	r3,1188(sp)
   83bf8:	b011883a 	mov	r8,r22
   83bfc:	dc412b17 	ldw	r17,1196(sp)
   83c00:	1c07c83a 	sub	r3,r3,r16
   83c04:	d8c12e15 	stw	r3,1208(sp)
   83c08:	003c8706 	br	82e28 <_gp+0xfffe8a34>
   83c0c:	d9013d17 	ldw	r4,1268(sp)
   83c10:	ad400c04 	addi	r21,r21,48
   83c14:	dd410dc5 	stb	r21,1079(sp)
   83c18:	d9012e15 	stw	r4,1208(sp)
   83c1c:	dc010dc4 	addi	r16,sp,1079
   83c20:	003c8106 	br	82e28 <_gp+0xfffe8a34>
   83c24:	d8012e15 	stw	zero,1208(sp)
   83c28:	dc010e04 	addi	r16,sp,1080
   83c2c:	003c7e06 	br	82e28 <_gp+0xfffe8a34>
   83c30:	d8812617 	ldw	r2,1176(sp)
   83c34:	0081940e 	bge	zero,r2,84288 <___vfprintf_internal_r+0x19f0>
   83c38:	d9413517 	ldw	r5,1236(sp)
   83c3c:	d8813317 	ldw	r2,1228(sp)
   83c40:	8165883a 	add	r18,r16,r5
   83c44:	9429c83a 	sub	r20,r18,r16
   83c48:	1500010e 	bge	r2,r20,83c50 <___vfprintf_internal_r+0x13b8>
   83c4c:	1029883a 	mov	r20,r2
   83c50:	05000a0e 	bge	zero,r20,83c7c <___vfprintf_internal_r+0x13e4>
   83c54:	d8811f17 	ldw	r2,1148(sp)
   83c58:	1d07883a 	add	r3,r3,r20
   83c5c:	44000015 	stw	r16,0(r8)
   83c60:	10800044 	addi	r2,r2,1
   83c64:	45000115 	stw	r20,4(r8)
   83c68:	d8c12015 	stw	r3,1152(sp)
   83c6c:	d8811f15 	stw	r2,1148(sp)
   83c70:	010001c4 	movi	r4,7
   83c74:	20822b16 	blt	r4,r2,84524 <___vfprintf_internal_r+0x1c8c>
   83c78:	42000204 	addi	r8,r8,8
   83c7c:	a0022716 	blt	r20,zero,8451c <___vfprintf_internal_r+0x1c84>
   83c80:	d9013317 	ldw	r4,1228(sp)
   83c84:	2529c83a 	sub	r20,r4,r20
   83c88:	0500530e 	bge	zero,r20,83dd8 <___vfprintf_internal_r+0x1540>
   83c8c:	05800404 	movi	r22,16
   83c90:	d8811f17 	ldw	r2,1148(sp)
   83c94:	05400274 	movhi	r21,9
   83c98:	ad41e884 	addi	r21,r21,1954
   83c9c:	b501680e 	bge	r22,r20,84240 <___vfprintf_internal_r+0x19a8>
   83ca0:	8809883a 	mov	r4,r17
   83ca4:	dc012e15 	stw	r16,1208(sp)
   83ca8:	a023883a 	mov	r17,r20
   83cac:	070001c4 	movi	fp,7
   83cb0:	dc012c17 	ldw	r16,1200(sp)
   83cb4:	2029883a 	mov	r20,r4
   83cb8:	00000306 	br	83cc8 <___vfprintf_internal_r+0x1430>
   83cbc:	42000204 	addi	r8,r8,8
   83cc0:	8c7ffc04 	addi	r17,r17,-16
   83cc4:	b4415a0e 	bge	r22,r17,84230 <___vfprintf_internal_r+0x1998>
   83cc8:	18c00404 	addi	r3,r3,16
   83ccc:	10800044 	addi	r2,r2,1
   83cd0:	45c00015 	stw	r23,0(r8)
   83cd4:	45800115 	stw	r22,4(r8)
   83cd8:	d8c12015 	stw	r3,1152(sp)
   83cdc:	d8811f15 	stw	r2,1148(sp)
   83ce0:	e0bff60e 	bge	fp,r2,83cbc <_gp+0xfffe98c8>
   83ce4:	8009883a 	mov	r4,r16
   83ce8:	980b883a 	mov	r5,r19
   83cec:	d9811e04 	addi	r6,sp,1144
   83cf0:	0089c000 	call	89c00 <__sprint_r>
   83cf4:	103c041e 	bne	r2,zero,82d08 <_gp+0xfffe8914>
   83cf8:	d8c12017 	ldw	r3,1152(sp)
   83cfc:	d8811f17 	ldw	r2,1148(sp)
   83d00:	da000404 	addi	r8,sp,16
   83d04:	003fee06 	br	83cc0 <_gp+0xfffe98cc>
   83d08:	d9012c17 	ldw	r4,1200(sp)
   83d0c:	980b883a 	mov	r5,r19
   83d10:	d9811e04 	addi	r6,sp,1144
   83d14:	0089c000 	call	89c00 <__sprint_r>
   83d18:	103bfb1e 	bne	r2,zero,82d08 <_gp+0xfffe8914>
   83d1c:	d8c12017 	ldw	r3,1152(sp)
   83d20:	d8812787 	ldb	r2,1182(sp)
   83d24:	da000404 	addi	r8,sp,16
   83d28:	003c8e06 	br	82f64 <_gp+0xfffe8b70>
   83d2c:	d9413517 	ldw	r5,1236(sp)
   83d30:	2c3fffc4 	addi	r16,r5,-1
   83d34:	043f3c0e 	bge	zero,r16,83a28 <_gp+0xfffe9634>
   83d38:	07000404 	movi	fp,16
   83d3c:	05400274 	movhi	r21,9
   83d40:	ad41e884 	addi	r21,r21,1954
   83d44:	e4007c0e 	bge	fp,r16,83f38 <___vfprintf_internal_r+0x16a0>
   83d48:	dc412e15 	stw	r17,1208(sp)
   83d4c:	00c001c4 	movi	r3,7
   83d50:	8023883a 	mov	r17,r16
   83d54:	dc012c17 	ldw	r16,1200(sp)
   83d58:	00000306 	br	83d68 <___vfprintf_internal_r+0x14d0>
   83d5c:	a5000204 	addi	r20,r20,8
   83d60:	8c7ffc04 	addi	r17,r17,-16
   83d64:	e440720e 	bge	fp,r17,83f30 <___vfprintf_internal_r+0x1698>
   83d68:	b5800404 	addi	r22,r22,16
   83d6c:	94800044 	addi	r18,r18,1
   83d70:	a5c00015 	stw	r23,0(r20)
   83d74:	a7000115 	stw	fp,4(r20)
   83d78:	dd812015 	stw	r22,1152(sp)
   83d7c:	dc811f15 	stw	r18,1148(sp)
   83d80:	1cbff60e 	bge	r3,r18,83d5c <_gp+0xfffe9968>
   83d84:	8009883a 	mov	r4,r16
   83d88:	980b883a 	mov	r5,r19
   83d8c:	d9811e04 	addi	r6,sp,1144
   83d90:	d8c13e15 	stw	r3,1272(sp)
   83d94:	0089c000 	call	89c00 <__sprint_r>
   83d98:	d8c13e17 	ldw	r3,1272(sp)
   83d9c:	103bda1e 	bne	r2,zero,82d08 <_gp+0xfffe8914>
   83da0:	dd812017 	ldw	r22,1152(sp)
   83da4:	dc811f17 	ldw	r18,1148(sp)
   83da8:	dd000404 	addi	r20,sp,16
   83dac:	003fec06 	br	83d60 <_gp+0xfffe996c>
   83db0:	00c00084 	movi	r3,2
   83db4:	ad84b03a 	or	r2,r21,r22
   83db8:	003d5c06 	br	8332c <_gp+0xfffe8f38>
   83dbc:	d9012c17 	ldw	r4,1200(sp)
   83dc0:	980b883a 	mov	r5,r19
   83dc4:	d9811e04 	addi	r6,sp,1144
   83dc8:	0089c000 	call	89c00 <__sprint_r>
   83dcc:	103bce1e 	bne	r2,zero,82d08 <_gp+0xfffe8914>
   83dd0:	d8c12017 	ldw	r3,1152(sp)
   83dd4:	da000404 	addi	r8,sp,16
   83dd8:	d9413317 	ldw	r5,1228(sp)
   83ddc:	d8812617 	ldw	r2,1176(sp)
   83de0:	d9013517 	ldw	r4,1236(sp)
   83de4:	8161883a 	add	r16,r16,r5
   83de8:	11000316 	blt	r2,r4,83df8 <___vfprintf_internal_r+0x1560>
   83dec:	d9412a17 	ldw	r5,1192(sp)
   83df0:	2900004c 	andi	r4,r5,1
   83df4:	20000d26 	beq	r4,zero,83e2c <___vfprintf_internal_r+0x1594>
   83df8:	d9013817 	ldw	r4,1248(sp)
   83dfc:	d9413417 	ldw	r5,1232(sp)
   83e00:	1907883a 	add	r3,r3,r4
   83e04:	d9011f17 	ldw	r4,1148(sp)
   83e08:	41400015 	stw	r5,0(r8)
   83e0c:	d9413817 	ldw	r5,1248(sp)
   83e10:	21000044 	addi	r4,r4,1
   83e14:	d8c12015 	stw	r3,1152(sp)
   83e18:	41400115 	stw	r5,4(r8)
   83e1c:	d9011f15 	stw	r4,1148(sp)
   83e20:	014001c4 	movi	r5,7
   83e24:	2901c716 	blt	r5,r4,84544 <___vfprintf_internal_r+0x1cac>
   83e28:	42000204 	addi	r8,r8,8
   83e2c:	d9013517 	ldw	r4,1236(sp)
   83e30:	9425c83a 	sub	r18,r18,r16
   83e34:	2085c83a 	sub	r2,r4,r2
   83e38:	1029883a 	mov	r20,r2
   83e3c:	9080010e 	bge	r18,r2,83e44 <___vfprintf_internal_r+0x15ac>
   83e40:	9029883a 	mov	r20,r18
   83e44:	05000a0e 	bge	zero,r20,83e70 <___vfprintf_internal_r+0x15d8>
   83e48:	d9011f17 	ldw	r4,1148(sp)
   83e4c:	1d07883a 	add	r3,r3,r20
   83e50:	44000015 	stw	r16,0(r8)
   83e54:	21000044 	addi	r4,r4,1
   83e58:	45000115 	stw	r20,4(r8)
   83e5c:	d8c12015 	stw	r3,1152(sp)
   83e60:	d9011f15 	stw	r4,1148(sp)
   83e64:	014001c4 	movi	r5,7
   83e68:	2901dd16 	blt	r5,r4,845e0 <___vfprintf_internal_r+0x1d48>
   83e6c:	42000204 	addi	r8,r8,8
   83e70:	a001d916 	blt	r20,zero,845d8 <___vfprintf_internal_r+0x1d40>
   83e74:	1521c83a 	sub	r16,r2,r20
   83e78:	043c970e 	bge	zero,r16,830d8 <_gp+0xfffe8ce4>
   83e7c:	04800404 	movi	r18,16
   83e80:	d8811f17 	ldw	r2,1148(sp)
   83e84:	05400274 	movhi	r21,9
   83e88:	ad41e884 	addi	r21,r21,1954
   83e8c:	943e140e 	bge	r18,r16,836e0 <_gp+0xfffe92ec>
   83e90:	050001c4 	movi	r20,7
   83e94:	dd812c17 	ldw	r22,1200(sp)
   83e98:	00000306 	br	83ea8 <___vfprintf_internal_r+0x1610>
   83e9c:	42000204 	addi	r8,r8,8
   83ea0:	843ffc04 	addi	r16,r16,-16
   83ea4:	943e0e0e 	bge	r18,r16,836e0 <_gp+0xfffe92ec>
   83ea8:	18c00404 	addi	r3,r3,16
   83eac:	10800044 	addi	r2,r2,1
   83eb0:	45c00015 	stw	r23,0(r8)
   83eb4:	44800115 	stw	r18,4(r8)
   83eb8:	d8c12015 	stw	r3,1152(sp)
   83ebc:	d8811f15 	stw	r2,1148(sp)
   83ec0:	a0bff60e 	bge	r20,r2,83e9c <_gp+0xfffe9aa8>
   83ec4:	b009883a 	mov	r4,r22
   83ec8:	980b883a 	mov	r5,r19
   83ecc:	d9811e04 	addi	r6,sp,1144
   83ed0:	0089c000 	call	89c00 <__sprint_r>
   83ed4:	103b8c1e 	bne	r2,zero,82d08 <_gp+0xfffe8914>
   83ed8:	d8c12017 	ldw	r3,1152(sp)
   83edc:	d8811f17 	ldw	r2,1148(sp)
   83ee0:	da000404 	addi	r8,sp,16
   83ee4:	003fee06 	br	83ea0 <_gp+0xfffe9aac>
   83ee8:	d9012c17 	ldw	r4,1200(sp)
   83eec:	980b883a 	mov	r5,r19
   83ef0:	d9811e04 	addi	r6,sp,1144
   83ef4:	0089c000 	call	89c00 <__sprint_r>
   83ef8:	103b831e 	bne	r2,zero,82d08 <_gp+0xfffe8914>
   83efc:	d8c12017 	ldw	r3,1152(sp)
   83f00:	dc811f17 	ldw	r18,1148(sp)
   83f04:	da000404 	addi	r8,sp,16
   83f08:	003eaa06 	br	839b4 <_gp+0xfffe95c0>
   83f0c:	d9012c17 	ldw	r4,1200(sp)
   83f10:	980b883a 	mov	r5,r19
   83f14:	d9811e04 	addi	r6,sp,1144
   83f18:	0089c000 	call	89c00 <__sprint_r>
   83f1c:	103b7a1e 	bne	r2,zero,82d08 <_gp+0xfffe8914>
   83f20:	dd812017 	ldw	r22,1152(sp)
   83f24:	dc811f17 	ldw	r18,1148(sp)
   83f28:	dd000404 	addi	r20,sp,16
   83f2c:	003eac06 	br	839e0 <_gp+0xfffe95ec>
   83f30:	8821883a 	mov	r16,r17
   83f34:	dc412e17 	ldw	r17,1208(sp)
   83f38:	b42d883a 	add	r22,r22,r16
   83f3c:	94800044 	addi	r18,r18,1
   83f40:	a5400015 	stw	r21,0(r20)
   83f44:	a4000115 	stw	r16,4(r20)
   83f48:	dd812015 	stw	r22,1152(sp)
   83f4c:	dc811f15 	stw	r18,1148(sp)
   83f50:	008001c4 	movi	r2,7
   83f54:	14beb30e 	bge	r2,r18,83a24 <_gp+0xfffe9630>
   83f58:	003ecb06 	br	83a88 <_gp+0xfffe9694>
   83f5c:	d9012c17 	ldw	r4,1200(sp)
   83f60:	980b883a 	mov	r5,r19
   83f64:	d9811e04 	addi	r6,sp,1144
   83f68:	0089c000 	call	89c00 <__sprint_r>
   83f6c:	103b661e 	bne	r2,zero,82d08 <_gp+0xfffe8914>
   83f70:	d8c12017 	ldw	r3,1152(sp)
   83f74:	da000404 	addi	r8,sp,16
   83f78:	003c1806 	br	82fdc <_gp+0xfffe8be8>
   83f7c:	056bc83a 	sub	r21,zero,r21
   83f80:	a804c03a 	cmpne	r2,r21,zero
   83f84:	05adc83a 	sub	r22,zero,r22
   83f88:	07000b44 	movi	fp,45
   83f8c:	b0adc83a 	sub	r22,r22,r2
   83f90:	df012785 	stb	fp,1182(sp)
   83f94:	00c00044 	movi	r3,1
   83f98:	ad84b03a 	or	r2,r21,r22
   83f9c:	003b9106 	br	82de4 <_gp+0xfffe89f0>
   83fa0:	da013f15 	stw	r8,1276(sp)
   83fa4:	00898580 	call	89858 <__fpclassifyd>
   83fa8:	da013f17 	ldw	r8,1276(sp)
   83fac:	1000f226 	beq	r2,zero,84378 <___vfprintf_internal_r+0x1ae0>
   83fb0:	05bff7c4 	movi	r22,-33
   83fb4:	00bfffc4 	movi	r2,-1
   83fb8:	95ac703a 	and	r22,r18,r22
   83fbc:	a0820b26 	beq	r20,r2,847ec <___vfprintf_internal_r+0x1f54>
   83fc0:	008011c4 	movi	r2,71
   83fc4:	b081fc26 	beq	r22,r2,847b8 <___vfprintf_internal_r+0x1f20>
   83fc8:	d8c12a17 	ldw	r3,1192(sp)
   83fcc:	d9013917 	ldw	r4,1252(sp)
   83fd0:	18c04014 	ori	r3,r3,256
   83fd4:	d8c12d15 	stw	r3,1204(sp)
   83fd8:	20020616 	blt	r4,zero,847f4 <___vfprintf_internal_r+0x1f5c>
   83fdc:	dd413917 	ldw	r21,1252(sp)
   83fe0:	d8012b05 	stb	zero,1196(sp)
   83fe4:	00801984 	movi	r2,102
   83fe8:	9081a526 	beq	r18,r2,84680 <___vfprintf_internal_r+0x1de8>
   83fec:	00801184 	movi	r2,70
   83ff0:	9081a326 	beq	r18,r2,84680 <___vfprintf_internal_r+0x1de8>
   83ff4:	00801144 	movi	r2,69
   83ff8:	b0820226 	beq	r22,r2,84804 <___vfprintf_internal_r+0x1f6c>
   83ffc:	a039883a 	mov	fp,r20
   84000:	d8812604 	addi	r2,sp,1176
   84004:	d8800115 	stw	r2,4(sp)
   84008:	d9012c17 	ldw	r4,1200(sp)
   8400c:	d8812504 	addi	r2,sp,1172
   84010:	d9413717 	ldw	r5,1244(sp)
   84014:	d8800215 	stw	r2,8(sp)
   84018:	d8812104 	addi	r2,sp,1156
   8401c:	df000015 	stw	fp,0(sp)
   84020:	d8800315 	stw	r2,12(sp)
   84024:	a80d883a 	mov	r6,r21
   84028:	01c00084 	movi	r7,2
   8402c:	da013f15 	stw	r8,1276(sp)
   84030:	0084d700 	call	84d70 <_dtoa_r>
   84034:	1021883a 	mov	r16,r2
   84038:	008019c4 	movi	r2,103
   8403c:	da013f17 	ldw	r8,1276(sp)
   84040:	90800226 	beq	r18,r2,8404c <___vfprintf_internal_r+0x17b4>
   84044:	008011c4 	movi	r2,71
   84048:	9080031e 	bne	r18,r2,84058 <___vfprintf_internal_r+0x17c0>
   8404c:	d9012a17 	ldw	r4,1192(sp)
   84050:	2080004c 	andi	r2,r4,1
   84054:	1001fe26 	beq	r2,zero,84850 <___vfprintf_internal_r+0x1fb8>
   84058:	00801184 	movi	r2,70
   8405c:	8713883a 	add	r9,r16,fp
   84060:	b0819f26 	beq	r22,r2,846e0 <___vfprintf_internal_r+0x1e48>
   84064:	d9013717 	ldw	r4,1244(sp)
   84068:	a80b883a 	mov	r5,r21
   8406c:	000d883a 	mov	r6,zero
   84070:	000f883a 	mov	r7,zero
   84074:	da013f15 	stw	r8,1276(sp)
   84078:	da413e15 	stw	r9,1272(sp)
   8407c:	008cfa80 	call	8cfa8 <__eqdf2>
   84080:	da013f17 	ldw	r8,1276(sp)
   84084:	da413e17 	ldw	r9,1272(sp)
   84088:	10017b26 	beq	r2,zero,84678 <___vfprintf_internal_r+0x1de0>
   8408c:	d8812117 	ldw	r2,1156(sp)
   84090:	1240062e 	bgeu	r2,r9,840ac <___vfprintf_internal_r+0x1814>
   84094:	01000c04 	movi	r4,48
   84098:	10c00044 	addi	r3,r2,1
   8409c:	d8c12115 	stw	r3,1156(sp)
   840a0:	11000005 	stb	r4,0(r2)
   840a4:	d8812117 	ldw	r2,1156(sp)
   840a8:	127ffb36 	bltu	r2,r9,84098 <_gp+0xfffe9ca4>
   840ac:	1405c83a 	sub	r2,r2,r16
   840b0:	d8813515 	stw	r2,1236(sp)
   840b4:	008011c4 	movi	r2,71
   840b8:	b0816926 	beq	r22,r2,84660 <___vfprintf_internal_r+0x1dc8>
   840bc:	00801944 	movi	r2,101
   840c0:	14823f0e 	bge	r2,r18,849c0 <___vfprintf_internal_r+0x2128>
   840c4:	d8c12617 	ldw	r3,1176(sp)
   840c8:	00801984 	movi	r2,102
   840cc:	d8c13315 	stw	r3,1228(sp)
   840d0:	9081e126 	beq	r18,r2,84858 <___vfprintf_internal_r+0x1fc0>
   840d4:	d8c13317 	ldw	r3,1228(sp)
   840d8:	d9013517 	ldw	r4,1236(sp)
   840dc:	1901cb16 	blt	r3,r4,8480c <___vfprintf_internal_r+0x1f74>
   840e0:	d9412a17 	ldw	r5,1192(sp)
   840e4:	2880004c 	andi	r2,r5,1
   840e8:	1001d11e 	bne	r2,zero,84830 <___vfprintf_internal_r+0x1f98>
   840ec:	1805883a 	mov	r2,r3
   840f0:	18023116 	blt	r3,zero,849b8 <___vfprintf_internal_r+0x2120>
   840f4:	d8c13317 	ldw	r3,1228(sp)
   840f8:	048019c4 	movi	r18,103
   840fc:	d8c12e15 	stw	r3,1208(sp)
   84100:	df012b07 	ldb	fp,1196(sp)
   84104:	e0014e1e 	bne	fp,zero,84640 <___vfprintf_internal_r+0x1da8>
   84108:	d8c12d17 	ldw	r3,1204(sp)
   8410c:	df012783 	ldbu	fp,1182(sp)
   84110:	d8812b15 	stw	r2,1196(sp)
   84114:	d8c12a15 	stw	r3,1192(sp)
   84118:	0029883a 	mov	r20,zero
   8411c:	003b4706 	br	82e3c <_gp+0xfffe8a48>
   84120:	d8c12f17 	ldw	r3,1212(sp)
   84124:	d9012f17 	ldw	r4,1212(sp)
   84128:	d9412f17 	ldw	r5,1212(sp)
   8412c:	18c00017 	ldw	r3,0(r3)
   84130:	21000117 	ldw	r4,4(r4)
   84134:	29400204 	addi	r5,r5,8
   84138:	d8c13715 	stw	r3,1244(sp)
   8413c:	d9013915 	stw	r4,1252(sp)
   84140:	d9412f15 	stw	r5,1212(sp)
   84144:	003c3606 	br	83220 <_gp+0xfffe8e2c>
   84148:	d9412a17 	ldw	r5,1192(sp)
   8414c:	2880100c 	andi	r2,r5,64
   84150:	1000b026 	beq	r2,zero,84414 <___vfprintf_internal_r+0x1b7c>
   84154:	d8812f17 	ldw	r2,1212(sp)
   84158:	002d883a 	mov	r22,zero
   8415c:	00c00044 	movi	r3,1
   84160:	1540000b 	ldhu	r21,0(r2)
   84164:	10800104 	addi	r2,r2,4
   84168:	d8812f15 	stw	r2,1212(sp)
   8416c:	a805883a 	mov	r2,r21
   84170:	003c6e06 	br	8332c <_gp+0xfffe8f38>
   84174:	00c00084 	movi	r3,2
   84178:	003c6c06 	br	8332c <_gp+0xfffe8f38>
   8417c:	d9412a17 	ldw	r5,1192(sp)
   84180:	2880100c 	andi	r2,r5,64
   84184:	10009b26 	beq	r2,zero,843f4 <___vfprintf_internal_r+0x1b5c>
   84188:	d8812f17 	ldw	r2,1212(sp)
   8418c:	002d883a 	mov	r22,zero
   84190:	0007883a 	mov	r3,zero
   84194:	1540000b 	ldhu	r21,0(r2)
   84198:	10800104 	addi	r2,r2,4
   8419c:	d8812f15 	stw	r2,1212(sp)
   841a0:	a805883a 	mov	r2,r21
   841a4:	003c6106 	br	8332c <_gp+0xfffe8f38>
   841a8:	8c800007 	ldb	r18,0(r17)
   841ac:	003a1f06 	br	82a2c <_gp+0xfffe8638>
   841b0:	d9412a17 	ldw	r5,1192(sp)
   841b4:	2880100c 	andi	r2,r5,64
   841b8:	10009e26 	beq	r2,zero,84434 <___vfprintf_internal_r+0x1b9c>
   841bc:	d8812f17 	ldw	r2,1212(sp)
   841c0:	002d883a 	mov	r22,zero
   841c4:	1540000b 	ldhu	r21,0(r2)
   841c8:	10800104 	addi	r2,r2,4
   841cc:	d8812f15 	stw	r2,1212(sp)
   841d0:	003c9506 	br	83428 <_gp+0xfffe9034>
   841d4:	d9412a17 	ldw	r5,1192(sp)
   841d8:	2880040c 	andi	r2,r5,16
   841dc:	10007e1e 	bne	r2,zero,843d8 <___vfprintf_internal_r+0x1b40>
   841e0:	d9412a17 	ldw	r5,1192(sp)
   841e4:	2880100c 	andi	r2,r5,64
   841e8:	10010826 	beq	r2,zero,8460c <___vfprintf_internal_r+0x1d74>
   841ec:	d8c12f17 	ldw	r3,1212(sp)
   841f0:	d9013117 	ldw	r4,1220(sp)
   841f4:	18800017 	ldw	r2,0(r3)
   841f8:	18c00104 	addi	r3,r3,4
   841fc:	d8c12f15 	stw	r3,1212(sp)
   84200:	1100000d 	sth	r4,0(r2)
   84204:	0039e206 	br	82990 <_gp+0xfffe859c>
   84208:	d8c12a17 	ldw	r3,1192(sp)
   8420c:	1880100c 	andi	r2,r3,64
   84210:	10006a26 	beq	r2,zero,843bc <___vfprintf_internal_r+0x1b24>
   84214:	d9012f17 	ldw	r4,1212(sp)
   84218:	2540000f 	ldh	r21,0(r4)
   8421c:	21000104 	addi	r4,r4,4
   84220:	d9012f15 	stw	r4,1212(sp)
   84224:	a82dd7fa 	srai	r22,r21,31
   84228:	b005883a 	mov	r2,r22
   8422c:	003ae906 	br	82dd4 <_gp+0xfffe89e0>
   84230:	dc012e17 	ldw	r16,1208(sp)
   84234:	a009883a 	mov	r4,r20
   84238:	8829883a 	mov	r20,r17
   8423c:	2023883a 	mov	r17,r4
   84240:	1d07883a 	add	r3,r3,r20
   84244:	10800044 	addi	r2,r2,1
   84248:	45400015 	stw	r21,0(r8)
   8424c:	45000115 	stw	r20,4(r8)
   84250:	d8c12015 	stw	r3,1152(sp)
   84254:	d8811f15 	stw	r2,1148(sp)
   84258:	010001c4 	movi	r4,7
   8425c:	20bed716 	blt	r4,r2,83dbc <_gp+0xfffe99c8>
   84260:	42000204 	addi	r8,r8,8
   84264:	003edc06 	br	83dd8 <_gp+0xfffe99e4>
   84268:	d9012c17 	ldw	r4,1200(sp)
   8426c:	980b883a 	mov	r5,r19
   84270:	d9811e04 	addi	r6,sp,1144
   84274:	0089c000 	call	89c00 <__sprint_r>
   84278:	103aa31e 	bne	r2,zero,82d08 <_gp+0xfffe8914>
   8427c:	d8c12017 	ldw	r3,1152(sp)
   84280:	da000404 	addi	r8,sp,16
   84284:	003d5606 	br	837e0 <_gp+0xfffe93ec>
   84288:	d9011f17 	ldw	r4,1148(sp)
   8428c:	01400274 	movhi	r5,9
   84290:	2941e804 	addi	r5,r5,1952
   84294:	18c00044 	addi	r3,r3,1
   84298:	21000044 	addi	r4,r4,1
   8429c:	41400015 	stw	r5,0(r8)
   842a0:	01400044 	movi	r5,1
   842a4:	41400115 	stw	r5,4(r8)
   842a8:	d8c12015 	stw	r3,1152(sp)
   842ac:	d9011f15 	stw	r4,1148(sp)
   842b0:	014001c4 	movi	r5,7
   842b4:	29006a16 	blt	r5,r4,84460 <___vfprintf_internal_r+0x1bc8>
   842b8:	42000204 	addi	r8,r8,8
   842bc:	1025883a 	mov	r18,r2
   842c0:	9000051e 	bne	r18,zero,842d8 <___vfprintf_internal_r+0x1a40>
   842c4:	d8813517 	ldw	r2,1236(sp)
   842c8:	1000031e 	bne	r2,zero,842d8 <___vfprintf_internal_r+0x1a40>
   842cc:	d9012a17 	ldw	r4,1192(sp)
   842d0:	2080004c 	andi	r2,r4,1
   842d4:	103b8026 	beq	r2,zero,830d8 <_gp+0xfffe8ce4>
   842d8:	d8813417 	ldw	r2,1232(sp)
   842dc:	d9413817 	ldw	r5,1248(sp)
   842e0:	010001c4 	movi	r4,7
   842e4:	40800015 	stw	r2,0(r8)
   842e8:	d8811f17 	ldw	r2,1148(sp)
   842ec:	1947883a 	add	r3,r3,r5
   842f0:	41400115 	stw	r5,4(r8)
   842f4:	10800044 	addi	r2,r2,1
   842f8:	d8c12015 	stw	r3,1152(sp)
   842fc:	d8811f15 	stw	r2,1148(sp)
   84300:	20813016 	blt	r4,r2,847c4 <___vfprintf_internal_r+0x1f2c>
   84304:	42000204 	addi	r8,r8,8
   84308:	04a5c83a 	sub	r18,zero,r18
   8430c:	04807a0e 	bge	zero,r18,844f8 <___vfprintf_internal_r+0x1c60>
   84310:	05000404 	movi	r20,16
   84314:	05400274 	movhi	r21,9
   84318:	ad41e884 	addi	r21,r21,1954
   8431c:	a480920e 	bge	r20,r18,84568 <___vfprintf_internal_r+0x1cd0>
   84320:	058001c4 	movi	r22,7
   84324:	df012c17 	ldw	fp,1200(sp)
   84328:	00000306 	br	84338 <___vfprintf_internal_r+0x1aa0>
   8432c:	42000204 	addi	r8,r8,8
   84330:	94bffc04 	addi	r18,r18,-16
   84334:	a4808c0e 	bge	r20,r18,84568 <___vfprintf_internal_r+0x1cd0>
   84338:	18c00404 	addi	r3,r3,16
   8433c:	10800044 	addi	r2,r2,1
   84340:	45c00015 	stw	r23,0(r8)
   84344:	45000115 	stw	r20,4(r8)
   84348:	d8c12015 	stw	r3,1152(sp)
   8434c:	d8811f15 	stw	r2,1148(sp)
   84350:	b0bff60e 	bge	r22,r2,8432c <_gp+0xfffe9f38>
   84354:	e009883a 	mov	r4,fp
   84358:	980b883a 	mov	r5,r19
   8435c:	d9811e04 	addi	r6,sp,1144
   84360:	0089c000 	call	89c00 <__sprint_r>
   84364:	103a681e 	bne	r2,zero,82d08 <_gp+0xfffe8914>
   84368:	d8c12017 	ldw	r3,1152(sp)
   8436c:	d8811f17 	ldw	r2,1148(sp)
   84370:	da000404 	addi	r8,sp,16
   84374:	003fee06 	br	84330 <_gp+0xfffe9f3c>
   84378:	008011c4 	movi	r2,71
   8437c:	1480ad16 	blt	r2,r18,84634 <___vfprintf_internal_r+0x1d9c>
   84380:	04000274 	movhi	r16,9
   84384:	8401da04 	addi	r16,r16,1896
   84388:	d9012a17 	ldw	r4,1192(sp)
   8438c:	00bfdfc4 	movi	r2,-129
   84390:	00c000c4 	movi	r3,3
   84394:	2088703a 	and	r4,r4,r2
   84398:	d8c12b15 	stw	r3,1196(sp)
   8439c:	d9012a15 	stw	r4,1192(sp)
   843a0:	df012783 	ldbu	fp,1182(sp)
   843a4:	d8c12e15 	stw	r3,1208(sp)
   843a8:	0029883a 	mov	r20,zero
   843ac:	d8013315 	stw	zero,1228(sp)
   843b0:	003aa206 	br	82e3c <_gp+0xfffe8a48>
   843b4:	dd012e15 	stw	r20,1208(sp)
   843b8:	003c8206 	br	835c4 <_gp+0xfffe91d0>
   843bc:	d9412f17 	ldw	r5,1212(sp)
   843c0:	2d400017 	ldw	r21,0(r5)
   843c4:	29400104 	addi	r5,r5,4
   843c8:	d9412f15 	stw	r5,1212(sp)
   843cc:	a82dd7fa 	srai	r22,r21,31
   843d0:	b005883a 	mov	r2,r22
   843d4:	003a7f06 	br	82dd4 <_gp+0xfffe89e0>
   843d8:	d8c12f17 	ldw	r3,1212(sp)
   843dc:	d9013117 	ldw	r4,1220(sp)
   843e0:	18800017 	ldw	r2,0(r3)
   843e4:	18c00104 	addi	r3,r3,4
   843e8:	d8c12f15 	stw	r3,1212(sp)
   843ec:	11000015 	stw	r4,0(r2)
   843f0:	00396706 	br	82990 <_gp+0xfffe859c>
   843f4:	d8c12f17 	ldw	r3,1212(sp)
   843f8:	002d883a 	mov	r22,zero
   843fc:	1d400017 	ldw	r21,0(r3)
   84400:	18c00104 	addi	r3,r3,4
   84404:	d8c12f15 	stw	r3,1212(sp)
   84408:	a805883a 	mov	r2,r21
   8440c:	0007883a 	mov	r3,zero
   84410:	003bc606 	br	8332c <_gp+0xfffe8f38>
   84414:	d8c12f17 	ldw	r3,1212(sp)
   84418:	002d883a 	mov	r22,zero
   8441c:	1d400017 	ldw	r21,0(r3)
   84420:	18c00104 	addi	r3,r3,4
   84424:	d8c12f15 	stw	r3,1212(sp)
   84428:	a805883a 	mov	r2,r21
   8442c:	00c00044 	movi	r3,1
   84430:	003bbe06 	br	8332c <_gp+0xfffe8f38>
   84434:	d8c12f17 	ldw	r3,1212(sp)
   84438:	002d883a 	mov	r22,zero
   8443c:	1d400017 	ldw	r21,0(r3)
   84440:	18c00104 	addi	r3,r3,4
   84444:	d8c12f15 	stw	r3,1212(sp)
   84448:	003bf706 	br	83428 <_gp+0xfffe9034>
   8444c:	04000274 	movhi	r16,9
   84450:	8401d804 	addi	r16,r16,1888
   84454:	003b8506 	br	8326c <_gp+0xfffe8e78>
   84458:	45000204 	addi	r20,r8,8
   8445c:	003d7206 	br	83a28 <_gp+0xfffe9634>
   84460:	d9012c17 	ldw	r4,1200(sp)
   84464:	980b883a 	mov	r5,r19
   84468:	d9811e04 	addi	r6,sp,1144
   8446c:	0089c000 	call	89c00 <__sprint_r>
   84470:	103a251e 	bne	r2,zero,82d08 <_gp+0xfffe8914>
   84474:	dc812617 	ldw	r18,1176(sp)
   84478:	d8c12017 	ldw	r3,1152(sp)
   8447c:	da000404 	addi	r8,sp,16
   84480:	003f8f06 	br	842c0 <_gp+0xfffe9ecc>
   84484:	d9012a17 	ldw	r4,1192(sp)
   84488:	8c400044 	addi	r17,r17,1
   8448c:	14800047 	ldb	r18,1(r2)
   84490:	21000814 	ori	r4,r4,32
   84494:	d9012a15 	stw	r4,1192(sp)
   84498:	00396406 	br	82a2c <_gp+0xfffe8638>
   8449c:	d9012c17 	ldw	r4,1200(sp)
   844a0:	980b883a 	mov	r5,r19
   844a4:	d9811e04 	addi	r6,sp,1144
   844a8:	0089c000 	call	89c00 <__sprint_r>
   844ac:	103a161e 	bne	r2,zero,82d08 <_gp+0xfffe8914>
   844b0:	d8c12017 	ldw	r3,1152(sp)
   844b4:	da000404 	addi	r8,sp,16
   844b8:	003cdc06 	br	8382c <_gp+0xfffe9438>
   844bc:	df013f15 	stw	fp,1276(sp)
   844c0:	008280c0 	call	8280c <strlen>
   844c4:	d8812e15 	stw	r2,1208(sp)
   844c8:	da013f17 	ldw	r8,1276(sp)
   844cc:	103c3f0e 	bge	r2,zero,835cc <_gp+0xfffe91d8>
   844d0:	0005883a 	mov	r2,zero
   844d4:	003c3d06 	br	835cc <_gp+0xfffe91d8>
   844d8:	d9012c17 	ldw	r4,1200(sp)
   844dc:	980b883a 	mov	r5,r19
   844e0:	d9811e04 	addi	r6,sp,1144
   844e4:	0089c000 	call	89c00 <__sprint_r>
   844e8:	103a071e 	bne	r2,zero,82d08 <_gp+0xfffe8914>
   844ec:	d8c12017 	ldw	r3,1152(sp)
   844f0:	d8811f17 	ldw	r2,1148(sp)
   844f4:	da000404 	addi	r8,sp,16
   844f8:	d9013517 	ldw	r4,1236(sp)
   844fc:	10800044 	addi	r2,r2,1
   84500:	44000015 	stw	r16,0(r8)
   84504:	20c7883a 	add	r3,r4,r3
   84508:	003aed06 	br	830c0 <_gp+0xfffe8ccc>
   8450c:	01000274 	movhi	r4,9
   84510:	2101ec84 	addi	r4,r4,1970
   84514:	d9013615 	stw	r4,1240(sp)
   84518:	003a8706 	br	82f38 <_gp+0xfffe8b44>
   8451c:	0029883a 	mov	r20,zero
   84520:	003dd706 	br	83c80 <_gp+0xfffe988c>
   84524:	d9012c17 	ldw	r4,1200(sp)
   84528:	980b883a 	mov	r5,r19
   8452c:	d9811e04 	addi	r6,sp,1144
   84530:	0089c000 	call	89c00 <__sprint_r>
   84534:	1039f41e 	bne	r2,zero,82d08 <_gp+0xfffe8914>
   84538:	d8c12017 	ldw	r3,1152(sp)
   8453c:	da000404 	addi	r8,sp,16
   84540:	003dce06 	br	83c7c <_gp+0xfffe9888>
   84544:	d9012c17 	ldw	r4,1200(sp)
   84548:	980b883a 	mov	r5,r19
   8454c:	d9811e04 	addi	r6,sp,1144
   84550:	0089c000 	call	89c00 <__sprint_r>
   84554:	1039ec1e 	bne	r2,zero,82d08 <_gp+0xfffe8914>
   84558:	d8812617 	ldw	r2,1176(sp)
   8455c:	d8c12017 	ldw	r3,1152(sp)
   84560:	da000404 	addi	r8,sp,16
   84564:	003e3106 	br	83e2c <_gp+0xfffe9a38>
   84568:	1c87883a 	add	r3,r3,r18
   8456c:	10800044 	addi	r2,r2,1
   84570:	45400015 	stw	r21,0(r8)
   84574:	44800115 	stw	r18,4(r8)
   84578:	d8c12015 	stw	r3,1152(sp)
   8457c:	d8811f15 	stw	r2,1148(sp)
   84580:	010001c4 	movi	r4,7
   84584:	20bfd416 	blt	r4,r2,844d8 <_gp+0xfffea0e4>
   84588:	42000204 	addi	r8,r8,8
   8458c:	003fda06 	br	844f8 <_gp+0xfffea104>
   84590:	01400274 	movhi	r5,9
   84594:	2941ec84 	addi	r5,r5,1970
   84598:	d9413615 	stw	r5,1240(sp)
   8459c:	003af406 	br	83170 <_gp+0xfffe8d7c>
   845a0:	00800184 	movi	r2,6
   845a4:	1500012e 	bgeu	r2,r20,845ac <___vfprintf_internal_r+0x1d14>
   845a8:	1029883a 	mov	r20,r2
   845ac:	dd012e15 	stw	r20,1208(sp)
   845b0:	a005883a 	mov	r2,r20
   845b4:	a000d216 	blt	r20,zero,84900 <___vfprintf_internal_r+0x2068>
   845b8:	d8812b15 	stw	r2,1196(sp)
   845bc:	dd412f15 	stw	r21,1212(sp)
   845c0:	0029883a 	mov	r20,zero
   845c4:	d8013315 	stw	zero,1228(sp)
   845c8:	04000274 	movhi	r16,9
   845cc:	8401e604 	addi	r16,r16,1944
   845d0:	0005883a 	mov	r2,zero
   845d4:	003a2006 	br	82e58 <_gp+0xfffe8a64>
   845d8:	0029883a 	mov	r20,zero
   845dc:	003e2506 	br	83e74 <_gp+0xfffe9a80>
   845e0:	d9012c17 	ldw	r4,1200(sp)
   845e4:	980b883a 	mov	r5,r19
   845e8:	d9811e04 	addi	r6,sp,1144
   845ec:	0089c000 	call	89c00 <__sprint_r>
   845f0:	1039c51e 	bne	r2,zero,82d08 <_gp+0xfffe8914>
   845f4:	d8812617 	ldw	r2,1176(sp)
   845f8:	d9413517 	ldw	r5,1236(sp)
   845fc:	d8c12017 	ldw	r3,1152(sp)
   84600:	da000404 	addi	r8,sp,16
   84604:	2885c83a 	sub	r2,r5,r2
   84608:	003e1906 	br	83e70 <_gp+0xfffe9a7c>
   8460c:	d9412f17 	ldw	r5,1212(sp)
   84610:	d8c13117 	ldw	r3,1220(sp)
   84614:	28800017 	ldw	r2,0(r5)
   84618:	29400104 	addi	r5,r5,4
   8461c:	d9412f15 	stw	r5,1212(sp)
   84620:	10c00015 	stw	r3,0(r2)
   84624:	0038da06 	br	82990 <_gp+0xfffe859c>
   84628:	07000b44 	movi	fp,45
   8462c:	df012785 	stb	fp,1182(sp)
   84630:	003b0a06 	br	8325c <_gp+0xfffe8e68>
   84634:	04000274 	movhi	r16,9
   84638:	8401db04 	addi	r16,r16,1900
   8463c:	003f5206 	br	84388 <_gp+0xfffe9f94>
   84640:	00c00b44 	movi	r3,45
   84644:	d8c12785 	stb	r3,1182(sp)
   84648:	d8c12d17 	ldw	r3,1204(sp)
   8464c:	d8812b15 	stw	r2,1196(sp)
   84650:	0029883a 	mov	r20,zero
   84654:	d8c12a15 	stw	r3,1192(sp)
   84658:	00800b44 	movi	r2,45
   8465c:	0039fb06 	br	82e4c <_gp+0xfffe8a58>
   84660:	d8812617 	ldw	r2,1176(sp)
   84664:	00ffff44 	movi	r3,-3
   84668:	10c03216 	blt	r2,r3,84734 <___vfprintf_internal_r+0x1e9c>
   8466c:	a0803116 	blt	r20,r2,84734 <___vfprintf_internal_r+0x1e9c>
   84670:	d8813315 	stw	r2,1228(sp)
   84674:	003e9706 	br	840d4 <_gp+0xfffe9ce0>
   84678:	4805883a 	mov	r2,r9
   8467c:	003e8b06 	br	840ac <_gp+0xfffe9cb8>
   84680:	d8812604 	addi	r2,sp,1176
   84684:	d8800115 	stw	r2,4(sp)
   84688:	d9012c17 	ldw	r4,1200(sp)
   8468c:	d8812504 	addi	r2,sp,1172
   84690:	d9413717 	ldw	r5,1244(sp)
   84694:	d8800215 	stw	r2,8(sp)
   84698:	d8812104 	addi	r2,sp,1156
   8469c:	dd000015 	stw	r20,0(sp)
   846a0:	d8800315 	stw	r2,12(sp)
   846a4:	a80d883a 	mov	r6,r21
   846a8:	01c000c4 	movi	r7,3
   846ac:	da013f15 	stw	r8,1276(sp)
   846b0:	0084d700 	call	84d70 <_dtoa_r>
   846b4:	1021883a 	mov	r16,r2
   846b8:	a039883a 	mov	fp,r20
   846bc:	da013f17 	ldw	r8,1276(sp)
   846c0:	003e6506 	br	84058 <_gp+0xfffe9c64>
   846c4:	dd012b15 	stw	r20,1196(sp)
   846c8:	dd012e15 	stw	r20,1208(sp)
   846cc:	df012783 	ldbu	fp,1182(sp)
   846d0:	dd412f15 	stw	r21,1212(sp)
   846d4:	0029883a 	mov	r20,zero
   846d8:	d8013315 	stw	zero,1228(sp)
   846dc:	0039d706 	br	82e3c <_gp+0xfffe8a48>
   846e0:	81000007 	ldb	r4,0(r16)
   846e4:	00800c04 	movi	r2,48
   846e8:	20800326 	beq	r4,r2,846f8 <___vfprintf_internal_r+0x1e60>
   846ec:	d8c12617 	ldw	r3,1176(sp)
   846f0:	48d3883a 	add	r9,r9,r3
   846f4:	003e5b06 	br	84064 <_gp+0xfffe9c70>
   846f8:	d9013717 	ldw	r4,1244(sp)
   846fc:	a80b883a 	mov	r5,r21
   84700:	000d883a 	mov	r6,zero
   84704:	000f883a 	mov	r7,zero
   84708:	da013f15 	stw	r8,1276(sp)
   8470c:	da413e15 	stw	r9,1272(sp)
   84710:	008cfa80 	call	8cfa8 <__eqdf2>
   84714:	da013f17 	ldw	r8,1276(sp)
   84718:	da413e17 	ldw	r9,1272(sp)
   8471c:	103ff326 	beq	r2,zero,846ec <_gp+0xfffea2f8>
   84720:	00800044 	movi	r2,1
   84724:	1707c83a 	sub	r3,r2,fp
   84728:	d8c12615 	stw	r3,1176(sp)
   8472c:	48d3883a 	add	r9,r9,r3
   84730:	003e4c06 	br	84064 <_gp+0xfffe9c70>
   84734:	94bfff84 	addi	r18,r18,-2
   84738:	157fffc4 	addi	r21,r2,-1
   8473c:	dd412615 	stw	r21,1176(sp)
   84740:	dc8122c5 	stb	r18,1163(sp)
   84744:	a8009016 	blt	r21,zero,84988 <___vfprintf_internal_r+0x20f0>
   84748:	00800ac4 	movi	r2,43
   8474c:	d8812305 	stb	r2,1164(sp)
   84750:	05000244 	movi	r20,9
   84754:	a5404a16 	blt	r20,r21,84880 <___vfprintf_internal_r+0x1fe8>
   84758:	00800c04 	movi	r2,48
   8475c:	ad400c04 	addi	r21,r21,48
   84760:	d8812345 	stb	r2,1165(sp)
   84764:	dd412385 	stb	r21,1166(sp)
   84768:	d8c123c4 	addi	r3,sp,1167
   8476c:	d88122c4 	addi	r2,sp,1163
   84770:	1885c83a 	sub	r2,r3,r2
   84774:	d8c13517 	ldw	r3,1236(sp)
   84778:	d9013517 	ldw	r4,1236(sp)
   8477c:	d8813a15 	stw	r2,1256(sp)
   84780:	1887883a 	add	r3,r3,r2
   84784:	d8c12e15 	stw	r3,1208(sp)
   84788:	00800044 	movi	r2,1
   8478c:	11007a0e 	bge	r2,r4,84978 <___vfprintf_internal_r+0x20e0>
   84790:	d8c12e17 	ldw	r3,1208(sp)
   84794:	18c00044 	addi	r3,r3,1
   84798:	d8c12e15 	stw	r3,1208(sp)
   8479c:	1805883a 	mov	r2,r3
   847a0:	18000216 	blt	r3,zero,847ac <___vfprintf_internal_r+0x1f14>
   847a4:	d8013315 	stw	zero,1228(sp)
   847a8:	003e5506 	br	84100 <_gp+0xfffe9d0c>
   847ac:	0005883a 	mov	r2,zero
   847b0:	d8013315 	stw	zero,1228(sp)
   847b4:	003e5206 	br	84100 <_gp+0xfffe9d0c>
   847b8:	a03e031e 	bne	r20,zero,83fc8 <_gp+0xfffe9bd4>
   847bc:	8029883a 	mov	r20,r16
   847c0:	003e0106 	br	83fc8 <_gp+0xfffe9bd4>
   847c4:	d9012c17 	ldw	r4,1200(sp)
   847c8:	980b883a 	mov	r5,r19
   847cc:	d9811e04 	addi	r6,sp,1144
   847d0:	0089c000 	call	89c00 <__sprint_r>
   847d4:	10394c1e 	bne	r2,zero,82d08 <_gp+0xfffe8914>
   847d8:	dc812617 	ldw	r18,1176(sp)
   847dc:	d8c12017 	ldw	r3,1152(sp)
   847e0:	d8811f17 	ldw	r2,1148(sp)
   847e4:	da000404 	addi	r8,sp,16
   847e8:	003ec706 	br	84308 <_gp+0xfffe9f14>
   847ec:	05000184 	movi	r20,6
   847f0:	003df506 	br	83fc8 <_gp+0xfffe9bd4>
   847f4:	00c00b44 	movi	r3,45
   847f8:	2560003c 	xorhi	r21,r4,32768
   847fc:	d8c12b05 	stb	r3,1196(sp)
   84800:	003df806 	br	83fe4 <_gp+0xfffe9bf0>
   84804:	a7000044 	addi	fp,r20,1
   84808:	003dfd06 	br	84000 <_gp+0xfffe9c0c>
   8480c:	d8c13317 	ldw	r3,1228(sp)
   84810:	00c0610e 	bge	zero,r3,84998 <___vfprintf_internal_r+0x2100>
   84814:	00800044 	movi	r2,1
   84818:	d9013517 	ldw	r4,1236(sp)
   8481c:	1105883a 	add	r2,r2,r4
   84820:	d8812e15 	stw	r2,1208(sp)
   84824:	10000716 	blt	r2,zero,84844 <___vfprintf_internal_r+0x1fac>
   84828:	048019c4 	movi	r18,103
   8482c:	003e3406 	br	84100 <_gp+0xfffe9d0c>
   84830:	d8c13317 	ldw	r3,1228(sp)
   84834:	18c00044 	addi	r3,r3,1
   84838:	d8c12e15 	stw	r3,1208(sp)
   8483c:	1805883a 	mov	r2,r3
   84840:	183ff90e 	bge	r3,zero,84828 <_gp+0xfffea434>
   84844:	0005883a 	mov	r2,zero
   84848:	048019c4 	movi	r18,103
   8484c:	003e2c06 	br	84100 <_gp+0xfffe9d0c>
   84850:	d8812117 	ldw	r2,1156(sp)
   84854:	003e1506 	br	840ac <_gp+0xfffe9cb8>
   84858:	00c0400e 	bge	zero,r3,8495c <___vfprintf_internal_r+0x20c4>
   8485c:	a0002a1e 	bne	r20,zero,84908 <___vfprintf_internal_r+0x2070>
   84860:	d9012a17 	ldw	r4,1192(sp)
   84864:	2080004c 	andi	r2,r4,1
   84868:	1000271e 	bne	r2,zero,84908 <___vfprintf_internal_r+0x2070>
   8486c:	1805883a 	mov	r2,r3
   84870:	18005a16 	blt	r3,zero,849dc <___vfprintf_internal_r+0x2144>
   84874:	d8c13317 	ldw	r3,1228(sp)
   84878:	d8c12e15 	stw	r3,1208(sp)
   8487c:	003e2006 	br	84100 <_gp+0xfffe9d0c>
   84880:	d8c12284 	addi	r3,sp,1162
   84884:	4039883a 	mov	fp,r8
   84888:	a809883a 	mov	r4,r21
   8488c:	01400284 	movi	r5,10
   84890:	182d883a 	mov	r22,r3
   84894:	00825240 	call	82524 <__modsi3>
   84898:	10800c04 	addi	r2,r2,48
   8489c:	a809883a 	mov	r4,r21
   848a0:	b0800005 	stb	r2,0(r22)
   848a4:	01400284 	movi	r5,10
   848a8:	00824dc0 	call	824dc <__divsi3>
   848ac:	102b883a 	mov	r21,r2
   848b0:	b0ffffc4 	addi	r3,r22,-1
   848b4:	a0bff416 	blt	r20,r2,84888 <_gp+0xfffea494>
   848b8:	11400c04 	addi	r5,r2,48
   848bc:	b17fffc5 	stb	r5,-1(r22)
   848c0:	d88122c4 	addi	r2,sp,1163
   848c4:	e011883a 	mov	r8,fp
   848c8:	1880462e 	bgeu	r3,r2,849e4 <___vfprintf_internal_r+0x214c>
   848cc:	d9012344 	addi	r4,sp,1165
   848d0:	b007883a 	mov	r3,r22
   848d4:	00000206 	br	848e0 <___vfprintf_internal_r+0x2048>
   848d8:	19400003 	ldbu	r5,0(r3)
   848dc:	18c00044 	addi	r3,r3,1
   848e0:	21400005 	stb	r5,0(r4)
   848e4:	21000044 	addi	r4,r4,1
   848e8:	10fffb1e 	bne	r2,r3,848d8 <_gp+0xfffea4e4>
   848ec:	d8c12304 	addi	r3,sp,1164
   848f0:	1d87c83a 	sub	r3,r3,r22
   848f4:	d9412344 	addi	r5,sp,1165
   848f8:	28c7883a 	add	r3,r5,r3
   848fc:	003f9c06 	br	84770 <_gp+0xfffea37c>
   84900:	0005883a 	mov	r2,zero
   84904:	003f2c06 	br	845b8 <_gp+0xfffea1c4>
   84908:	d8c13317 	ldw	r3,1228(sp)
   8490c:	a5000044 	addi	r20,r20,1
   84910:	1d29883a 	add	r20,r3,r20
   84914:	dd012e15 	stw	r20,1208(sp)
   84918:	a005883a 	mov	r2,r20
   8491c:	a03df80e 	bge	r20,zero,84100 <_gp+0xfffe9d0c>
   84920:	0005883a 	mov	r2,zero
   84924:	003df606 	br	84100 <_gp+0xfffe9d0c>
   84928:	043fffc4 	movi	r16,-1
   8492c:	0038d406 	br	82c80 <_gp+0xfffe888c>
   84930:	d9012f17 	ldw	r4,1212(sp)
   84934:	8c800043 	ldbu	r18,1(r17)
   84938:	1023883a 	mov	r17,r2
   8493c:	20c00017 	ldw	r3,0(r4)
   84940:	21000104 	addi	r4,r4,4
   84944:	d9012f15 	stw	r4,1212(sp)
   84948:	18001f16 	blt	r3,zero,849c8 <___vfprintf_internal_r+0x2130>
   8494c:	94803fcc 	andi	r18,r18,255
   84950:	9480201c 	xori	r18,r18,128
   84954:	94bfe004 	addi	r18,r18,-128
   84958:	00383406 	br	82a2c <_gp+0xfffe8638>
   8495c:	a000111e 	bne	r20,zero,849a4 <___vfprintf_internal_r+0x210c>
   84960:	d9012a17 	ldw	r4,1192(sp)
   84964:	2080004c 	andi	r2,r4,1
   84968:	10000e1e 	bne	r2,zero,849a4 <___vfprintf_internal_r+0x210c>
   8496c:	00800044 	movi	r2,1
   84970:	d8812e15 	stw	r2,1208(sp)
   84974:	003de206 	br	84100 <_gp+0xfffe9d0c>
   84978:	d9412a17 	ldw	r5,1192(sp)
   8497c:	2884703a 	and	r2,r5,r2
   84980:	103f831e 	bne	r2,zero,84790 <_gp+0xfffea39c>
   84984:	003f8506 	br	8479c <_gp+0xfffea3a8>
   84988:	00800b44 	movi	r2,45
   8498c:	056bc83a 	sub	r21,zero,r21
   84990:	d8812305 	stb	r2,1164(sp)
   84994:	003f6e06 	br	84750 <_gp+0xfffea35c>
   84998:	00800084 	movi	r2,2
   8499c:	10c5c83a 	sub	r2,r2,r3
   849a0:	003f9d06 	br	84818 <_gp+0xfffea424>
   849a4:	a5000084 	addi	r20,r20,2
   849a8:	dd012e15 	stw	r20,1208(sp)
   849ac:	a005883a 	mov	r2,r20
   849b0:	a03dd30e 	bge	r20,zero,84100 <_gp+0xfffe9d0c>
   849b4:	003fda06 	br	84920 <_gp+0xfffea52c>
   849b8:	0005883a 	mov	r2,zero
   849bc:	003dcd06 	br	840f4 <_gp+0xfffe9d00>
   849c0:	d8812617 	ldw	r2,1176(sp)
   849c4:	003f5c06 	br	84738 <_gp+0xfffea344>
   849c8:	94803fcc 	andi	r18,r18,255
   849cc:	9480201c 	xori	r18,r18,128
   849d0:	00ffffc4 	movi	r3,-1
   849d4:	94bfe004 	addi	r18,r18,-128
   849d8:	00381406 	br	82a2c <_gp+0xfffe8638>
   849dc:	0005883a 	mov	r2,zero
   849e0:	003fa406 	br	84874 <_gp+0xfffea480>
   849e4:	d8c12344 	addi	r3,sp,1165
   849e8:	003f6106 	br	84770 <_gp+0xfffea37c>

000849ec <__vfprintf_internal>:
   849ec:	00800274 	movhi	r2,9
   849f0:	1088ff04 	addi	r2,r2,9212
   849f4:	2007883a 	mov	r3,r4
   849f8:	11000017 	ldw	r4,0(r2)
   849fc:	2805883a 	mov	r2,r5
   84a00:	300f883a 	mov	r7,r6
   84a04:	180b883a 	mov	r5,r3
   84a08:	100d883a 	mov	r6,r2
   84a0c:	00828981 	jmpi	82898 <___vfprintf_internal_r>

00084a10 <__swsetup_r>:
   84a10:	00800274 	movhi	r2,9
   84a14:	1088ff04 	addi	r2,r2,9212
   84a18:	10800017 	ldw	r2,0(r2)
   84a1c:	defffd04 	addi	sp,sp,-12
   84a20:	dc400115 	stw	r17,4(sp)
   84a24:	dc000015 	stw	r16,0(sp)
   84a28:	dfc00215 	stw	ra,8(sp)
   84a2c:	2023883a 	mov	r17,r4
   84a30:	2821883a 	mov	r16,r5
   84a34:	10000226 	beq	r2,zero,84a40 <__swsetup_r+0x30>
   84a38:	10c00e17 	ldw	r3,56(r2)
   84a3c:	18002e26 	beq	r3,zero,84af8 <__swsetup_r+0xe8>
   84a40:	8080030b 	ldhu	r2,12(r16)
   84a44:	10c0020c 	andi	r3,r2,8
   84a48:	100d883a 	mov	r6,r2
   84a4c:	18000f26 	beq	r3,zero,84a8c <__swsetup_r+0x7c>
   84a50:	80c00417 	ldw	r3,16(r16)
   84a54:	18001526 	beq	r3,zero,84aac <__swsetup_r+0x9c>
   84a58:	1100004c 	andi	r4,r2,1
   84a5c:	20001c1e 	bne	r4,zero,84ad0 <__swsetup_r+0xc0>
   84a60:	1080008c 	andi	r2,r2,2
   84a64:	1000271e 	bne	r2,zero,84b04 <__swsetup_r+0xf4>
   84a68:	80800517 	ldw	r2,20(r16)
   84a6c:	80800215 	stw	r2,8(r16)
   84a70:	18001c26 	beq	r3,zero,84ae4 <__swsetup_r+0xd4>
   84a74:	0005883a 	mov	r2,zero
   84a78:	dfc00217 	ldw	ra,8(sp)
   84a7c:	dc400117 	ldw	r17,4(sp)
   84a80:	dc000017 	ldw	r16,0(sp)
   84a84:	dec00304 	addi	sp,sp,12
   84a88:	f800283a 	ret
   84a8c:	3080040c 	andi	r2,r6,16
   84a90:	10001726 	beq	r2,zero,84af0 <__swsetup_r+0xe0>
   84a94:	3080010c 	andi	r2,r6,4
   84a98:	10001d1e 	bne	r2,zero,84b10 <__swsetup_r+0x100>
